.model full
	.sourcedir '/Users/brzeszczot/workspace/mosync_engine2/'
	.sourcefile '/Users/brzeszczot/workspace/mosync_engine2/Alg.cpp'
	.stabs	"gcc2_compiled.",60,0,0,0
	.stabs	"__vtbl_ptr_type:t(0,1)=*(0,2)=f(0,3)=r(0,3);-2147483648;2147483647;",128,0,0,0
	.stabs	"bool:t(0,4)=@s8;-16;",128,0,0,0
	.stabs	"wchar_t:t(0,5)=@s16;r(0,5);0;65535;",128,0,0,0
	.stabs	"void:t(0,6)=(0,6)",128,0,0,0
	.stabs	"long double:t(0,7)=r(0,3);8;0;",128,0,0,0
	.stabs	"double:t(0,8)=r(0,3);8;0;",128,0,0,0
	.stabs	"float:t(0,9)=r(0,3);4;0;",128,0,0,0
	.stabs	"unsigned char:t(0,10)=@s8;r(0,10);0;255;",128,0,0,0
	.stabs	"signed char:t(0,11)=@s8;r(0,11);-128;127;",128,0,0,0
	.stabs	"short unsigned int:t(0,12)=@s16;r(0,12);0;65535;",128,0,0,0
	.stabs	"short int:t(0,13)=@s16;r(0,13);-32768;32767;",128,0,0,0
	.stabs	"long long unsigned int:t(0,14)=@s64;r(0,14);0000000000000;01777777777777777777777;",128,0,0,0
	.stabs	"long long int:t(0,15)=@s64;r(0,15);01000000000000000000000;0777777777777777777777;",128,0,0,0
	.stabs	"long unsigned int:t(0,16)=r(0,16);0000000000000;0037777777777;",128,0,0,0
	.stabs	"unsigned int:t(0,17)=r(0,17);0000000000000;0037777777777;",128,0,0,0
	.stabs	"long int:t(0,18)=r(0,18);-2147483648;2147483647;",128,0,0,0
	.stabs	"int:t(0,3)",128,0,0,0
	.stabs	"char:t(0,19)=r(0,19);0;127;",128,0,0,0
	.stabs	"__builtin_va_list:t(0,20)=*(0,6)",128,0,0,0
	.stabs	"complex long double:t(0,21)=R3;16;0;",128,0,0,0
	.stabs	"complex double:t(0,22)=R3;16;0;",128,0,0,0
	.stabs	"complex float:t(0,23)=R3;8;0;",128,0,0,0
	.stabs	"complex int:t(0,24)=s8real:(0,3),0,32;imag:(0,3),32,32;;",128,0,0,0
	.stabs	"/Users/brzeszczot/workspace/mosync_engine2/Alg.hpp",130,0,0,0
	.stabs	"/Applications/MoSync/include/newlib/stlport/cmath",130,0,0,0
	.stabs	"/Applications/MoSync/include/newlib/stlport/stl/_cmath.h",130,0,0,0
	.stabs	"/Applications/MoSync/include/newlib/stlport/math.h",130,0,0,0
	.stabs	"/Applications/MoSync/include/newlib/stlport/../math.h",130,0,0,0
	.stabs	"/Applications/MoSync/include/newlib/sys/reent.h",130,0,0,0
	.stabs	"/Applications/MoSync/include/newlib/sys/_types.h",130,0,0,0
	.stabs	"/Applications/MoSync/include/newlib/machine/_types.h",130,0,0,0
	.stabs	"/Applications/MoSync/include/newlib/machine/_default_types.h",130,0,0,0
	.stabs	"__int8_t:t(9,1)=(0,11)",128,0,26,0
	.stabs	"__uint8_t:t(9,2)=(0,10)",128,0,27,0
	.stabs	"__int16_t:t(9,3)=(0,13)",128,0,36,0
	.stabs	"__uint16_t:t(9,4)=(0,12)",128,0,37,0
	.stabs	"__int_least16_t:t(9,5)=(9,3)",128,0,46,0
	.stabs	"__uint_least16_t:t(9,6)=(9,4)",128,0,47,0
	.stabs	"__int32_t:t(9,7)=(0,3)",128,0,58,0
	.stabs	"__uint32_t:t(9,8)=(0,17)",128,0,59,0
	.stabs	"__int_least32_t:t(9,9)=(9,7)",128,0,76,0
	.stabs	"__uint_least32_t:t(9,10)=(9,8)",128,0,77,0
	.stabs	"__int64_t:t(9,11)=(0,15)",128,0,99,0
	.stabs	"__uint64_t:t(9,12)=(0,14)",128,0,100,0
	.stabn	162,0,0,0
	.stabn	162,0,0,0
	.stabs	"/Applications/MoSync/include/newlib/sys/lock.h",130,0,0,0
	.stabs	"_LOCK_T:t(10,1)=(0,3)",128,0,6,0
	.stabs	"_LOCK_RECURSIVE_T:t(10,2)=(0,3)",128,0,7,0
	.stabn	162,0,0,0
	.stabs	"_off_t:t(7,1)=(0,18)",128,0,16,0
	.stabs	"__dev_t:t(7,2)=(0,13)",128,0,24,0
	.stabs	"__uid_t:t(7,3)=(0,12)",128,0,29,0
	.stabs	"__gid_t:t(7,4)=(0,12)",128,0,32,0
	.stabs	"_off64_t:t(7,5)=(0,15)",128,0,36,0
	.stabs	"_fpos_t:t(7,6)=(0,18)",128,0,44,0
	.stabs	"_ssize_t:t(7,7)=(0,3)",128,0,56,0
	.stabs	"/Applications/MoSync/include/newlib/stlport/stddef.h",130,0,0,0
	.stabs	"/Applications/MoSync/include/newlib/stlport/../stddef.h",130,0,0,0
	.stabs	"wint_t:t(12,1)=(0,3)",128,0,6,0
	.stabs	"size_t:t(12,2)=(0,16)",128,0,7,0
	.stabs	"ptrdiff_t:t(12,3)=(0,3)",128,0,8,0
	.stabs	"wchar:t(12,4)=(0,5)",128,0,13,0
	.stabn	162,0,0,0
	.stabn	162,0,0,0
	.stabs	"_mbstate_t:t(7,8)=s8__count:(0,3),0,32;__value:(7,9)=u4__wch:(12,1),0,32;__wchb:(7,10)=ar(7,11)=r(7,11);0000000000000;0037777777777;;0;3;(0,10),0,32;operator=::(7,12)=#(7,9),(7,13)=&(7,9),(7,14)=*(7,9),(7,15)=&(7,16)=k(7,9),(0,6);:_ZN10_mbstate_t3$_1aSERKS0_;2A.;__base_ctor::(7,17)=#(7,9),(0,6),(7,14),(7,15),(0,6);:_ZN10_mbstate_t3$_1C2ERKS0_;2A.;__comp_ctor::(7,17):_ZN10_mbstate_t3$_1C1ERKS0_;2A.;__base_ctor::(7,18)=#(7,9),(0,6),(7,14),(0,6);:_ZN10_mbstate_t3$_1C2Ev;2A.;__comp_ctor::(7,18):_ZN10_mbstate_t3$_1C1Ev;2A.;;,32,32;operator=::(7,19)=#(7,8),(7,20)=&(7,8),(7,21)=*(7,8),(7,22)=&(7,23)=k(7,8),(0,6);:_ZN10_mbstate_taSERKS_;2A.;__base_ctor::(7,24)=#(7,8),(0,6),(7,21),(7,22),(0,6);:_ZN10_mbstate_tC2ERKS_;2A.;__comp_ctor::(7,24):_ZN10_mbstate_tC1ERKS_;2A.;__base_ctor::(7,25)=#(7,8),(0,6),(7,21),(0,6);:_ZN10_mbstate_tC2Ev;2A.;__comp_ctor::(7,25):_ZN10_mbstate_tC1Ev;2A.;;",128,0,75,0
	.stabs	"_flock_t:t(7,26)=(10,2)",128,0,79,0
	.stabs	"_iconv_t:t(7,27)=(7,28)=*(0,6)",128,0,84,0
	.stabn	162,0,0,0
	.stabs	"__ULong:t(6,1)=(0,16)",128,0,21,0
	.stabs	"_Bigint:Tt(6,2)=s24_next:(6,3)=*(6,2),0,32;_k:(0,3),32,32;_maxwds:(0,3),64,32;_sign:(0,3),96,32;_wds:(0,3),128,32;_x:(6,4)=ar(7,11);0;0;(6,1),160,32;operator=::(6,5)=#(6,2),(6,6)=&(6,2),(6,3),(6,7)=&(6,8)=k(6,2),(0,6);:_ZN7_BigintaSERKS_;2A.;__base_ctor::(6,9)=#(6,2),(0,6),(6,3),(6,7),(0,6);:_ZN7_BigintC2ERKS_;2A.;__comp_ctor::(6,9):_ZN7_BigintC1ERKS_;2A.;__base_ctor::(6,10)=#(6,2),(0,6),(6,3),(0,6);:_ZN7_BigintC2Ev;2A.;__comp_ctor::(6,10):_ZN7_BigintC1Ev;2A.;;",128,0,45,0
	.stabs	"__tm:Tt(6,11)=s36__tm_sec:(0,3),0,32;__tm_min:(0,3),32,32;__tm_hour:(0,3),64,32;__tm_mday:(0,3),96,32;__tm_mon:(0,3),128,32;__tm_year:(0,3),160,32;__tm_wday:(0,3),192,32;__tm_yday:(0,3),224,32;__tm_isdst:(0,3),256,32;operator=::(6,12)=#(6,11),(6,13)=&(6,11),(6,14)=*(6,11),(6,15)=&(6,16)=k(6,11),(0,6);:_ZN4__tmaSERKS_;2A.;__base_ctor::(6,17)=#(6,11),(0,6),(6,14),(6,15),(0,6);:_ZN4__tmC2ERKS_;2A.;__comp_ctor::(6,17):_ZN4__tmC1ERKS_;2A.;__base_ctor::(6,18)=#(6,11),(0,6),(6,14),(0,6);:_ZN4__tmC2Ev;2A.;__comp_ctor::(6,18):_ZN4__tmC1Ev;2A.;;",128,0,53,0
	.stabs	"_on_exit_args:Tt(6,19)=s264_fnargs:(6,20)=ar(7,11);0;31;(7,28),0,1024;_dso_handle:(6,20),1024,1024;_fntypes:(6,1),2048,32;_is_cxa:(6,1),2080,32;operator=::(6,21)=#(6,19),(6,22)=&(6,19),(6,23)=*(6,19),(6,24)=&(6,25)=k(6,19),(0,6);:_ZN13_on_exit_argsaSERKS_;2A.;__base_ctor::(6,26)=#(6,19),(0,6),(6,23),(6,24),(0,6);:_ZN13_on_exit_argsC2ERKS_;2A.;__comp_ctor::(6,26):_ZN13_on_exit_argsC1ERKS_;2A.;__base_ctor::(6,27)=#(6,19),(0,6),(6,23),(0,6);:_ZN13_on_exit_argsC2Ev;2A.;__comp_ctor::(6,27):_ZN13_on_exit_argsC1Ev;2A.;;",128,0,71,0
	.stabs	"_atexit:Tt(6,28)=s400_next:(6,29)=*(6,28),0,32;_ind:(0,3),32,32;_fns:(6,30)=ar(7,11);0;31;(6,31)=*(6,32)=f(0,6),64,1024;_on_exit_args:(6,19),1088,2112;operator=::(6,33)=#(6,28),(6,34)=&(6,28),(6,29),(6,35)=&(6,36)=k(6,28),(0,6);:_ZN7_atexitaSERKS_;2A.;__base_ctor::(6,37)=#(6,28),(0,6),(6,29),(6,35),(0,6);:_ZN7_atexitC2ERKS_;2A.;__comp_ctor::(6,37):_ZN7_atexitC1ERKS_;2A.;__base_ctor::(6,38)=#(6,28),(0,6),(6,29),(0,6);:_ZN7_atexitC2Ev;2A.;__comp_ctor::(6,38):_ZN7_atexitC1Ev;2A.;;",128,0,89,0
	.stabs	"__sbuf:Tt(6,39)=s8_base:(6,40)=*(0,10),0,32;_size:(0,3),32,32;operator=::(6,41)=#(6,39),(6,42)=&(6,39),(6,43)=*(6,39),(6,44)=&(6,45)=k(6,39),(0,6);:_ZN6__sbufaSERKS_;2A.;__base_ctor::(6,46)=#(6,39),(0,6),(6,43),(6,44),(0,6);:_ZN6__sbufC2ERKS_;2A.;__comp_ctor::(6,46):_ZN6__sbufC1ERKS_;2A.;__base_ctor::(6,47)=#(6,39),(0,6),(6,43),(0,6);:_ZN6__sbufC2Ev;2A.;__comp_ctor::(6,47):_ZN6__sbufC1Ev;2A.;;",128,0,105,0
	.stabs	"__sFILE:Tt(6,48)=s100_p:(6,40),0,32;_r:(0,3),32,32;_w:(0,3),64,32;_flags:(0,13),96,16;_file:(0,13),112,16;_bf:(6,39),128,64;_lbfsize:(0,3),192,32;_cookie:(7,28),224,32;_read:(6,49)=*(6,50)=f(0,3),256,32;_write:(6,51)=*(6,52)=f(0,3),288,32;_seek:(6,53)=*(6,54)=f(7,6),320,32;_close:(6,55)=*(6,56)=f(0,3),352,32;_ub:(6,39),384,64;_up:(6,40),448,32;_ur:(0,3),480,32;_ubuf:(6,57)=ar(7,11);0;2;(0,10),512,24;_nbuf:(6,58)=ar(7,11);0;0;(0,10),536,8;_lb:(6,39),544,64;_blksize:(0,3),608,32;_offset:(0,3),640,32;_data:(6,59)=*(6,60)=xs_reent:,672,32;_mbstate:(7,8),704,64;_flags2:(0,3),768,32;operator=::(6,61)=#(6,48),(6,62)=&(6,48),(6,63)=*(6,48),(6,64)=&(6,65)=k(6,48),(0,6);:_ZN7__sFILEaSERKS_;2A.;__base_ctor::(6,66)=#(6,48),(0,6),(6,63),(6,64),(0,6);:_ZN7__sFILEC2ERKS_;2A.;__comp_ctor::(6,66):_ZN7__sFILEC1ERKS_;2A.;__base_ctor::(6,67)=#(6,48),(0,6),(6,63),(0,6);:_ZN7__sFILEC2Ev;2A.;__comp_ctor::(6,67):_ZN7__sFILEC1Ev;2A.;;",128,0,169,0
	.stabs	"__FILE:t(6,68)=(6,48)",128,0,273,0
	.stabs	"_glue:Tt(6,69)=s12_next:(6,70)=*(6,69),0,32;_niobs:(0,3),32,32;_iobs:(6,71)=*(6,68),64,32;operator=::(6,72)=#(6,69),(6,73)=&(6,69),(6,70),(6,74)=&(6,75)=k(6,69),(0,6);:_ZN5_glueaSERKS_;2A.;__base_ctor::(6,76)=#(6,69),(0,6),(6,70),(6,74),(0,6);:_ZN5_glueC2ERKS_;2A.;__comp_ctor::(6,76):_ZN5_glueC1ERKS_;2A.;__base_ctor::(6,77)=#(6,69),(0,6),(6,70),(0,6);:_ZN5_glueC2Ev;2A.;__comp_ctor::(6,77):_ZN5_glueC1Ev;2A.;;",128,0,278,0
	.stabs	"_rand48:Tt(6,78)=s14_seed:(6,79)=ar(7,11);0;2;(0,12),0,48;_mult:(6,79),48,48;_add:(0,12),96,16;operator=::(6,80)=#(6,78),(6,81)=&(6,78),(6,82)=*(6,78),(6,83)=&(6,84)=k(6,78),(0,6);:_ZN7_rand48aSERKS_;2A.;__base_ctor::(6,85)=#(6,78),(0,6),(6,82),(6,83),(0,6);:_ZN7_rand48C2ERKS_;2A.;__comp_ctor::(6,85):_ZN7_rand48C1ERKS_;2A.;__base_ctor::(6,86)=#(6,78),(0,6),(6,82),(0,6);:_ZN7_rand48C2Ev;2A.;__comp_ctor::(6,86):_ZN7_rand48C1Ev;2A.;;",128,0,305,0
	.stabs	"_reent:Tt(6,60)=s1048_errno:(0,3),0,32;_stdin:(6,71),32,32;_stdout:(6,71),64,32;_stderr:(6,71),96,32;_inc:(0,3),128,32;_emergency:(6,87)=ar(7,11);0;24;(0,19),160,200;_current_category:(0,3),384,32;_current_locale:(6,88)=*(6,89)=k(0,19),416,32;__sdidinit:(0,3),448,32;__cleanup:(6,90)=*(6,91)=f(0,6),480,32;_result:(6,3),512,32;_result_k:(0,3),544,32;_p5s:(6,3),576,32;_freelist:(6,92)=*(6,3),608,32;_cvtlen:(0,3),640,32;_cvtbuf:(6,93)=*(0,19),672,32;_new:(6,94)=u240_reent:(6,95)=s204_unused_rand:(0,17),0,32;_strtok_last:(6,93),32,32;_asctime_buf:(6,96)=ar(7,11);0;25;(0,19),64,208;_localtime_buf:(6,11),288,288;_gamma_signgam:(0,3),576,32;_rand_next:(0,14),608,64;_r48:(6,78),672,112;_mblen_state:(7,8),800,64;_mbtowc_state:(7,8),864,64;_wctomb_state:(7,8),928,64;_l64a_buf:(6,97)=ar(7,11);0;7;(0,19),992,64;_signal_buf:(6,98)=ar(7,11);0;23;(0,19),1056,192;_getdate_err:(0,3),1248,32;_mbrlen_state:(7,8),1280,64;_mbrtowc_state:(7,8),1344,64;_mbsrtowcs_state:(7,8),1408,64;_wcrtomb_state:(7,8),1472,64;_wcsrtombs_state:(7,8),1536,64;_h_errno:(0,3),1600,32;operator=::(6,99)=#(6,95),(6,100)=&(6,95),(6,101)=*(6,95),(6,102)=&(6,103)=k(6,95),(0,6);:_ZN6_reent3$_23$_3aSERKS1_;2A.;__base_ctor::(6,104)=#(6,95),(0,6),(6,101),(6,102),(0,6);:_ZN6_reent3$_23$_3C2ERKS1_;2A.;__comp_ctor::(6,104):_ZN6_reent3$_23$_3C1ERKS1_;2A.;__base_ctor::(6,105)=#(6,95),(0,6),(6,101),(0,6);:_ZN6_reent3$_23$_3C2Ev;2A.;__comp_ctor::(6,105):_ZN6_reent3$_23$_3C1Ev;2A.;;,0,1632;_unused:(6,106)=s240_nextf:(6,107)=ar(7,11);0;29;(6,40),0,960;_nmalloc:(6,108)=ar(7,11);0;29;(0,17),960,960;operator=::(6,109)=#(6,106),(6,110)=&(6,106),(6,111)=*(6,106),(6,112)=&(6,113)=k(6,106),(0,6);:_ZN6_reent3$_23$_4aSERKS1_;2A.;__base_ctor::(6,114)=#(6,106),(0,6),(6,111),(6,112),(0,6);:_ZN6_reent3$_23$_4C2ERKS1_;2A.;__comp_ctor::(6,114):_ZN6_reent3$_23$_4C1ERKS1_;2A.;__base_ctor::(6,115)=#(6,106),(0,6),(6,111),(0,6);:_ZN6_reent3$_23$_4C2Ev;2A.;__comp_ctor::(6,115):_ZN6_reent3$_23$_4C1Ev;2A.;;,0,1920;operator=::(6,116)=#(6,94),(6,117)=&(6,94),(6,118)=*(6,94),(6,119)=&(6,120)=k(6,94),(0,6);:_ZN6_reent3$_2aSERKS0_;2A.;__base_ctor::(6,121)=#(6,94),(0,6),(6,118),(6,119),(0,6);:_ZN6_reent3$_2C2ERKS0_;2A.;__comp_ctor::(6,121):_ZN6_reent3$_2C1ERKS0_;2A.;__base_ctor::(6,122)=#(6,94),(0,6),(6,118),(0,6);:_ZN6_reent3$_2C2Ev;2A.;__comp_ctor::(6,122):_ZN6_reent3$_2C1Ev;2A.;;,704,1920;_atexit:(6,29),2624,32;_atexit0:(6,28),2656,3200;_sig_func:(6,123)=*(6,124)=*(6,125)=f(0,6),5856,32;__sglue:(6,69),5888,96;__sf:(6,126)=ar(7,11);0;2;(6,68),5984,2400;operator=::(6,127)=#(6,60),(6,128)=&(6,60),(6,59),(6,129)=&(6,130)=k(6,60),(0,6);:_ZN6_reentaSERKS_;2A.;__base_ctor::(6,131)=#(6,60),(0,6),(6,59),(6,129),(0,6);:_ZN6_reentC2ERKS_;2A.;__comp_ctor::(6,131):_ZN6_reentC1ERKS_;2A.;__base_ctor::(6,132)=#(6,60),(0,6),(6,59),(0,6);:_ZN6_reentC2Ev;2A.;__comp_ctor::(6,132):_ZN6_reentC1Ev;2A.;;",128,0,581,0
	.stabn	162,0,0,0
	.stabs	"__dmath:Tt(5,1)=u8d:(0,8),0,64;i:(5,2)=ar(7,11);0;1;(6,1),0,64;operator=::(5,3)=#(5,1),(5,4)=&(5,1),(5,5)=*(5,1),(5,6)=&(5,7)=k(5,1),(0,6);:_ZN7__dmathaSERKS_;2A.;__base_ctor::(5,8)=#(5,1),(0,6),(5,5),(5,6),(0,6);:_ZN7__dmathC2ERKS_;2A.;__comp_ctor::(5,8):_ZN7__dmathC1ERKS_;2A.;__base_ctor::(5,9)=#(5,1),(0,6),(5,5),(0,6);:_ZN7__dmathC2Ev;2A.;__comp_ctor::(5,9):_ZN7__dmathC1Ev;2A.;;",128,0,15,0
	.stabs	"__fmath:Tt(5,10)=u4f:(0,9),0,32;i:(6,4),0,32;operator=::(5,11)=#(5,10),(5,12)=&(5,10),(5,13)=*(5,10),(5,14)=&(5,15)=k(5,10),(0,6);:_ZN7__fmathaSERKS_;2A.;__base_ctor::(5,16)=#(5,10),(0,6),(5,13),(5,14),(0,6);:_ZN7__fmathC2ERKS_;2A.;__comp_ctor::(5,16):_ZN7__fmathC1ERKS_;2A.;__base_ctor::(5,17)=#(5,10),(0,6),(5,13),(0,6);:_ZN7__fmathC2Ev;2A.;__comp_ctor::(5,17):_ZN7__fmathC1Ev;2A.;;",128,0,21,0
	.stabs	"float_t:t(5,18)=(0,9)",128,0,148,0
	.stabs	"double_t:t(5,19)=(0,8)",128,0,149,0
	.stabs	"__exception:Tt(5,20)=s36type:(0,3),0,32;name:(6,88),32,32;arg1:(0,8),64,64;arg2:(0,8),128,64;retval:(0,8),192,64;err:(0,3),256,32;operator=::(5,21)=#(5,20),(5,22)=&(5,20),(5,23)=*(5,20),(5,24)=&(5,25)=k(5,20),(0,6);:_ZN11__exceptionaSERKS_;2A.;__base_ctor::(5,26)=#(5,20),(0,6),(5,23),(5,24),(0,6);:_ZN11__exceptionC2ERKS_;2A.;__comp_ctor::(5,26):_ZN11__exceptionC1ERKS_;2A.;__base_ctor::(5,27)=#(5,20),(0,6),(5,23),(0,6);:_ZN11__exceptionC2Ev;2A.;__comp_ctor::(5,27):_ZN11__exceptionC1Ev;2A.;;",128,0,501,0
	.stabs	"__fdlibm_version:t(5,28)=e__fdlibm_ieee:-1,__fdlibm_svid:0,__fdlibm_xopen:1,__fdlibm_posix:2,;",128,0,555,0
	.stabn	162,0,0,0
	.stabn	162,0,0,0
	.stabs	"/Applications/MoSync/include/newlib/stlport/stl/_cstdlib.h",130,0,0,0
	.stabs	"/Applications/MoSync/include/newlib/stlport/stdlib.h",130,0,0,0
	.stabs	"/Applications/MoSync/include/newlib/stlport/../stdlib.h",130,0,0,0
	.stabs	"/Applications/MoSync/include/newlib/malloc.h",130,0,0,0
	.stabs	"mallinfo:Tt(16,1)=s40arena:(0,3),0,32;ordblks:(0,3),32,32;smblks:(0,3),64,32;hblks:(0,3),96,32;hblkhd:(0,3),128,32;usmblks:(0,3),160,32;fsmblks:(0,3),192,32;uordblks:(0,3),224,32;fordblks:(0,3),256,32;keepcost:(0,3),288,32;operator=::(16,2)=#(16,1),(16,3)=&(16,1),(16,4)=*(16,1),(16,5)=&(16,6)=k(16,1),(0,6);:_ZN8mallinfoaSERKS_;2A.;__base_ctor::(16,7)=#(16,1),(0,6),(16,4),(16,5),(0,6);:_ZN8mallinfoC2ERKS_;2A.;__comp_ctor::(16,7):_ZN8mallinfoC1ERKS_;2A.;__base_ctor::(16,8)=#(16,1),(0,6),(16,4),(0,6);:_ZN8mallinfoC2Ev;2A.;__comp_ctor::(16,8):_ZN8mallinfoC1Ev;2A.;;",128,0,24,0
	.stabn	162,0,0,0
	.stabs	"div_t:t(15,1)=s8quot:(0,3),0,32;rem:(0,3),32,32;operator=::(15,2)=#(15,1),(15,3)=&(15,1),(15,4)=*(15,1),(15,5)=&(15,6)=k(15,1),(0,6);:_ZN5div_taSERKS_;2A.;__base_ctor::(15,7)=#(15,1),(0,6),(15,4),(15,5),(0,6);:_ZN5div_tC2ERKS_;2A.;__comp_ctor::(15,7):_ZN5div_tC1ERKS_;2A.;__base_ctor::(15,8)=#(15,1),(0,6),(15,4),(0,6);:_ZN5div_tC2Ev;2A.;__comp_ctor::(15,8):_ZN5div_tC1Ev;2A.;;",128,0,35,0
	.stabs	"ldiv_t:t(15,9)=s8quot:(0,18),0,32;rem:(0,18),32,32;operator=::(15,10)=#(15,9),(15,11)=&(15,9),(15,12)=*(15,9),(15,13)=&(15,14)=k(15,9),(0,6);:_ZN6ldiv_taSERKS_;2A.;__base_ctor::(15,15)=#(15,9),(0,6),(15,12),(15,13),(0,6);:_ZN6ldiv_tC2ERKS_;2A.;__comp_ctor::(15,15):_ZN6ldiv_tC1ERKS_;2A.;__base_ctor::(15,16)=#(15,9),(0,6),(15,12),(0,6);:_ZN6ldiv_tC2Ev;2A.;__comp_ctor::(15,16):_ZN6ldiv_tC1Ev;2A.;;",128,0,41,0
	.stabs	"lldiv_t:t(15,17)=s16quot:(0,15),0,64;rem:(0,15),64,64;operator=::(15,18)=#(15,17),(15,19)=&(15,17),(15,20)=*(15,17),(15,21)=&(15,22)=k(15,17),(0,6);:_ZN7lldiv_taSERKS_;2A.;__base_ctor::(15,23)=#(15,17),(0,6),(15,20),(15,21),(0,6);:_ZN7lldiv_tC2ERKS_;2A.;__comp_ctor::(15,23):_ZN7lldiv_tC1ERKS_;2A.;__base_ctor::(15,24)=#(15,17),(0,6),(15,20),(0,6);:_ZN7lldiv_tC2Ev;2A.;__comp_ctor::(15,24):_ZN7lldiv_tC1Ev;2A.;;",128,0,48,0
	.stabn	162,0,0,0
	.stabn	162,0,0,0
	.stabn	162,0,0,0
	.stabn	162,0,0,0
	.stabn	162,0,0,0
	.stabs	"/Applications/MoSync/include/newlib/stlport/algorithm",130,0,0,0
	.stabs	"/Applications/MoSync/include/newlib/stlport/stl/_cstdio.h",130,0,0,0
	.stabs	"/Applications/MoSync/include/newlib/stlport/stdio.h",130,0,0,0
	.stabs	"/Applications/MoSync/include/newlib/stlport/../stdio.h",130,0,0,0
	.stabs	"/Applications/MoSync/include/newlib/stlport/stdarg.h",130,0,0,0
	.stabs	"/Applications/MoSync/include/newlib/stlport/../stdarg.h",130,0,0,0
	.stabs	"__gnuc_va_list:t(22,1)=(0,20)",128,0,34,0
	.stabs	"va_list:t(22,2)=(22,1)",128,0,35,0
	.stabn	162,0,0,0
	.stabn	162,0,0,0
	.stabs	"/Applications/MoSync/include/newlib/sys/types.h",130,0,0,0
	.stabs	"u_int8_t:t(23,1)=(9,2)",128,0,36,0
	.stabs	"u_int16_t:t(23,2)=(9,4)",128,0,39,0
	.stabs	"u_int32_t:t(23,3)=(9,8)",128,0,42,0
	.stabs	"u_int64_t:t(23,4)=(9,12)",128,0,46,0
	.stabs	"u_quad_t:t(23,5)=(9,12)",128,0,49,0
	.stabs	"quad_t:t(23,6)=(9,11)",128,0,50,0
	.stabs	"qaddr_t:t(23,7)=(23,8)=*(23,6)",128,0,51,0
	.stabs	"/Applications/MoSync/include/newlib/machine/types.h",130,0,0,0
	.stabs	"__off_t:t(24,1)=(0,18)",128,0,19,0
	.stabs	"__pid_t:t(24,2)=(0,3)",128,0,20,0
	.stabs	"__loff_t:t(24,3)=(0,15)",128,0,22,0
	.stabn	162,0,0,0
	.stabs	"u_char:t(23,9)=(0,10)",128,0,92,0
	.stabs	"u_short:t(23,10)=(0,12)",128,0,93,0
	.stabs	"u_int:t(23,11)=(0,17)",128,0,94,0
	.stabs	"u_long:t(23,12)=(0,16)",128,0,95,0
	.stabs	"ushort:t(23,13)=(0,12)",128,0,101,0
	.stabs	"uint:t(23,14)=(0,17)",128,0,102,0
	.stabs	"clock_t:t(23,15)=(0,16)",128,0,107,0
	.stabs	"time_t:t(23,16)=(0,18)",128,0,112,0
	.stabs	"timespec:Tt(23,17)=s8tv_sec:(23,16),0,32;tv_nsec:(0,18),32,32;operator=::(23,18)=#(23,17),(23,19)=&(23,17),(23,20)=*(23,17),(23,21)=&(23,22)=k(23,17),(0,6);:_ZN8timespecaSERKS_;2A.;__base_ctor::(23,23)=#(23,17),(0,6),(23,20),(23,21),(0,6);:_ZN8timespecC2ERKS_;2A.;__comp_ctor::(23,23):_ZN8timespecC1ERKS_;2A.;__base_ctor::(23,24)=#(23,17),(0,6),(23,20),(0,6);:_ZN8timespecC2Ev;2A.;__comp_ctor::(23,24):_ZN8timespecC1Ev;2A.;;",128,0,117,0
	.stabs	"itimerspec:Tt(23,25)=s16it_interval:(23,17),0,64;it_value:(23,17),64,64;operator=::(23,26)=#(23,25),(23,27)=&(23,25),(23,28)=*(23,25),(23,29)=&(23,30)=k(23,25),(0,6);:_ZN10itimerspecaSERKS_;2A.;__base_ctor::(23,31)=#(23,25),(0,6),(23,28),(23,29),(0,6);:_ZN10itimerspecC2ERKS_;2A.;__comp_ctor::(23,31):_ZN10itimerspecC1ERKS_;2A.;__base_ctor::(23,32)=#(23,25),(0,6),(23,28),(0,6);:_ZN10itimerspecC2Ev;2A.;__comp_ctor::(23,32):_ZN10itimerspecC1Ev;2A.;;",128,0,122,0
	.stabs	"daddr_t:t(23,33)=(0,18)",128,0,128,0
	.stabs	"caddr_t:t(23,34)=(6,93)",128,0,129,0
	.stabs	"ino_t:t(23,35)=(0,12)",128,0,136,0
	.stabs	"off_t:t(23,36)=(7,1)",128,0,165,0
	.stabs	"dev_t:t(23,37)=(7,2)",128,0,166,0
	.stabs	"uid_t:t(23,38)=(7,3)",128,0,167,0
	.stabs	"gid_t:t(23,39)=(7,4)",128,0,168,0
	.stabs	"pid_t:t(23,40)=(0,3)",128,0,174,0
	.stabs	"key_t:t(23,41)=(0,18)",128,0,182,0
	.stabs	"ssize_t:t(23,42)=(7,7)",128,0,184,0
	.stabs	"mode_t:t(23,43)=(0,17)",128,0,198,0
	.stabs	"nlink_t:t(23,44)=(0,12)",128,0,203,0
	.stabs	"fd_mask:t(23,45)=(0,18)",128,0,225,0
	.stabs	"_types_fd_set:Tt(23,46)=s8fds_bits:(23,47)=ar(7,11);0;1;(23,45),0,64;operator=::(23,48)=#(23,46),(23,49)=&(23,46),(23,50)=*(23,46),(23,51)=&(23,52)=k(23,46),(0,6);:_ZN13_types_fd_setaSERKS_;2A.;__base_ctor::(23,53)=#(23,46),(0,6),(23,50),(23,51),(0,6);:_ZN13_types_fd_setC2ERKS_;2A.;__comp_ctor::(23,53):_ZN13_types_fd_setC1ERKS_;2A.;__base_ctor::(23,54)=#(23,46),(0,6),(23,50),(0,6);:_ZN13_types_fd_setC2Ev;2A.;__comp_ctor::(23,54):_ZN13_types_fd_setC1Ev;2A.;;",128,0,233,0
	.stabs	"_types_fd_set:t(23,55)=(23,46)",128,0,235,0
	.stabs	"clockid_t:t(23,56)=(0,16)",128,0,256,0
	.stabs	"timer_t:t(23,57)=(0,16)",128,0,261,0
	.stabs	"useconds_t:t(23,58)=(0,16)",128,0,265,0
	.stabs	"suseconds_t:t(23,59)=(0,18)",128,0,266,0
	.stabn	162,0,0,0
	.stabs	"FILE:t(20,1)=(6,68)",128,0,50,0
	.stabs	"fpos_t:t(20,2)=(7,6)",128,0,55,0
	.stabs	"cookie_read_function_t:t(20,3)=(20,4)=f(23,42)",128,0,552,0
	.stabs	"cookie_write_function_t:t(20,5)=(20,6)=f(23,42)",128,0,554,0
	.stabs	"cookie_seek_function_t:t(20,7)=(20,8)=f(0,3)",128,0,559,0
	.stabs	"cookie_close_function_t:t(20,9)=(20,10)=f(0,3)",128,0,561,0
	.stabs	"cookie_io_functions_t:t(20,11)=s16read:(20,12)=*(20,3),0,32;write:(20,13)=*(20,5),32,32;seek:(20,14)=*(20,7),64,32;close:(20,15)=*(20,9),96,32;operator=::(20,16)=#(20,11),(20,17)=&(20,11),(20,18)=*(20,11),(20,19)=&(20,20)=k(20,11),(0,6);:_ZN21cookie_io_functions_taSERKS_;2A.;__base_ctor::(20,21)=#(20,11),(0,6),(20,18),(20,19),(0,6);:_ZN21cookie_io_functions_tC2ERKS_;2A.;__comp_ctor::(20,21):_ZN21cookie_io_functions_tC1ERKS_;2A.;__base_ctor::(20,22)=#(20,11),(0,6),(20,18),(0,6);:_ZN21cookie_io_functions_tC2Ev;2A.;__comp_ctor::(20,22):_ZN21cookie_io_functions_tC1Ev;2A.;;",128,0,570,0
	.stabn	162,0,0,0
	.stabn	162,0,0,0
	.stabn	162,0,0,0
	.stabs	"/Applications/MoSync/include/newlib/stlport/stl/_algo.h",130,0,0,0
	.stabs	"/Applications/MoSync/include/newlib/stlport/stl/_algobase.h",130,0,0,0
	.stabs	"/Applications/MoSync/include/newlib/stlport/stl/_pair.h",130,0,0,0
	.stabs	"/Applications/MoSync/include/newlib/stlport/stl/type_traits.h",130,0,0,0
	.stabs	"/Applications/MoSync/include/newlib/stlport/stl/type_manips.h",130,0,0,0
	.stabs	"__true_type:Tt(29,1)=s1operator=::(29,2)=#(29,1),(29,3)=&(29,1),(29,4)=*(29,1),(29,5)=&(29,6)=k(29,1),(0,6);:_ZN11stlpmtx_std11__true_typeaSERKS0_;2A.;__base_ctor::(29,7)=#(29,1),(0,6),(29,4),(29,5),(0,6);:_ZN11stlpmtx_std11__true_typeC2ERKS0_;2A.;__comp_ctor::(29,7):_ZN11stlpmtx_std11__true_typeC1ERKS0_;2A.;__base_ctor::(29,8)=#(29,1),(0,6),(29,4),(0,6);:_ZN11stlpmtx_std11__true_typeC2Ev;2A.;__comp_ctor::(29,8):_ZN11stlpmtx_std11__true_typeC1Ev;2A.;;",128,0,23,0
	.stabs	"__false_type:Tt(29,9)=s1operator=::(29,10)=#(29,9),(29,11)=&(29,9),(29,12)=*(29,9),(29,13)=&(29,14)=k(29,9),(0,6);:_ZN11stlpmtx_std12__false_typeaSERKS0_;2A.;__base_ctor::(29,15)=#(29,9),(0,6),(29,12),(29,13),(0,6);:_ZN11stlpmtx_std12__false_typeC2ERKS0_;2A.;__comp_ctor::(29,15):_ZN11stlpmtx_std12__false_typeC1ERKS0_;2A.;__base_ctor::(29,16)=#(29,9),(0,6),(29,12),(0,6);:_ZN11stlpmtx_std12__false_typeC2Ev;2A.;__comp_ctor::(29,16):_ZN11stlpmtx_std12__false_typeC1Ev;2A.;;",128,0,24,0
	.stabs	"__bool2type<1>:Tt(29,17)=s1operator=::(29,18)=#(29,17),(29,19)=&(29,17),(29,20)=*(29,17),(29,21)=&(29,22)=k(29,17),(0,6);:_ZN11stlpmtx_std11__bool2typeILi1EEaSERKS1_;2A.;__base_ctor::(29,23)=#(29,17),(0,6),(29,20),(29,21),(0,6);:_ZN11stlpmtx_std11__bool2typeILi1EEC2ERKS1_;2A.;__comp_ctor::(29,23):_ZN11stlpmtx_std11__bool2typeILi1EEC1ERKS1_;2A.;__base_ctor::(29,24)=#(29,17),(0,6),(29,20),(0,6);:_ZN11stlpmtx_std11__bool2typeILi1EEC2Ev;2A.;__comp_ctor::(29,24):_ZN11stlpmtx_std11__bool2typeILi1EEC1Ev;2A.;;",128,0,39,0
	.stabs	"__bool2type<0>:Tt(29,25)=s1operator=::(29,26)=#(29,25),(29,27)=&(29,25),(29,28)=*(29,25),(29,29)=&(29,30)=k(29,25),(0,6);:_ZN11stlpmtx_std11__bool2typeILi0EEaSERKS1_;2A.;__base_ctor::(29,31)=#(29,25),(0,6),(29,28),(29,29),(0,6);:_ZN11stlpmtx_std11__bool2typeILi0EEC2ERKS1_;2A.;__comp_ctor::(29,31):_ZN11stlpmtx_std11__bool2typeILi0EEC1ERKS1_;2A.;__base_ctor::(29,32)=#(29,25),(0,6),(29,28),(0,6);:_ZN11stlpmtx_std11__bool2typeILi0EEC2Ev;2A.;__comp_ctor::(29,32):_ZN11stlpmtx_std11__bool2typeILi0EEC1Ev;2A.;;",128,0,42,0
	.stabs	"__type2bool<stlpmtx_std::__true_type>:Tt(29,33)=s1operator=::(29,34)=#(29,33),(29,35)=&(29,33),(29,36)=*(29,33),(29,37)=&(29,38)=k(29,33),(0,6);:_ZN11stlpmtx_std11__type2boolINS_11__true_typeEEaSERKS2_;2A.;__base_ctor::(29,39)=#(29,33),(0,6),(29,36),(29,37),(0,6);:_ZN11stlpmtx_std11__type2boolINS_11__true_typeEEC2ERKS2_;2A.;__comp_ctor::(29,39):_ZN11stlpmtx_std11__type2boolINS_11__true_typeEEC1ERKS2_;2A.;__base_ctor::(29,40)=#(29,33),(0,6),(29,36),(0,6);:_ZN11stlpmtx_std11__type2boolINS_11__true_typeEEC2Ev;2A.;__comp_ctor::(29,40):_ZN11stlpmtx_std11__type2boolINS_11__true_typeEEC1Ev;2A.;;",128,0,49,0
	.stabs	"__type2bool<stlpmtx_std::__false_type>:Tt(29,41)=s1operator=::(29,42)=#(29,41),(29,43)=&(29,41),(29,44)=*(29,41),(29,45)=&(29,46)=k(29,41),(0,6);:_ZN11stlpmtx_std11__type2boolINS_12__false_typeEEaSERKS2_;2A.;__base_ctor::(29,47)=#(29,41),(0,6),(29,44),(29,45),(0,6);:_ZN11stlpmtx_std11__type2boolINS_12__false_typeEEC2ERKS2_;2A.;__comp_ctor::(29,47):_ZN11stlpmtx_std11__type2boolINS_12__false_typeEEC1ERKS2_;2A.;__base_ctor::(29,48)=#(29,41),(0,6),(29,44),(0,6);:_ZN11stlpmtx_std11__type2boolINS_12__false_typeEEC2Ev;2A.;__comp_ctor::(29,48):_ZN11stlpmtx_std11__type2boolINS_12__false_typeEEC1Ev;2A.;;",128,0,52,0
	.stabs	"_Not<stlpmtx_std::__false_type>:Tt(29,49)=s1operator=::(29,50)=#(29,49),(29,51)=&(29,49),(29,52)=*(29,49),(29,53)=&(29,54)=k(29,49),(0,6);:_ZN11stlpmtx_std4_NotINS_12__false_typeEEaSERKS2_;2A.;__base_ctor::(29,55)=#(29,49),(0,6),(29,52),(29,53),(0,6);:_ZN11stlpmtx_std4_NotINS_12__false_typeEEC2ERKS2_;2A.;__comp_ctor::(29,55):_ZN11stlpmtx_std4_NotINS_12__false_typeEEC1ERKS2_;2A.;__base_ctor::(29,56)=#(29,49),(0,6),(29,52),(0,6);:_ZN11stlpmtx_std4_NotINS_12__false_typeEEC2Ev;2A.;__comp_ctor::(29,56):_ZN11stlpmtx_std4_NotINS_12__false_typeEEC1Ev;2A.;;",128,0,59,0
	.stabs	"_Land2<stlpmtx_std::__true_type,stlpmtx_std::__true_type>:Tt(29,57)=s1operator=::(29,58)=#(29,57),(29,59)=&(29,57),(29,60)=*(29,57),(29,61)=&(29,62)=k(29,57),(0,6);:_ZN11stlpmtx_std6_Land2INS_11__true_typeES1_EaSERKS2_;2A.;__base_ctor::(29,63)=#(29,57),(0,6),(29,60),(29,61),(0,6);:_ZN11stlpmtx_std6_Land2INS_11__true_typeES1_EC2ERKS2_;2A.;__comp_ctor::(29,63):_ZN11stlpmtx_std6_Land2INS_11__true_typeES1_EC1ERKS2_;2A.;__base_ctor::(29,64)=#(29,57),(0,6),(29,60),(0,6);:_ZN11stlpmtx_std6_Land2INS_11__true_typeES1_EC2Ev;2A.;__comp_ctor::(29,64):_ZN11stlpmtx_std6_Land2INS_11__true_typeES1_EC1Ev;2A.;;",128,0,66,0
	.stabs	"_Land3<stlpmtx_std::__true_type,stlpmtx_std::__true_type,stlpmtx_std::__true_type>:Tt(29,65)=s1operator=::(29,66)=#(29,65),(29,67)=&(29,65),(29,68)=*(29,65),(29,69)=&(29,70)=k(29,65),(0,6);:_ZN11stlpmtx_std6_Land3INS_11__true_typeES1_S1_EaSERKS2_;2A.;__base_ctor::(29,71)=#(29,65),(0,6),(29,68),(29,69),(0,6);:_ZN11stlpmtx_std6_Land3INS_11__true_typeES1_S1_EC2ERKS2_;2A.;__comp_ctor::(29,71):_ZN11stlpmtx_std6_Land3INS_11__true_typeES1_S1_EC1ERKS2_;2A.;__base_ctor::(29,72)=#(29,65),(0,6),(29,68),(0,6);:_ZN11stlpmtx_std6_Land3INS_11__true_typeES1_S1_EC2Ev;2A.;__comp_ctor::(29,72):_ZN11stlpmtx_std6_Land3INS_11__true_typeES1_S1_EC1Ev;2A.;;",128,0,73,0
	.stabs	"_Lor2<stlpmtx_std::__false_type,stlpmtx_std::__false_type>:Tt(29,73)=s1operator=::(29,74)=#(29,73),(29,75)=&(29,73),(29,76)=*(29,73),(29,77)=&(29,78)=k(29,73),(0,6);:_ZN11stlpmtx_std5_Lor2INS_12__false_typeES1_EaSERKS2_;2A.;__base_ctor::(29,79)=#(29,73),(0,6),(29,76),(29,77),(0,6);:_ZN11stlpmtx_std5_Lor2INS_12__false_typeES1_EC2ERKS2_;2A.;__comp_ctor::(29,79):_ZN11stlpmtx_std5_Lor2INS_12__false_typeES1_EC1ERKS2_;2A.;__base_ctor::(29,80)=#(29,73),(0,6),(29,76),(0,6);:_ZN11stlpmtx_std5_Lor2INS_12__false_typeES1_EC2Ev;2A.;__comp_ctor::(29,80):_ZN11stlpmtx_std5_Lor2INS_12__false_typeES1_EC1Ev;2A.;;",128,0,80,0
	.stabs	"_Lor3<stlpmtx_std::__false_type,stlpmtx_std::__false_type,stlpmtx_std::__false_type>:Tt(29,81)=s1operator=::(29,82)=#(29,81),(29,83)=&(29,81),(29,84)=*(29,81),(29,85)=&(29,86)=k(29,81),(0,6);:_ZN11stlpmtx_std5_Lor3INS_12__false_typeES1_S1_EaSERKS2_;2A.;__base_ctor::(29,87)=#(29,81),(0,6),(29,84),(29,85),(0,6);:_ZN11stlpmtx_std5_Lor3INS_12__false_typeES1_S1_EC2ERKS2_;2A.;__comp_ctor::(29,87):_ZN11stlpmtx_std5_Lor3INS_12__false_typeES1_S1_EC1ERKS2_;2A.;__base_ctor::(29,88)=#(29,81),(0,6),(29,84),(0,6);:_ZN11stlpmtx_std5_Lor3INS_12__false_typeES1_S1_EC2Ev;2A.;__comp_ctor::(29,88):_ZN11stlpmtx_std5_Lor3INS_12__false_typeES1_S1_EC1Ev;2A.;;",128,0,87,0
	.stabs	"_NoVolatilePointerShim:Tt(29,89)=s1__base_ctor::(29,90)=#(29,89),(0,6),(29,91)=*(29,89),(29,92)=*(29,93)=k(0,6),(0,6);:_ZN11stlpmtx_std22_NoVolatilePointerShimC2EPKv;2A.;__comp_ctor::(29,90):_ZN11stlpmtx_std22_NoVolatilePointerShimC1EPKv;2A.;operator=::(29,94)=#(29,89),(29,95)=&(29,89),(29,91),(29,96)=&(29,97)=k(29,89),(0,6);:_ZN11stlpmtx_std22_NoVolatilePointerShimaSERKS0_;2A.;__base_ctor::(29,98)=#(29,89),(0,6),(29,91),(29,96),(0,6);:_ZN11stlpmtx_std22_NoVolatilePointerShimC2ERKS0_;2A.;__comp_ctor::(29,98):_ZN11stlpmtx_std22_NoVolatilePointerShimC1ERKS0_;2A.;;",128,0,164,0
	.stabn	162,0,0,0
	.stabs	"_IsIntegral<bool>:Tt(28,1)=s1operator=::(28,2)=#(28,1),(28,3)=&(28,1),(28,4)=*(28,1),(28,5)=&(28,6)=k(28,1),(0,6);:_ZN11stlpmtx_std11_IsIntegralIbEaSERKS1_;2A.;__base_ctor::(28,7)=#(28,1),(0,6),(28,4),(28,5),(0,6);:_ZN11stlpmtx_std11_IsIntegralIbEC2ERKS1_;2A.;__comp_ctor::(28,7):_ZN11stlpmtx_std11_IsIntegralIbEC1ERKS1_;2A.;__base_ctor::(28,8)=#(28,1),(0,6),(28,4),(0,6);:_ZN11stlpmtx_std11_IsIntegralIbEC2Ev;2A.;__comp_ctor::(28,8):_ZN11stlpmtx_std11_IsIntegralIbEC1Ev;2A.;;",128,0,84,0
	.stabs	"_IsIntegral<char>:Tt(28,9)=s1operator=::(28,10)=#(28,9),(28,11)=&(28,9),(28,12)=*(28,9),(28,13)=&(28,14)=k(28,9),(0,6);:_ZN11stlpmtx_std11_IsIntegralIcEaSERKS1_;2A.;__base_ctor::(28,15)=#(28,9),(0,6),(28,12),(28,13),(0,6);:_ZN11stlpmtx_std11_IsIntegralIcEC2ERKS1_;2A.;__comp_ctor::(28,15):_ZN11stlpmtx_std11_IsIntegralIcEC1ERKS1_;2A.;__base_ctor::(28,16)=#(28,9),(0,6),(28,12),(0,6);:_ZN11stlpmtx_std11_IsIntegralIcEC2Ev;2A.;__comp_ctor::(28,16):_ZN11stlpmtx_std11_IsIntegralIcEC1Ev;2A.;;",128,0,88,0
	.stabs	"_IsIntegral<signed char>:Tt(28,17)=s1operator=::(28,18)=#(28,17),(28,19)=&(28,17),(28,20)=*(28,17),(28,21)=&(28,22)=k(28,17),(0,6);:_ZN11stlpmtx_std11_IsIntegralIaEaSERKS1_;2A.;__base_ctor::(28,23)=#(28,17),(0,6),(28,20),(28,21),(0,6);:_ZN11stlpmtx_std11_IsIntegralIaEC2ERKS1_;2A.;__comp_ctor::(28,23):_ZN11stlpmtx_std11_IsIntegralIaEC1ERKS1_;2A.;__base_ctor::(28,24)=#(28,17),(0,6),(28,20),(0,6);:_ZN11stlpmtx_std11_IsIntegralIaEC2Ev;2A.;__comp_ctor::(28,24):_ZN11stlpmtx_std11_IsIntegralIaEC1Ev;2A.;;",128,0,92,0
	.stabs	"_IsIntegral<unsigned char>:Tt(28,25)=s1operator=::(28,26)=#(28,25),(28,27)=&(28,25),(28,28)=*(28,25),(28,29)=&(28,30)=k(28,25),(0,6);:_ZN11stlpmtx_std11_IsIntegralIhEaSERKS1_;2A.;__base_ctor::(28,31)=#(28,25),(0,6),(28,28),(28,29),(0,6);:_ZN11stlpmtx_std11_IsIntegralIhEC2ERKS1_;2A.;__comp_ctor::(28,31):_ZN11stlpmtx_std11_IsIntegralIhEC1ERKS1_;2A.;__base_ctor::(28,32)=#(28,25),(0,6),(28,28),(0,6);:_ZN11stlpmtx_std11_IsIntegralIhEC2Ev;2A.;__comp_ctor::(28,32):_ZN11stlpmtx_std11_IsIntegralIhEC1Ev;2A.;;",128,0,96,0
	.stabs	"_IsIntegral<short int>:Tt(28,33)=s1operator=::(28,34)=#(28,33),(28,35)=&(28,33),(28,36)=*(28,33),(28,37)=&(28,38)=k(28,33),(0,6);:_ZN11stlpmtx_std11_IsIntegralIsEaSERKS1_;2A.;__base_ctor::(28,39)=#(28,33),(0,6),(28,36),(28,37),(0,6);:_ZN11stlpmtx_std11_IsIntegralIsEC2ERKS1_;2A.;__comp_ctor::(28,39):_ZN11stlpmtx_std11_IsIntegralIsEC1ERKS1_;2A.;__base_ctor::(28,40)=#(28,33),(0,6),(28,36),(0,6);:_ZN11stlpmtx_std11_IsIntegralIsEC2Ev;2A.;__comp_ctor::(28,40):_ZN11stlpmtx_std11_IsIntegralIsEC1Ev;2A.;;",128,0,104,0
	.stabs	"_IsIntegral<short unsigned int>:Tt(28,41)=s1operator=::(28,42)=#(28,41),(28,43)=&(28,41),(28,44)=*(28,41),(28,45)=&(28,46)=k(28,41),(0,6);:_ZN11stlpmtx_std11_IsIntegralItEaSERKS1_;2A.;__base_ctor::(28,47)=#(28,41),(0,6),(28,44),(28,45),(0,6);:_ZN11stlpmtx_std11_IsIntegralItEC2ERKS1_;2A.;__comp_ctor::(28,47):_ZN11stlpmtx_std11_IsIntegralItEC1ERKS1_;2A.;__base_ctor::(28,48)=#(28,41),(0,6),(28,44),(0,6);:_ZN11stlpmtx_std11_IsIntegralItEC2Ev;2A.;__comp_ctor::(28,48):_ZN11stlpmtx_std11_IsIntegralItEC1Ev;2A.;;",128,0,107,0
	.stabs	"_IsIntegral<int>:Tt(28,49)=s1operator=::(28,50)=#(28,49),(28,51)=&(28,49),(28,52)=*(28,49),(28,53)=&(28,54)=k(28,49),(0,6);:_ZN11stlpmtx_std11_IsIntegralIiEaSERKS1_;2A.;__base_ctor::(28,55)=#(28,49),(0,6),(28,52),(28,53),(0,6);:_ZN11stlpmtx_std11_IsIntegralIiEC2ERKS1_;2A.;__comp_ctor::(28,55):_ZN11stlpmtx_std11_IsIntegralIiEC1ERKS1_;2A.;__base_ctor::(28,56)=#(28,49),(0,6),(28,52),(0,6);:_ZN11stlpmtx_std11_IsIntegralIiEC2Ev;2A.;__comp_ctor::(28,56):_ZN11stlpmtx_std11_IsIntegralIiEC1Ev;2A.;;",128,0,110,0
	.stabs	"_IsIntegral<unsigned int>:Tt(28,57)=s1operator=::(28,58)=#(28,57),(28,59)=&(28,57),(28,60)=*(28,57),(28,61)=&(28,62)=k(28,57),(0,6);:_ZN11stlpmtx_std11_IsIntegralIjEaSERKS1_;2A.;__base_ctor::(28,63)=#(28,57),(0,6),(28,60),(28,61),(0,6);:_ZN11stlpmtx_std11_IsIntegralIjEC2ERKS1_;2A.;__comp_ctor::(28,63):_ZN11stlpmtx_std11_IsIntegralIjEC1ERKS1_;2A.;__base_ctor::(28,64)=#(28,57),(0,6),(28,60),(0,6);:_ZN11stlpmtx_std11_IsIntegralIjEC2Ev;2A.;__comp_ctor::(28,64):_ZN11stlpmtx_std11_IsIntegralIjEC1Ev;2A.;;",128,0,113,0
	.stabs	"_IsIntegral<long int>:Tt(28,65)=s1operator=::(28,66)=#(28,65),(28,67)=&(28,65),(28,68)=*(28,65),(28,69)=&(28,70)=k(28,65),(0,6);:_ZN11stlpmtx_std11_IsIntegralIlEaSERKS1_;2A.;__base_ctor::(28,71)=#(28,65),(0,6),(28,68),(28,69),(0,6);:_ZN11stlpmtx_std11_IsIntegralIlEC2ERKS1_;2A.;__comp_ctor::(28,71):_ZN11stlpmtx_std11_IsIntegralIlEC1ERKS1_;2A.;__base_ctor::(28,72)=#(28,65),(0,6),(28,68),(0,6);:_ZN11stlpmtx_std11_IsIntegralIlEC2Ev;2A.;__comp_ctor::(28,72):_ZN11stlpmtx_std11_IsIntegralIlEC1Ev;2A.;;",128,0,116,0
	.stabs	"_IsIntegral<long unsigned int>:Tt(28,73)=s1operator=::(28,74)=#(28,73),(28,75)=&(28,73),(28,76)=*(28,73),(28,77)=&(28,78)=k(28,73),(0,6);:_ZN11stlpmtx_std11_IsIntegralImEaSERKS1_;2A.;__base_ctor::(28,79)=#(28,73),(0,6),(28,76),(28,77),(0,6);:_ZN11stlpmtx_std11_IsIntegralImEC2ERKS1_;2A.;__comp_ctor::(28,79):_ZN11stlpmtx_std11_IsIntegralImEC1ERKS1_;2A.;__base_ctor::(28,80)=#(28,73),(0,6),(28,76),(0,6);:_ZN11stlpmtx_std11_IsIntegralImEC2Ev;2A.;__comp_ctor::(28,80):_ZN11stlpmtx_std11_IsIntegralImEC1Ev;2A.;;",128,0,119,0
	.stabs	"_IsIntegral<long long int>:Tt(28,81)=s1operator=::(28,82)=#(28,81),(28,83)=&(28,81),(28,84)=*(28,81),(28,85)=&(28,86)=k(28,81),(0,6);:_ZN11stlpmtx_std11_IsIntegralIxEaSERKS1_;2A.;__base_ctor::(28,87)=#(28,81),(0,6),(28,84),(28,85),(0,6);:_ZN11stlpmtx_std11_IsIntegralIxEC2ERKS1_;2A.;__comp_ctor::(28,87):_ZN11stlpmtx_std11_IsIntegralIxEC1ERKS1_;2A.;__base_ctor::(28,88)=#(28,81),(0,6),(28,84),(0,6);:_ZN11stlpmtx_std11_IsIntegralIxEC2Ev;2A.;__comp_ctor::(28,88):_ZN11stlpmtx_std11_IsIntegralIxEC1Ev;2A.;;",128,0,123,0
	.stabs	"_IsIntegral<long long unsigned int>:Tt(28,89)=s1operator=::(28,90)=#(28,89),(28,91)=&(28,89),(28,92)=*(28,89),(28,93)=&(28,94)=k(28,89),(0,6);:_ZN11stlpmtx_std11_IsIntegralIyEaSERKS1_;2A.;__base_ctor::(28,95)=#(28,89),(0,6),(28,92),(28,93),(0,6);:_ZN11stlpmtx_std11_IsIntegralIyEC2ERKS1_;2A.;__comp_ctor::(28,95):_ZN11stlpmtx_std11_IsIntegralIyEC1ERKS1_;2A.;__base_ctor::(28,96)=#(28,89),(0,6),(28,92),(0,6);:_ZN11stlpmtx_std11_IsIntegralIyEC2Ev;2A.;__comp_ctor::(28,96):_ZN11stlpmtx_std11_IsIntegralIyEC1Ev;2A.;;",128,0,126,0
	.stabs	"_IsRational<float>:Tt(28,97)=s1operator=::(28,98)=#(28,97),(28,99)=&(28,97),(28,100)=*(28,97),(28,101)=&(28,102)=k(28,97),(0,6);:_ZN11stlpmtx_std11_IsRationalIfEaSERKS1_;2A.;__base_ctor::(28,103)=#(28,97),(0,6),(28,100),(28,101),(0,6);:_ZN11stlpmtx_std11_IsRationalIfEC2ERKS1_;2A.;__comp_ctor::(28,103):_ZN11stlpmtx_std11_IsRationalIfEC1ERKS1_;2A.;__base_ctor::(28,104)=#(28,97),(0,6),(28,100),(0,6);:_ZN11stlpmtx_std11_IsRationalIfEC2Ev;2A.;__comp_ctor::(28,104):_ZN11stlpmtx_std11_IsRationalIfEC1Ev;2A.;;",128,0,133,0
	.stabs	"_IsRational<double>:Tt(28,105)=s1operator=::(28,106)=#(28,105),(28,107)=&(28,105),(28,108)=*(28,105),(28,109)=&(28,110)=k(28,105),(0,6);:_ZN11stlpmtx_std11_IsRationalIdEaSERKS1_;2A.;__base_ctor::(28,111)=#(28,105),(0,6),(28,108),(28,109),(0,6);:_ZN11stlpmtx_std11_IsRationalIdEC2ERKS1_;2A.;__comp_ctor::(28,111):_ZN11stlpmtx_std11_IsRationalIdEC1ERKS1_;2A.;__base_ctor::(28,112)=#(28,105),(0,6),(28,108),(0,6);:_ZN11stlpmtx_std11_IsRationalIdEC2Ev;2A.;__comp_ctor::(28,112):_ZN11stlpmtx_std11_IsRationalIdEC1Ev;2A.;;",128,0,136,0
	.stabs	"__type_traits_aux<stlpmtx_std::__false_type>:Tt(28,113)=s1operator=::(28,114)=#(28,113),(28,115)=&(28,113),(28,116)=*(28,113),(28,117)=&(28,118)=k(28,113),(0,6);:_ZN11stlpmtx_std17__type_traits_auxINS_12__false_typeEEaSERKS2_;2A.;__base_ctor::(28,119)=#(28,113),(0,6),(28,116),(28,117),(0,6);:_ZN11stlpmtx_std17__type_traits_auxINS_12__false_typeEEC2ERKS2_;2A.;__comp_ctor::(28,119):_ZN11stlpmtx_std17__type_traits_auxINS_12__false_typeEEC1ERKS2_;2A.;__base_ctor::(28,120)=#(28,113),(0,6),(28,116),(0,6);:_ZN11stlpmtx_std17__type_traits_auxINS_12__false_typeEEC2Ev;2A.;__comp_ctor::(28,120):_ZN11stlpmtx_std17__type_traits_auxINS_12__false_typeEEC1Ev;2A.;;",128,0,154,0
	.stabs	"__type_traits_aux<stlpmtx_std::__true_type>:Tt(28,121)=s1operator=::(28,122)=#(28,121),(28,123)=&(28,121),(28,124)=*(28,121),(28,125)=&(28,126)=k(28,121),(0,6);:_ZN11stlpmtx_std17__type_traits_auxINS_11__true_typeEEaSERKS2_;2A.;__base_ctor::(28,127)=#(28,121),(0,6),(28,124),(28,125),(0,6);:_ZN11stlpmtx_std17__type_traits_auxINS_11__true_typeEEC2ERKS2_;2A.;__comp_ctor::(28,127):_ZN11stlpmtx_std17__type_traits_auxINS_11__true_typeEEC1ERKS2_;2A.;__base_ctor::(28,128)=#(28,121),(0,6),(28,124),(0,6);:_ZN11stlpmtx_std17__type_traits_auxINS_11__true_typeEEC2Ev;2A.;__comp_ctor::(28,128):_ZN11stlpmtx_std17__type_traits_auxINS_11__true_typeEEC1Ev;2A.;;",128,0,163,0
	.stabs	"__type_traits<bool>:Tt(28,129)=s1!1,020,(28,121);operator=::(28,130)=#(28,129),(28,131)=&(28,129),(28,132)=*(28,129),(28,133)=&(28,134)=k(28,129),(0,6);:_ZN11stlpmtx_std13__type_traitsIbEaSERKS1_;2A.;__base_ctor::(28,135)=#(28,129),(0,6),(28,132),(28,133),(0,6);:_ZN11stlpmtx_std13__type_traitsIbEC2ERKS1_;2A.;__comp_ctor::(28,135):_ZN11stlpmtx_std13__type_traitsIbEC1ERKS1_;2A.;__base_ctor::(28,136)=#(28,129),(0,6),(28,132),(0,6);:_ZN11stlpmtx_std13__type_traitsIbEC2Ev;2A.;__comp_ctor::(28,136):_ZN11stlpmtx_std13__type_traitsIbEC1Ev;2A.;;",128,0,284,0
	.stabs	"__type_traits<const bool>:Tt(28,137)=s1!1,020,(28,121);operator=::(28,138)=#(28,137),(28,139)=&(28,137),(28,140)=*(28,137),(28,141)=&(28,142)=k(28,137),(0,6);:_ZN11stlpmtx_std13__type_traitsIKbEaSERKS2_;2A.;__base_ctor::(28,143)=#(28,137),(0,6),(28,140),(28,141),(0,6);:_ZN11stlpmtx_std13__type_traitsIKbEC2ERKS2_;2A.;__comp_ctor::(28,143):_ZN11stlpmtx_std13__type_traitsIKbEC1ERKS2_;2A.;__base_ctor::(28,144)=#(28,137),(0,6),(28,140),(0,6);:_ZN11stlpmtx_std13__type_traitsIKbEC2Ev;2A.;__comp_ctor::(28,144):_ZN11stlpmtx_std13__type_traitsIKbEC1Ev;2A.;;",128,0,284,0
	.stabs	"__type_traits<volatile bool>:Tt(28,145)=s1!1,020,(28,121);operator=::(28,146)=#(28,145),(28,147)=&(28,145),(28,148)=*(28,145),(28,149)=&(28,150)=k(28,145),(0,6);:_ZN11stlpmtx_std13__type_traitsIVbEaSERKS2_;2A.;__base_ctor::(28,151)=#(28,145),(0,6),(28,148),(28,149),(0,6);:_ZN11stlpmtx_std13__type_traitsIVbEC2ERKS2_;2A.;__comp_ctor::(28,151):_ZN11stlpmtx_std13__type_traitsIVbEC1ERKS2_;2A.;__base_ctor::(28,152)=#(28,145),(0,6),(28,148),(0,6);:_ZN11stlpmtx_std13__type_traitsIVbEC2Ev;2A.;__comp_ctor::(28,152):_ZN11stlpmtx_std13__type_traitsIVbEC1Ev;2A.;;",128,0,284,0
	.stabs	"__type_traits<const volatile bool>:Tt(28,153)=s1!1,020,(28,121);operator=::(28,154)=#(28,153),(28,155)=&(28,153),(28,156)=*(28,153),(28,157)=&(28,158)=k(28,153),(0,6);:_ZN11stlpmtx_std13__type_traitsIVKbEaSERKS2_;2A.;__base_ctor::(28,159)=#(28,153),(0,6),(28,156),(28,157),(0,6);:_ZN11stlpmtx_std13__type_traitsIVKbEC2ERKS2_;2A.;__comp_ctor::(28,159):_ZN11stlpmtx_std13__type_traitsIVKbEC1ERKS2_;2A.;__base_ctor::(28,160)=#(28,153),(0,6),(28,156),(0,6);:_ZN11stlpmtx_std13__type_traitsIVKbEC2Ev;2A.;__comp_ctor::(28,160):_ZN11stlpmtx_std13__type_traitsIVKbEC1Ev;2A.;;",128,0,284,0
	.stabs	"__type_traits<char>:Tt(28,161)=s1!1,020,(28,121);operator=::(28,162)=#(28,161),(28,163)=&(28,161),(28,164)=*(28,161),(28,165)=&(28,166)=k(28,161),(0,6);:_ZN11stlpmtx_std13__type_traitsIcEaSERKS1_;2A.;__base_ctor::(28,167)=#(28,161),(0,6),(28,164),(28,165),(0,6);:_ZN11stlpmtx_std13__type_traitsIcEC2ERKS1_;2A.;__comp_ctor::(28,167):_ZN11stlpmtx_std13__type_traitsIcEC1ERKS1_;2A.;__base_ctor::(28,168)=#(28,161),(0,6),(28,164),(0,6);:_ZN11stlpmtx_std13__type_traitsIcEC2Ev;2A.;__comp_ctor::(28,168):_ZN11stlpmtx_std13__type_traitsIcEC1Ev;2A.;;",128,0,286,0
	.stabs	"__type_traits<const char>:Tt(28,169)=s1!1,020,(28,121);operator=::(28,170)=#(28,169),(28,171)=&(28,169),(28,172)=*(28,169),(28,173)=&(28,174)=k(28,169),(0,6);:_ZN11stlpmtx_std13__type_traitsIKcEaSERKS2_;2A.;__base_ctor::(28,175)=#(28,169),(0,6),(28,172),(28,173),(0,6);:_ZN11stlpmtx_std13__type_traitsIKcEC2ERKS2_;2A.;__comp_ctor::(28,175):_ZN11stlpmtx_std13__type_traitsIKcEC1ERKS2_;2A.;__base_ctor::(28,176)=#(28,169),(0,6),(28,172),(0,6);:_ZN11stlpmtx_std13__type_traitsIKcEC2Ev;2A.;__comp_ctor::(28,176):_ZN11stlpmtx_std13__type_traitsIKcEC1Ev;2A.;;",128,0,286,0
	.stabs	"__type_traits<volatile char>:Tt(28,177)=s1!1,020,(28,121);operator=::(28,178)=#(28,177),(28,179)=&(28,177),(28,180)=*(28,177),(28,181)=&(28,182)=k(28,177),(0,6);:_ZN11stlpmtx_std13__type_traitsIVcEaSERKS2_;2A.;__base_ctor::(28,183)=#(28,177),(0,6),(28,180),(28,181),(0,6);:_ZN11stlpmtx_std13__type_traitsIVcEC2ERKS2_;2A.;__comp_ctor::(28,183):_ZN11stlpmtx_std13__type_traitsIVcEC1ERKS2_;2A.;__base_ctor::(28,184)=#(28,177),(0,6),(28,180),(0,6);:_ZN11stlpmtx_std13__type_traitsIVcEC2Ev;2A.;__comp_ctor::(28,184):_ZN11stlpmtx_std13__type_traitsIVcEC1Ev;2A.;;",128,0,286,0
	.stabs	"__type_traits<const volatile char>:Tt(28,185)=s1!1,020,(28,121);operator=::(28,186)=#(28,185),(28,187)=&(28,185),(28,188)=*(28,185),(28,189)=&(28,190)=k(28,185),(0,6);:_ZN11stlpmtx_std13__type_traitsIVKcEaSERKS2_;2A.;__base_ctor::(28,191)=#(28,185),(0,6),(28,188),(28,189),(0,6);:_ZN11stlpmtx_std13__type_traitsIVKcEC2ERKS2_;2A.;__comp_ctor::(28,191):_ZN11stlpmtx_std13__type_traitsIVKcEC1ERKS2_;2A.;__base_ctor::(28,192)=#(28,185),(0,6),(28,188),(0,6);:_ZN11stlpmtx_std13__type_traitsIVKcEC2Ev;2A.;__comp_ctor::(28,192):_ZN11stlpmtx_std13__type_traitsIVKcEC1Ev;2A.;;",128,0,286,0
	.stabs	"__type_traits<signed char>:Tt(28,193)=s1!1,020,(28,121);operator=::(28,194)=#(28,193),(28,195)=&(28,193),(28,196)=*(28,193),(28,197)=&(28,198)=k(28,193),(0,6);:_ZN11stlpmtx_std13__type_traitsIaEaSERKS1_;2A.;__base_ctor::(28,199)=#(28,193),(0,6),(28,196),(28,197),(0,6);:_ZN11stlpmtx_std13__type_traitsIaEC2ERKS1_;2A.;__comp_ctor::(28,199):_ZN11stlpmtx_std13__type_traitsIaEC1ERKS1_;2A.;__base_ctor::(28,200)=#(28,193),(0,6),(28,196),(0,6);:_ZN11stlpmtx_std13__type_traitsIaEC2Ev;2A.;__comp_ctor::(28,200):_ZN11stlpmtx_std13__type_traitsIaEC1Ev;2A.;;",128,0,288,0
	.stabs	"__type_traits<const signed char>:Tt(28,201)=s1!1,020,(28,121);operator=::(28,202)=#(28,201),(28,203)=&(28,201),(28,204)=*(28,201),(28,205)=&(28,206)=k(28,201),(0,6);:_ZN11stlpmtx_std13__type_traitsIKaEaSERKS2_;2A.;__base_ctor::(28,207)=#(28,201),(0,6),(28,204),(28,205),(0,6);:_ZN11stlpmtx_std13__type_traitsIKaEC2ERKS2_;2A.;__comp_ctor::(28,207):_ZN11stlpmtx_std13__type_traitsIKaEC1ERKS2_;2A.;__base_ctor::(28,208)=#(28,201),(0,6),(28,204),(0,6);:_ZN11stlpmtx_std13__type_traitsIKaEC2Ev;2A.;__comp_ctor::(28,208):_ZN11stlpmtx_std13__type_traitsIKaEC1Ev;2A.;;",128,0,288,0
	.stabs	"__type_traits<volatile signed char>:Tt(28,209)=s1!1,020,(28,121);operator=::(28,210)=#(28,209),(28,211)=&(28,209),(28,212)=*(28,209),(28,213)=&(28,214)=k(28,209),(0,6);:_ZN11stlpmtx_std13__type_traitsIVaEaSERKS2_;2A.;__base_ctor::(28,215)=#(28,209),(0,6),(28,212),(28,213),(0,6);:_ZN11stlpmtx_std13__type_traitsIVaEC2ERKS2_;2A.;__comp_ctor::(28,215):_ZN11stlpmtx_std13__type_traitsIVaEC1ERKS2_;2A.;__base_ctor::(28,216)=#(28,209),(0,6),(28,212),(0,6);:_ZN11stlpmtx_std13__type_traitsIVaEC2Ev;2A.;__comp_ctor::(28,216):_ZN11stlpmtx_std13__type_traitsIVaEC1Ev;2A.;;",128,0,288,0
	.stabs	"__type_traits<const volatile signed char>:Tt(28,217)=s1!1,020,(28,121);operator=::(28,218)=#(28,217),(28,219)=&(28,217),(28,220)=*(28,217),(28,221)=&(28,222)=k(28,217),(0,6);:_ZN11stlpmtx_std13__type_traitsIVKaEaSERKS2_;2A.;__base_ctor::(28,223)=#(28,217),(0,6),(28,220),(28,221),(0,6);:_ZN11stlpmtx_std13__type_traitsIVKaEC2ERKS2_;2A.;__comp_ctor::(28,223):_ZN11stlpmtx_std13__type_traitsIVKaEC1ERKS2_;2A.;__base_ctor::(28,224)=#(28,217),(0,6),(28,220),(0,6);:_ZN11stlpmtx_std13__type_traitsIVKaEC2Ev;2A.;__comp_ctor::(28,224):_ZN11stlpmtx_std13__type_traitsIVKaEC1Ev;2A.;;",128,0,288,0
	.stabs	"__type_traits<unsigned char>:Tt(28,225)=s1!1,020,(28,121);operator=::(28,226)=#(28,225),(28,227)=&(28,225),(28,228)=*(28,225),(28,229)=&(28,230)=k(28,225),(0,6);:_ZN11stlpmtx_std13__type_traitsIhEaSERKS1_;2A.;__base_ctor::(28,231)=#(28,225),(0,6),(28,228),(28,229),(0,6);:_ZN11stlpmtx_std13__type_traitsIhEC2ERKS1_;2A.;__comp_ctor::(28,231):_ZN11stlpmtx_std13__type_traitsIhEC1ERKS1_;2A.;__base_ctor::(28,232)=#(28,225),(0,6),(28,228),(0,6);:_ZN11stlpmtx_std13__type_traitsIhEC2Ev;2A.;__comp_ctor::(28,232):_ZN11stlpmtx_std13__type_traitsIhEC1Ev;2A.;;",128,0,290,0
	.stabs	"__type_traits<const unsigned char>:Tt(28,233)=s1!1,020,(28,121);operator=::(28,234)=#(28,233),(28,235)=&(28,233),(28,236)=*(28,233),(28,237)=&(28,238)=k(28,233),(0,6);:_ZN11stlpmtx_std13__type_traitsIKhEaSERKS2_;2A.;__base_ctor::(28,239)=#(28,233),(0,6),(28,236),(28,237),(0,6);:_ZN11stlpmtx_std13__type_traitsIKhEC2ERKS2_;2A.;__comp_ctor::(28,239):_ZN11stlpmtx_std13__type_traitsIKhEC1ERKS2_;2A.;__base_ctor::(28,240)=#(28,233),(0,6),(28,236),(0,6);:_ZN11stlpmtx_std13__type_traitsIKhEC2Ev;2A.;__comp_ctor::(28,240):_ZN11stlpmtx_std13__type_traitsIKhEC1Ev;2A.;;",128,0,290,0
	.stabs	"__type_traits<volatile unsigned char>:Tt(28,241)=s1!1,020,(28,121);operator=::(28,242)=#(28,241),(28,243)=&(28,241),(28,244)=*(28,241),(28,245)=&(28,246)=k(28,241),(0,6);:_ZN11stlpmtx_std13__type_traitsIVhEaSERKS2_;2A.;__base_ctor::(28,247)=#(28,241),(0,6),(28,244),(28,245),(0,6);:_ZN11stlpmtx_std13__type_traitsIVhEC2ERKS2_;2A.;__comp_ctor::(28,247):_ZN11stlpmtx_std13__type_traitsIVhEC1ERKS2_;2A.;__base_ctor::(28,248)=#(28,241),(0,6),(28,244),(0,6);:_ZN11stlpmtx_std13__type_traitsIVhEC2Ev;2A.;__comp_ctor::(28,248):_ZN11stlpmtx_std13__type_traitsIVhEC1Ev;2A.;;",128,0,290,0
	.stabs	"__type_traits<const volatile unsigned char>:Tt(28,249)=s1!1,020,(28,121);operator=::(28,250)=#(28,249),(28,251)=&(28,249),(28,252)=*(28,249),(28,253)=&(28,254)=k(28,249),(0,6);:_ZN11stlpmtx_std13__type_traitsIVKhEaSERKS2_;2A.;__base_ctor::(28,255)=#(28,249),(0,6),(28,252),(28,253),(0,6);:_ZN11stlpmtx_std13__type_traitsIVKhEC2ERKS2_;2A.;__comp_ctor::(28,255):_ZN11stlpmtx_std13__type_traitsIVKhEC1ERKS2_;2A.;__base_ctor::(28,256)=#(28,249),(0,6),(28,252),(0,6);:_ZN11stlpmtx_std13__type_traitsIVKhEC2Ev;2A.;__comp_ctor::(28,256):_ZN11stlpmtx_std13__type_traitsIVKhEC1Ev;2A.;;",128,0,290,0
	.stabs	"__type_traits<short int>:Tt(28,257)=s1!1,020,(28,121);operator=::(28,258)=#(28,257),(28,259)=&(28,257),(28,260)=*(28,257),(28,261)=&(28,262)=k(28,257),(0,6);:_ZN11stlpmtx_std13__type_traitsIsEaSERKS1_;2A.;__base_ctor::(28,263)=#(28,257),(0,6),(28,260),(28,261),(0,6);:_ZN11stlpmtx_std13__type_traitsIsEC2ERKS1_;2A.;__comp_ctor::(28,263):_ZN11stlpmtx_std13__type_traitsIsEC1ERKS1_;2A.;__base_ctor::(28,264)=#(28,257),(0,6),(28,260),(0,6);:_ZN11stlpmtx_std13__type_traitsIsEC2Ev;2A.;__comp_ctor::(28,264):_ZN11stlpmtx_std13__type_traitsIsEC1Ev;2A.;;",128,0,295,0
	.stabs	"__type_traits<const short int>:Tt(28,265)=s1!1,020,(28,121);operator=::(28,266)=#(28,265),(28,267)=&(28,265),(28,268)=*(28,265),(28,269)=&(28,270)=k(28,265),(0,6);:_ZN11stlpmtx_std13__type_traitsIKsEaSERKS2_;2A.;__base_ctor::(28,271)=#(28,265),(0,6),(28,268),(28,269),(0,6);:_ZN11stlpmtx_std13__type_traitsIKsEC2ERKS2_;2A.;__comp_ctor::(28,271):_ZN11stlpmtx_std13__type_traitsIKsEC1ERKS2_;2A.;__base_ctor::(28,272)=#(28,265),(0,6),(28,268),(0,6);:_ZN11stlpmtx_std13__type_traitsIKsEC2Ev;2A.;__comp_ctor::(28,272):_ZN11stlpmtx_std13__type_traitsIKsEC1Ev;2A.;;",128,0,295,0
	.stabs	"__type_traits<volatile short int>:Tt(28,273)=s1!1,020,(28,121);operator=::(28,274)=#(28,273),(28,275)=&(28,273),(28,276)=*(28,273),(28,277)=&(28,278)=k(28,273),(0,6);:_ZN11stlpmtx_std13__type_traitsIVsEaSERKS2_;2A.;__base_ctor::(28,279)=#(28,273),(0,6),(28,276),(28,277),(0,6);:_ZN11stlpmtx_std13__type_traitsIVsEC2ERKS2_;2A.;__comp_ctor::(28,279):_ZN11stlpmtx_std13__type_traitsIVsEC1ERKS2_;2A.;__base_ctor::(28,280)=#(28,273),(0,6),(28,276),(0,6);:_ZN11stlpmtx_std13__type_traitsIVsEC2Ev;2A.;__comp_ctor::(28,280):_ZN11stlpmtx_std13__type_traitsIVsEC1Ev;2A.;;",128,0,295,0
	.stabs	"__type_traits<const volatile short int>:Tt(28,281)=s1!1,020,(28,121);operator=::(28,282)=#(28,281),(28,283)=&(28,281),(28,284)=*(28,281),(28,285)=&(28,286)=k(28,281),(0,6);:_ZN11stlpmtx_std13__type_traitsIVKsEaSERKS2_;2A.;__base_ctor::(28,287)=#(28,281),(0,6),(28,284),(28,285),(0,6);:_ZN11stlpmtx_std13__type_traitsIVKsEC2ERKS2_;2A.;__comp_ctor::(28,287):_ZN11stlpmtx_std13__type_traitsIVKsEC1ERKS2_;2A.;__base_ctor::(28,288)=#(28,281),(0,6),(28,284),(0,6);:_ZN11stlpmtx_std13__type_traitsIVKsEC2Ev;2A.;__comp_ctor::(28,288):_ZN11stlpmtx_std13__type_traitsIVKsEC1Ev;2A.;;",128,0,295,0
	.stabs	"__type_traits<short unsigned int>:Tt(28,289)=s1!1,020,(28,121);operator=::(28,290)=#(28,289),(28,291)=&(28,289),(28,292)=*(28,289),(28,293)=&(28,294)=k(28,289),(0,6);:_ZN11stlpmtx_std13__type_traitsItEaSERKS1_;2A.;__base_ctor::(28,295)=#(28,289),(0,6),(28,292),(28,293),(0,6);:_ZN11stlpmtx_std13__type_traitsItEC2ERKS1_;2A.;__comp_ctor::(28,295):_ZN11stlpmtx_std13__type_traitsItEC1ERKS1_;2A.;__base_ctor::(28,296)=#(28,289),(0,6),(28,292),(0,6);:_ZN11stlpmtx_std13__type_traitsItEC2Ev;2A.;__comp_ctor::(28,296):_ZN11stlpmtx_std13__type_traitsItEC1Ev;2A.;;",128,0,296,0
	.stabs	"__type_traits<const short unsigned int>:Tt(28,297)=s1!1,020,(28,121);operator=::(28,298)=#(28,297),(28,299)=&(28,297),(28,300)=*(28,297),(28,301)=&(28,302)=k(28,297),(0,6);:_ZN11stlpmtx_std13__type_traitsIKtEaSERKS2_;2A.;__base_ctor::(28,303)=#(28,297),(0,6),(28,300),(28,301),(0,6);:_ZN11stlpmtx_std13__type_traitsIKtEC2ERKS2_;2A.;__comp_ctor::(28,303):_ZN11stlpmtx_std13__type_traitsIKtEC1ERKS2_;2A.;__base_ctor::(28,304)=#(28,297),(0,6),(28,300),(0,6);:_ZN11stlpmtx_std13__type_traitsIKtEC2Ev;2A.;__comp_ctor::(28,304):_ZN11stlpmtx_std13__type_traitsIKtEC1Ev;2A.;;",128,0,296,0
	.stabs	"__type_traits<volatile short unsigned int>:Tt(28,305)=s1!1,020,(28,121);operator=::(28,306)=#(28,305),(28,307)=&(28,305),(28,308)=*(28,305),(28,309)=&(28,310)=k(28,305),(0,6);:_ZN11stlpmtx_std13__type_traitsIVtEaSERKS2_;2A.;__base_ctor::(28,311)=#(28,305),(0,6),(28,308),(28,309),(0,6);:_ZN11stlpmtx_std13__type_traitsIVtEC2ERKS2_;2A.;__comp_ctor::(28,311):_ZN11stlpmtx_std13__type_traitsIVtEC1ERKS2_;2A.;__base_ctor::(28,312)=#(28,305),(0,6),(28,308),(0,6);:_ZN11stlpmtx_std13__type_traitsIVtEC2Ev;2A.;__comp_ctor::(28,312):_ZN11stlpmtx_std13__type_traitsIVtEC1Ev;2A.;;",128,0,296,0
	.stabs	"__type_traits<const volatile short unsigned int>:Tt(28,313)=s1!1,020,(28,121);operator=::(28,314)=#(28,313),(28,315)=&(28,313),(28,316)=*(28,313),(28,317)=&(28,318)=k(28,313),(0,6);:_ZN11stlpmtx_std13__type_traitsIVKtEaSERKS2_;2A.;__base_ctor::(28,319)=#(28,313),(0,6),(28,316),(28,317),(0,6);:_ZN11stlpmtx_std13__type_traitsIVKtEC2ERKS2_;2A.;__comp_ctor::(28,319):_ZN11stlpmtx_std13__type_traitsIVKtEC1ERKS2_;2A.;__base_ctor::(28,320)=#(28,313),(0,6),(28,316),(0,6);:_ZN11stlpmtx_std13__type_traitsIVKtEC2Ev;2A.;__comp_ctor::(28,320):_ZN11stlpmtx_std13__type_traitsIVKtEC1Ev;2A.;;",128,0,296,0
	.stabs	"__type_traits<int>:Tt(28,321)=s1!1,020,(28,121);operator=::(28,322)=#(28,321),(28,323)=&(28,321),(28,324)=*(28,321),(28,325)=&(28,326)=k(28,321),(0,6);:_ZN11stlpmtx_std13__type_traitsIiEaSERKS1_;2A.;__base_ctor::(28,327)=#(28,321),(0,6),(28,324),(28,325),(0,6);:_ZN11stlpmtx_std13__type_traitsIiEC2ERKS1_;2A.;__comp_ctor::(28,327):_ZN11stlpmtx_std13__type_traitsIiEC1ERKS1_;2A.;__base_ctor::(28,328)=#(28,321),(0,6),(28,324),(0,6);:_ZN11stlpmtx_std13__type_traitsIiEC2Ev;2A.;__comp_ctor::(28,328):_ZN11stlpmtx_std13__type_traitsIiEC1Ev;2A.;;",128,0,297,0
	.stabs	"__type_traits<const int>:Tt(28,329)=s1!1,020,(28,121);operator=::(28,330)=#(28,329),(28,331)=&(28,329),(28,332)=*(28,329),(28,333)=&(28,334)=k(28,329),(0,6);:_ZN11stlpmtx_std13__type_traitsIKiEaSERKS2_;2A.;__base_ctor::(28,335)=#(28,329),(0,6),(28,332),(28,333),(0,6);:_ZN11stlpmtx_std13__type_traitsIKiEC2ERKS2_;2A.;__comp_ctor::(28,335):_ZN11stlpmtx_std13__type_traitsIKiEC1ERKS2_;2A.;__base_ctor::(28,336)=#(28,329),(0,6),(28,332),(0,6);:_ZN11stlpmtx_std13__type_traitsIKiEC2Ev;2A.;__comp_ctor::(28,336):_ZN11stlpmtx_std13__type_traitsIKiEC1Ev;2A.;;",128,0,297,0
	.stabs	"__type_traits<volatile int>:Tt(28,337)=s1!1,020,(28,121);operator=::(28,338)=#(28,337),(28,339)=&(28,337),(28,340)=*(28,337),(28,341)=&(28,342)=k(28,337),(0,6);:_ZN11stlpmtx_std13__type_traitsIViEaSERKS2_;2A.;__base_ctor::(28,343)=#(28,337),(0,6),(28,340),(28,341),(0,6);:_ZN11stlpmtx_std13__type_traitsIViEC2ERKS2_;2A.;__comp_ctor::(28,343):_ZN11stlpmtx_std13__type_traitsIViEC1ERKS2_;2A.;__base_ctor::(28,344)=#(28,337),(0,6),(28,340),(0,6);:_ZN11stlpmtx_std13__type_traitsIViEC2Ev;2A.;__comp_ctor::(28,344):_ZN11stlpmtx_std13__type_traitsIViEC1Ev;2A.;;",128,0,297,0
	.stabs	"__type_traits<const volatile int>:Tt(28,345)=s1!1,020,(28,121);operator=::(28,346)=#(28,345),(28,347)=&(28,345),(28,348)=*(28,345),(28,349)=&(28,350)=k(28,345),(0,6);:_ZN11stlpmtx_std13__type_traitsIVKiEaSERKS2_;2A.;__base_ctor::(28,351)=#(28,345),(0,6),(28,348),(28,349),(0,6);:_ZN11stlpmtx_std13__type_traitsIVKiEC2ERKS2_;2A.;__comp_ctor::(28,351):_ZN11stlpmtx_std13__type_traitsIVKiEC1ERKS2_;2A.;__base_ctor::(28,352)=#(28,345),(0,6),(28,348),(0,6);:_ZN11stlpmtx_std13__type_traitsIVKiEC2Ev;2A.;__comp_ctor::(28,352):_ZN11stlpmtx_std13__type_traitsIVKiEC1Ev;2A.;;",128,0,297,0
	.stabs	"__type_traits<unsigned int>:Tt(28,353)=s1!1,020,(28,121);operator=::(28,354)=#(28,353),(28,355)=&(28,353),(28,356)=*(28,353),(28,357)=&(28,358)=k(28,353),(0,6);:_ZN11stlpmtx_std13__type_traitsIjEaSERKS1_;2A.;__base_ctor::(28,359)=#(28,353),(0,6),(28,356),(28,357),(0,6);:_ZN11stlpmtx_std13__type_traitsIjEC2ERKS1_;2A.;__comp_ctor::(28,359):_ZN11stlpmtx_std13__type_traitsIjEC1ERKS1_;2A.;__base_ctor::(28,360)=#(28,353),(0,6),(28,356),(0,6);:_ZN11stlpmtx_std13__type_traitsIjEC2Ev;2A.;__comp_ctor::(28,360):_ZN11stlpmtx_std13__type_traitsIjEC1Ev;2A.;;",128,0,298,0
	.stabs	"__type_traits<const unsigned int>:Tt(28,361)=s1!1,020,(28,121);operator=::(28,362)=#(28,361),(28,363)=&(28,361),(28,364)=*(28,361),(28,365)=&(28,366)=k(28,361),(0,6);:_ZN11stlpmtx_std13__type_traitsIKjEaSERKS2_;2A.;__base_ctor::(28,367)=#(28,361),(0,6),(28,364),(28,365),(0,6);:_ZN11stlpmtx_std13__type_traitsIKjEC2ERKS2_;2A.;__comp_ctor::(28,367):_ZN11stlpmtx_std13__type_traitsIKjEC1ERKS2_;2A.;__base_ctor::(28,368)=#(28,361),(0,6),(28,364),(0,6);:_ZN11stlpmtx_std13__type_traitsIKjEC2Ev;2A.;__comp_ctor::(28,368):_ZN11stlpmtx_std13__type_traitsIKjEC1Ev;2A.;;",128,0,298,0
	.stabs	"__type_traits<volatile unsigned int>:Tt(28,369)=s1!1,020,(28,121);operator=::(28,370)=#(28,369),(28,371)=&(28,369),(28,372)=*(28,369),(28,373)=&(28,374)=k(28,369),(0,6);:_ZN11stlpmtx_std13__type_traitsIVjEaSERKS2_;2A.;__base_ctor::(28,375)=#(28,369),(0,6),(28,372),(28,373),(0,6);:_ZN11stlpmtx_std13__type_traitsIVjEC2ERKS2_;2A.;__comp_ctor::(28,375):_ZN11stlpmtx_std13__type_traitsIVjEC1ERKS2_;2A.;__base_ctor::(28,376)=#(28,369),(0,6),(28,372),(0,6);:_ZN11stlpmtx_std13__type_traitsIVjEC2Ev;2A.;__comp_ctor::(28,376):_ZN11stlpmtx_std13__type_traitsIVjEC1Ev;2A.;;",128,0,298,0
	.stabs	"__type_traits<const volatile unsigned int>:Tt(28,377)=s1!1,020,(28,121);operator=::(28,378)=#(28,377),(28,379)=&(28,377),(28,380)=*(28,377),(28,381)=&(28,382)=k(28,377),(0,6);:_ZN11stlpmtx_std13__type_traitsIVKjEaSERKS2_;2A.;__base_ctor::(28,383)=#(28,377),(0,6),(28,380),(28,381),(0,6);:_ZN11stlpmtx_std13__type_traitsIVKjEC2ERKS2_;2A.;__comp_ctor::(28,383):_ZN11stlpmtx_std13__type_traitsIVKjEC1ERKS2_;2A.;__base_ctor::(28,384)=#(28,377),(0,6),(28,380),(0,6);:_ZN11stlpmtx_std13__type_traitsIVKjEC2Ev;2A.;__comp_ctor::(28,384):_ZN11stlpmtx_std13__type_traitsIVKjEC1Ev;2A.;;",128,0,298,0
	.stabs	"__type_traits<long int>:Tt(28,385)=s1!1,020,(28,121);operator=::(28,386)=#(28,385),(28,387)=&(28,385),(28,388)=*(28,385),(28,389)=&(28,390)=k(28,385),(0,6);:_ZN11stlpmtx_std13__type_traitsIlEaSERKS1_;2A.;__base_ctor::(28,391)=#(28,385),(0,6),(28,388),(28,389),(0,6);:_ZN11stlpmtx_std13__type_traitsIlEC2ERKS1_;2A.;__comp_ctor::(28,391):_ZN11stlpmtx_std13__type_traitsIlEC1ERKS1_;2A.;__base_ctor::(28,392)=#(28,385),(0,6),(28,388),(0,6);:_ZN11stlpmtx_std13__type_traitsIlEC2Ev;2A.;__comp_ctor::(28,392):_ZN11stlpmtx_std13__type_traitsIlEC1Ev;2A.;;",128,0,299,0
	.stabs	"__type_traits<const long int>:Tt(28,393)=s1!1,020,(28,121);operator=::(28,394)=#(28,393),(28,395)=&(28,393),(28,396)=*(28,393),(28,397)=&(28,398)=k(28,393),(0,6);:_ZN11stlpmtx_std13__type_traitsIKlEaSERKS2_;2A.;__base_ctor::(28,399)=#(28,393),(0,6),(28,396),(28,397),(0,6);:_ZN11stlpmtx_std13__type_traitsIKlEC2ERKS2_;2A.;__comp_ctor::(28,399):_ZN11stlpmtx_std13__type_traitsIKlEC1ERKS2_;2A.;__base_ctor::(28,400)=#(28,393),(0,6),(28,396),(0,6);:_ZN11stlpmtx_std13__type_traitsIKlEC2Ev;2A.;__comp_ctor::(28,400):_ZN11stlpmtx_std13__type_traitsIKlEC1Ev;2A.;;",128,0,299,0
	.stabs	"__type_traits<volatile long int>:Tt(28,401)=s1!1,020,(28,121);operator=::(28,402)=#(28,401),(28,403)=&(28,401),(28,404)=*(28,401),(28,405)=&(28,406)=k(28,401),(0,6);:_ZN11stlpmtx_std13__type_traitsIVlEaSERKS2_;2A.;__base_ctor::(28,407)=#(28,401),(0,6),(28,404),(28,405),(0,6);:_ZN11stlpmtx_std13__type_traitsIVlEC2ERKS2_;2A.;__comp_ctor::(28,407):_ZN11stlpmtx_std13__type_traitsIVlEC1ERKS2_;2A.;__base_ctor::(28,408)=#(28,401),(0,6),(28,404),(0,6);:_ZN11stlpmtx_std13__type_traitsIVlEC2Ev;2A.;__comp_ctor::(28,408):_ZN11stlpmtx_std13__type_traitsIVlEC1Ev;2A.;;",128,0,299,0
	.stabs	"__type_traits<const volatile long int>:Tt(28,409)=s1!1,020,(28,121);operator=::(28,410)=#(28,409),(28,411)=&(28,409),(28,412)=*(28,409),(28,413)=&(28,414)=k(28,409),(0,6);:_ZN11stlpmtx_std13__type_traitsIVKlEaSERKS2_;2A.;__base_ctor::(28,415)=#(28,409),(0,6),(28,412),(28,413),(0,6);:_ZN11stlpmtx_std13__type_traitsIVKlEC2ERKS2_;2A.;__comp_ctor::(28,415):_ZN11stlpmtx_std13__type_traitsIVKlEC1ERKS2_;2A.;__base_ctor::(28,416)=#(28,409),(0,6),(28,412),(0,6);:_ZN11stlpmtx_std13__type_traitsIVKlEC2Ev;2A.;__comp_ctor::(28,416):_ZN11stlpmtx_std13__type_traitsIVKlEC1Ev;2A.;;",128,0,299,0
	.stabs	"__type_traits<long unsigned int>:Tt(28,417)=s1!1,020,(28,121);operator=::(28,418)=#(28,417),(28,419)=&(28,417),(28,420)=*(28,417),(28,421)=&(28,422)=k(28,417),(0,6);:_ZN11stlpmtx_std13__type_traitsImEaSERKS1_;2A.;__base_ctor::(28,423)=#(28,417),(0,6),(28,420),(28,421),(0,6);:_ZN11stlpmtx_std13__type_traitsImEC2ERKS1_;2A.;__comp_ctor::(28,423):_ZN11stlpmtx_std13__type_traitsImEC1ERKS1_;2A.;__base_ctor::(28,424)=#(28,417),(0,6),(28,420),(0,6);:_ZN11stlpmtx_std13__type_traitsImEC2Ev;2A.;__comp_ctor::(28,424):_ZN11stlpmtx_std13__type_traitsImEC1Ev;2A.;;",128,0,300,0
	.stabs	"__type_traits<const long unsigned int>:Tt(28,425)=s1!1,020,(28,121);operator=::(28,426)=#(28,425),(28,427)=&(28,425),(28,428)=*(28,425),(28,429)=&(28,430)=k(28,425),(0,6);:_ZN11stlpmtx_std13__type_traitsIKmEaSERKS2_;2A.;__base_ctor::(28,431)=#(28,425),(0,6),(28,428),(28,429),(0,6);:_ZN11stlpmtx_std13__type_traitsIKmEC2ERKS2_;2A.;__comp_ctor::(28,431):_ZN11stlpmtx_std13__type_traitsIKmEC1ERKS2_;2A.;__base_ctor::(28,432)=#(28,425),(0,6),(28,428),(0,6);:_ZN11stlpmtx_std13__type_traitsIKmEC2Ev;2A.;__comp_ctor::(28,432):_ZN11stlpmtx_std13__type_traitsIKmEC1Ev;2A.;;",128,0,300,0
	.stabs	"__type_traits<volatile long unsigned int>:Tt(28,433)=s1!1,020,(28,121);operator=::(28,434)=#(28,433),(28,435)=&(28,433),(28,436)=*(28,433),(28,437)=&(28,438)=k(28,433),(0,6);:_ZN11stlpmtx_std13__type_traitsIVmEaSERKS2_;2A.;__base_ctor::(28,439)=#(28,433),(0,6),(28,436),(28,437),(0,6);:_ZN11stlpmtx_std13__type_traitsIVmEC2ERKS2_;2A.;__comp_ctor::(28,439):_ZN11stlpmtx_std13__type_traitsIVmEC1ERKS2_;2A.;__base_ctor::(28,440)=#(28,433),(0,6),(28,436),(0,6);:_ZN11stlpmtx_std13__type_traitsIVmEC2Ev;2A.;__comp_ctor::(28,440):_ZN11stlpmtx_std13__type_traitsIVmEC1Ev;2A.;;",128,0,300,0
	.stabs	"__type_traits<const volatile long unsigned int>:Tt(28,441)=s1!1,020,(28,121);operator=::(28,442)=#(28,441),(28,443)=&(28,441),(28,444)=*(28,441),(28,445)=&(28,446)=k(28,441),(0,6);:_ZN11stlpmtx_std13__type_traitsIVKmEaSERKS2_;2A.;__base_ctor::(28,447)=#(28,441),(0,6),(28,444),(28,445),(0,6);:_ZN11stlpmtx_std13__type_traitsIVKmEC2ERKS2_;2A.;__comp_ctor::(28,447):_ZN11stlpmtx_std13__type_traitsIVKmEC1ERKS2_;2A.;__base_ctor::(28,448)=#(28,441),(0,6),(28,444),(0,6);:_ZN11stlpmtx_std13__type_traitsIVKmEC2Ev;2A.;__comp_ctor::(28,448):_ZN11stlpmtx_std13__type_traitsIVKmEC1Ev;2A.;;",128,0,300,0
	.stabs	"__type_traits<long long int>:Tt(28,449)=s1!1,020,(28,121);operator=::(28,450)=#(28,449),(28,451)=&(28,449),(28,452)=*(28,449),(28,453)=&(28,454)=k(28,449),(0,6);:_ZN11stlpmtx_std13__type_traitsIxEaSERKS1_;2A.;__base_ctor::(28,455)=#(28,449),(0,6),(28,452),(28,453),(0,6);:_ZN11stlpmtx_std13__type_traitsIxEC2ERKS1_;2A.;__comp_ctor::(28,455):_ZN11stlpmtx_std13__type_traitsIxEC1ERKS1_;2A.;__base_ctor::(28,456)=#(28,449),(0,6),(28,452),(0,6);:_ZN11stlpmtx_std13__type_traitsIxEC2Ev;2A.;__comp_ctor::(28,456):_ZN11stlpmtx_std13__type_traitsIxEC1Ev;2A.;;",128,0,303,0
	.stabs	"__type_traits<const long long int>:Tt(28,457)=s1!1,020,(28,121);operator=::(28,458)=#(28,457),(28,459)=&(28,457),(28,460)=*(28,457),(28,461)=&(28,462)=k(28,457),(0,6);:_ZN11stlpmtx_std13__type_traitsIKxEaSERKS2_;2A.;__base_ctor::(28,463)=#(28,457),(0,6),(28,460),(28,461),(0,6);:_ZN11stlpmtx_std13__type_traitsIKxEC2ERKS2_;2A.;__comp_ctor::(28,463):_ZN11stlpmtx_std13__type_traitsIKxEC1ERKS2_;2A.;__base_ctor::(28,464)=#(28,457),(0,6),(28,460),(0,6);:_ZN11stlpmtx_std13__type_traitsIKxEC2Ev;2A.;__comp_ctor::(28,464):_ZN11stlpmtx_std13__type_traitsIKxEC1Ev;2A.;;",128,0,303,0
	.stabs	"__type_traits<volatile long long int>:Tt(28,465)=s1!1,020,(28,121);operator=::(28,466)=#(28,465),(28,467)=&(28,465),(28,468)=*(28,465),(28,469)=&(28,470)=k(28,465),(0,6);:_ZN11stlpmtx_std13__type_traitsIVxEaSERKS2_;2A.;__base_ctor::(28,471)=#(28,465),(0,6),(28,468),(28,469),(0,6);:_ZN11stlpmtx_std13__type_traitsIVxEC2ERKS2_;2A.;__comp_ctor::(28,471):_ZN11stlpmtx_std13__type_traitsIVxEC1ERKS2_;2A.;__base_ctor::(28,472)=#(28,465),(0,6),(28,468),(0,6);:_ZN11stlpmtx_std13__type_traitsIVxEC2Ev;2A.;__comp_ctor::(28,472):_ZN11stlpmtx_std13__type_traitsIVxEC1Ev;2A.;;",128,0,303,0
	.stabs	"__type_traits<const volatile long long int>:Tt(28,473)=s1!1,020,(28,121);operator=::(28,474)=#(28,473),(28,475)=&(28,473),(28,476)=*(28,473),(28,477)=&(28,478)=k(28,473),(0,6);:_ZN11stlpmtx_std13__type_traitsIVKxEaSERKS2_;2A.;__base_ctor::(28,479)=#(28,473),(0,6),(28,476),(28,477),(0,6);:_ZN11stlpmtx_std13__type_traitsIVKxEC2ERKS2_;2A.;__comp_ctor::(28,479):_ZN11stlpmtx_std13__type_traitsIVKxEC1ERKS2_;2A.;__base_ctor::(28,480)=#(28,473),(0,6),(28,476),(0,6);:_ZN11stlpmtx_std13__type_traitsIVKxEC2Ev;2A.;__comp_ctor::(28,480):_ZN11stlpmtx_std13__type_traitsIVKxEC1Ev;2A.;;",128,0,303,0
	.stabs	"__type_traits<long long unsigned int>:Tt(28,481)=s1!1,020,(28,121);operator=::(28,482)=#(28,481),(28,483)=&(28,481),(28,484)=*(28,481),(28,485)=&(28,486)=k(28,481),(0,6);:_ZN11stlpmtx_std13__type_traitsIyEaSERKS1_;2A.;__base_ctor::(28,487)=#(28,481),(0,6),(28,484),(28,485),(0,6);:_ZN11stlpmtx_std13__type_traitsIyEC2ERKS1_;2A.;__comp_ctor::(28,487):_ZN11stlpmtx_std13__type_traitsIyEC1ERKS1_;2A.;__base_ctor::(28,488)=#(28,481),(0,6),(28,484),(0,6);:_ZN11stlpmtx_std13__type_traitsIyEC2Ev;2A.;__comp_ctor::(28,488):_ZN11stlpmtx_std13__type_traitsIyEC1Ev;2A.;;",128,0,304,0
	.stabs	"__type_traits<const long long unsigned int>:Tt(28,489)=s1!1,020,(28,121);operator=::(28,490)=#(28,489),(28,491)=&(28,489),(28,492)=*(28,489),(28,493)=&(28,494)=k(28,489),(0,6);:_ZN11stlpmtx_std13__type_traitsIKyEaSERKS2_;2A.;__base_ctor::(28,495)=#(28,489),(0,6),(28,492),(28,493),(0,6);:_ZN11stlpmtx_std13__type_traitsIKyEC2ERKS2_;2A.;__comp_ctor::(28,495):_ZN11stlpmtx_std13__type_traitsIKyEC1ERKS2_;2A.;__base_ctor::(28,496)=#(28,489),(0,6),(28,492),(0,6);:_ZN11stlpmtx_std13__type_traitsIKyEC2Ev;2A.;__comp_ctor::(28,496):_ZN11stlpmtx_std13__type_traitsIKyEC1Ev;2A.;;",128,0,304,0
	.stabs	"__type_traits<volatile long long unsigned int>:Tt(28,497)=s1!1,020,(28,121);operator=::(28,498)=#(28,497),(28,499)=&(28,497),(28,500)=*(28,497),(28,501)=&(28,502)=k(28,497),(0,6);:_ZN11stlpmtx_std13__type_traitsIVyEaSERKS2_;2A.;__base_ctor::(28,503)=#(28,497),(0,6),(28,500),(28,501),(0,6);:_ZN11stlpmtx_std13__type_traitsIVyEC2ERKS2_;2A.;__comp_ctor::(28,503):_ZN11stlpmtx_std13__type_traitsIVyEC1ERKS2_;2A.;__base_ctor::(28,504)=#(28,497),(0,6),(28,500),(0,6);:_ZN11stlpmtx_std13__type_traitsIVyEC2Ev;2A.;__comp_ctor::(28,504):_ZN11stlpmtx_std13__type_traitsIVyEC1Ev;2A.;;",128,0,304,0
	.stabs	"__type_traits<const volatile long long unsigned int>:Tt(28,505)=s1!1,020,(28,121);operator=::(28,506)=#(28,505),(28,507)=&(28,505),(28,508)=*(28,505),(28,509)=&(28,510)=k(28,505),(0,6);:_ZN11stlpmtx_std13__type_traitsIVKyEaSERKS2_;2A.;__base_ctor::(28,511)=#(28,505),(0,6),(28,508),(28,509),(0,6);:_ZN11stlpmtx_std13__type_traitsIVKyEC2ERKS2_;2A.;__comp_ctor::(28,511):_ZN11stlpmtx_std13__type_traitsIVKyEC1ERKS2_;2A.;__base_ctor::(28,512)=#(28,505),(0,6),(28,508),(0,6);:_ZN11stlpmtx_std13__type_traitsIVKyEC2Ev;2A.;__comp_ctor::(28,512):_ZN11stlpmtx_std13__type_traitsIVKyEC1Ev;2A.;;",128,0,304,0
	.stabs	"__type_traits<float>:Tt(28,513)=s1!1,020,(28,121);operator=::(28,514)=#(28,513),(28,515)=&(28,513),(28,516)=*(28,513),(28,517)=&(28,518)=k(28,513),(0,6);:_ZN11stlpmtx_std13__type_traitsIfEaSERKS1_;2A.;__base_ctor::(28,519)=#(28,513),(0,6),(28,516),(28,517),(0,6);:_ZN11stlpmtx_std13__type_traitsIfEC2ERKS1_;2A.;__comp_ctor::(28,519):_ZN11stlpmtx_std13__type_traitsIfEC1ERKS1_;2A.;__base_ctor::(28,520)=#(28,513),(0,6),(28,516),(0,6);:_ZN11stlpmtx_std13__type_traitsIfEC2Ev;2A.;__comp_ctor::(28,520):_ZN11stlpmtx_std13__type_traitsIfEC1Ev;2A.;;",128,0,307,0
	.stabs	"__type_traits<const float>:Tt(28,521)=s1!1,020,(28,121);operator=::(28,522)=#(28,521),(28,523)=&(28,521),(28,524)=*(28,521),(28,525)=&(28,526)=k(28,521),(0,6);:_ZN11stlpmtx_std13__type_traitsIKfEaSERKS2_;2A.;__base_ctor::(28,527)=#(28,521),(0,6),(28,524),(28,525),(0,6);:_ZN11stlpmtx_std13__type_traitsIKfEC2ERKS2_;2A.;__comp_ctor::(28,527):_ZN11stlpmtx_std13__type_traitsIKfEC1ERKS2_;2A.;__base_ctor::(28,528)=#(28,521),(0,6),(28,524),(0,6);:_ZN11stlpmtx_std13__type_traitsIKfEC2Ev;2A.;__comp_ctor::(28,528):_ZN11stlpmtx_std13__type_traitsIKfEC1Ev;2A.;;",128,0,307,0
	.stabs	"__type_traits<volatile float>:Tt(28,529)=s1!1,020,(28,121);operator=::(28,530)=#(28,529),(28,531)=&(28,529),(28,532)=*(28,529),(28,533)=&(28,534)=k(28,529),(0,6);:_ZN11stlpmtx_std13__type_traitsIVfEaSERKS2_;2A.;__base_ctor::(28,535)=#(28,529),(0,6),(28,532),(28,533),(0,6);:_ZN11stlpmtx_std13__type_traitsIVfEC2ERKS2_;2A.;__comp_ctor::(28,535):_ZN11stlpmtx_std13__type_traitsIVfEC1ERKS2_;2A.;__base_ctor::(28,536)=#(28,529),(0,6),(28,532),(0,6);:_ZN11stlpmtx_std13__type_traitsIVfEC2Ev;2A.;__comp_ctor::(28,536):_ZN11stlpmtx_std13__type_traitsIVfEC1Ev;2A.;;",128,0,307,0
	.stabs	"__type_traits<const volatile float>:Tt(28,537)=s1!1,020,(28,121);operator=::(28,538)=#(28,537),(28,539)=&(28,537),(28,540)=*(28,537),(28,541)=&(28,542)=k(28,537),(0,6);:_ZN11stlpmtx_std13__type_traitsIVKfEaSERKS2_;2A.;__base_ctor::(28,543)=#(28,537),(0,6),(28,540),(28,541),(0,6);:_ZN11stlpmtx_std13__type_traitsIVKfEC2ERKS2_;2A.;__comp_ctor::(28,543):_ZN11stlpmtx_std13__type_traitsIVKfEC1ERKS2_;2A.;__base_ctor::(28,544)=#(28,537),(0,6),(28,540),(0,6);:_ZN11stlpmtx_std13__type_traitsIVKfEC2Ev;2A.;__comp_ctor::(28,544):_ZN11stlpmtx_std13__type_traitsIVKfEC1Ev;2A.;;",128,0,307,0
	.stabs	"__type_traits<double>:Tt(28,545)=s1!1,020,(28,121);operator=::(28,546)=#(28,545),(28,547)=&(28,545),(28,548)=*(28,545),(28,549)=&(28,550)=k(28,545),(0,6);:_ZN11stlpmtx_std13__type_traitsIdEaSERKS1_;2A.;__base_ctor::(28,551)=#(28,545),(0,6),(28,548),(28,549),(0,6);:_ZN11stlpmtx_std13__type_traitsIdEC2ERKS1_;2A.;__comp_ctor::(28,551):_ZN11stlpmtx_std13__type_traitsIdEC1ERKS1_;2A.;__base_ctor::(28,552)=#(28,545),(0,6),(28,548),(0,6);:_ZN11stlpmtx_std13__type_traitsIdEC2Ev;2A.;__comp_ctor::(28,552):_ZN11stlpmtx_std13__type_traitsIdEC1Ev;2A.;;",128,0,308,0
	.stabs	"__type_traits<const double>:Tt(28,553)=s1!1,020,(28,121);operator=::(28,554)=#(28,553),(28,555)=&(28,553),(28,556)=*(28,553),(28,557)=&(28,558)=k(28,553),(0,6);:_ZN11stlpmtx_std13__type_traitsIKdEaSERKS2_;2A.;__base_ctor::(28,559)=#(28,553),(0,6),(28,556),(28,557),(0,6);:_ZN11stlpmtx_std13__type_traitsIKdEC2ERKS2_;2A.;__comp_ctor::(28,559):_ZN11stlpmtx_std13__type_traitsIKdEC1ERKS2_;2A.;__base_ctor::(28,560)=#(28,553),(0,6),(28,556),(0,6);:_ZN11stlpmtx_std13__type_traitsIKdEC2Ev;2A.;__comp_ctor::(28,560):_ZN11stlpmtx_std13__type_traitsIKdEC1Ev;2A.;;",128,0,308,0
	.stabs	"__type_traits<volatile double>:Tt(28,561)=s1!1,020,(28,121);operator=::(28,562)=#(28,561),(28,563)=&(28,561),(28,564)=*(28,561),(28,565)=&(28,566)=k(28,561),(0,6);:_ZN11stlpmtx_std13__type_traitsIVdEaSERKS2_;2A.;__base_ctor::(28,567)=#(28,561),(0,6),(28,564),(28,565),(0,6);:_ZN11stlpmtx_std13__type_traitsIVdEC2ERKS2_;2A.;__comp_ctor::(28,567):_ZN11stlpmtx_std13__type_traitsIVdEC1ERKS2_;2A.;__base_ctor::(28,568)=#(28,561),(0,6),(28,564),(0,6);:_ZN11stlpmtx_std13__type_traitsIVdEC2Ev;2A.;__comp_ctor::(28,568):_ZN11stlpmtx_std13__type_traitsIVdEC1Ev;2A.;;",128,0,308,0
	.stabs	"__type_traits<const volatile double>:Tt(28,569)=s1!1,020,(28,121);operator=::(28,570)=#(28,569),(28,571)=&(28,569),(28,572)=*(28,569),(28,573)=&(28,574)=k(28,569),(0,6);:_ZN11stlpmtx_std13__type_traitsIVKdEaSERKS2_;2A.;__base_ctor::(28,575)=#(28,569),(0,6),(28,572),(28,573),(0,6);:_ZN11stlpmtx_std13__type_traitsIVKdEC2ERKS2_;2A.;__comp_ctor::(28,575):_ZN11stlpmtx_std13__type_traitsIVKdEC1ERKS2_;2A.;__base_ctor::(28,576)=#(28,569),(0,6),(28,572),(0,6);:_ZN11stlpmtx_std13__type_traitsIVKdEC2Ev;2A.;__comp_ctor::(28,576):_ZN11stlpmtx_std13__type_traitsIVKdEC1Ev;2A.;;",128,0,308,0
	.stabs	"_NegativeAnswer:Tt(28,577)=s1_Answer::(28,578)=f(29,9):_ZN11stlpmtx_std15_NegativeAnswer7_AnswerEv;2A?;operator=::(28,579)=#(28,577),(28,580)=&(28,577),(28,581)=*(28,577),(28,582)=&(28,583)=k(28,577),(0,6);:_ZN11stlpmtx_std15_NegativeAnsweraSERKS0_;2A.;__base_ctor::(28,584)=#(28,577),(0,6),(28,581),(28,582),(0,6);:_ZN11stlpmtx_std15_NegativeAnswerC2ERKS0_;2A.;__comp_ctor::(28,584):_ZN11stlpmtx_std15_NegativeAnswerC1ERKS0_;2A.;__base_ctor::(28,585)=#(28,577),(0,6),(28,581),(0,6);:_ZN11stlpmtx_std15_NegativeAnswerC2Ev;2A.;__comp_ctor::(28,585):_ZN11stlpmtx_std15_NegativeAnswerC1Ev;2A.;;",128,0,510,0
	.stabn	162,0,0,0
	.stabn	162,0,0,0
	.stabs	"/Applications/MoSync/include/newlib/stlport/stl/_iterator_base.h",130,0,0,0
	.stabs	"input_iterator_tag:Tt(30,1)=s1operator=::(30,2)=#(30,1),(30,3)=&(30,1),(30,4)=*(30,1),(30,5)=&(30,6)=k(30,1),(0,6);:_ZN11stlpmtx_std18input_iterator_tagaSERKS0_;2A.;__base_ctor::(30,7)=#(30,1),(0,6),(30,4),(30,5),(0,6);:_ZN11stlpmtx_std18input_iterator_tagC2ERKS0_;2A.;__comp_ctor::(30,7):_ZN11stlpmtx_std18input_iterator_tagC1ERKS0_;2A.;__base_ctor::(30,8)=#(30,1),(0,6),(30,4),(0,6);:_ZN11stlpmtx_std18input_iterator_tagC2Ev;2A.;__comp_ctor::(30,8):_ZN11stlpmtx_std18input_iterator_tagC1Ev;2A.;;",128,0,51,0
	.stabs	"output_iterator_tag:Tt(30,9)=s1operator=::(30,10)=#(30,9),(30,11)=&(30,9),(30,12)=*(30,9),(30,13)=&(30,14)=k(30,9),(0,6);:_ZN11stlpmtx_std19output_iterator_tagaSERKS0_;2A.;__base_ctor::(30,15)=#(30,9),(0,6),(30,12),(30,13),(0,6);:_ZN11stlpmtx_std19output_iterator_tagC2ERKS0_;2A.;__comp_ctor::(30,15):_ZN11stlpmtx_std19output_iterator_tagC1ERKS0_;2A.;__base_ctor::(30,16)=#(30,9),(0,6),(30,12),(0,6);:_ZN11stlpmtx_std19output_iterator_tagC2Ev;2A.;__comp_ctor::(30,16):_ZN11stlpmtx_std19output_iterator_tagC1Ev;2A.;;",128,0,52,0
	.stabs	"forward_iterator_tag:Tt(30,17)=s1!1,020,(30,1);operator=::(30,18)=#(30,17),(30,19)=&(30,17),(30,20)=*(30,17),(30,21)=&(30,22)=k(30,17),(0,6);:_ZN11stlpmtx_std20forward_iterator_tagaSERKS0_;2A.;__base_ctor::(30,23)=#(30,17),(0,6),(30,20),(30,21),(0,6);:_ZN11stlpmtx_std20forward_iterator_tagC2ERKS0_;2A.;__comp_ctor::(30,23):_ZN11stlpmtx_std20forward_iterator_tagC1ERKS0_;2A.;__base_ctor::(30,24)=#(30,17),(0,6),(30,20),(0,6);:_ZN11stlpmtx_std20forward_iterator_tagC2Ev;2A.;__comp_ctor::(30,24):_ZN11stlpmtx_std20forward_iterator_tagC1Ev;2A.;;",128,0,53,0
	.stabs	"bidirectional_iterator_tag:Tt(30,25)=s1!1,020,(30,17);operator=::(30,26)=#(30,25),(30,27)=&(30,25),(30,28)=*(30,25),(30,29)=&(30,30)=k(30,25),(0,6);:_ZN11stlpmtx_std26bidirectional_iterator_tagaSERKS0_;2A.;__base_ctor::(30,31)=#(30,25),(0,6),(30,28),(30,29),(0,6);:_ZN11stlpmtx_std26bidirectional_iterator_tagC2ERKS0_;2A.;__comp_ctor::(30,31):_ZN11stlpmtx_std26bidirectional_iterator_tagC1ERKS0_;2A.;__base_ctor::(30,32)=#(30,25),(0,6),(30,28),(0,6);:_ZN11stlpmtx_std26bidirectional_iterator_tagC2Ev;2A.;__comp_ctor::(30,32):_ZN11stlpmtx_std26bidirectional_iterator_tagC1Ev;2A.;;",128,0,54,0
	.stabs	"random_access_iterator_tag:Tt(30,33)=s1!1,020,(30,25);operator=::(30,34)=#(30,33),(30,35)=&(30,33),(30,36)=*(30,33),(30,37)=&(30,38)=k(30,33),(0,6);:_ZN11stlpmtx_std26random_access_iterator_tagaSERKS0_;2A.;__base_ctor::(30,39)=#(30,33),(0,6),(30,36),(30,37),(0,6);:_ZN11stlpmtx_std26random_access_iterator_tagC2ERKS0_;2A.;__comp_ctor::(30,39):_ZN11stlpmtx_std26random_access_iterator_tagC1ERKS0_;2A.;__base_ctor::(30,40)=#(30,33),(0,6),(30,36),(0,6);:_ZN11stlpmtx_std26random_access_iterator_tagC2Ev;2A.;__comp_ctor::(30,40):_ZN11stlpmtx_std26random_access_iterator_tagC1Ev;2A.;;",128,0,55,0
	.stabs	"iterator<stlpmtx_std::output_iterator_tag,void,void,void,void>:Tt(30,41)=s1operator=::(30,42)=#(30,41),(30,43)=&(30,41),(30,44)=*(30,41),(30,45)=&(30,46)=k(30,41),(0,6);:_ZN11stlpmtx_std8iteratorINS_19output_iterator_tagEvvvvEaSERKS2_;2A.;__base_ctor::(30,47)=#(30,41),(0,6),(30,44),(30,45),(0,6);:_ZN11stlpmtx_std8iteratorINS_19output_iterator_tagEvvvvEC2ERKS2_;2A.;__comp_ctor::(30,47):_ZN11stlpmtx_std8iteratorINS_19output_iterator_tagEvvvvEC1ERKS2_;2A.;__base_ctor::(30,48)=#(30,41),(0,6),(30,44),(0,6);:_ZN11stlpmtx_std8iteratorINS_19output_iterator_tagEvvvvEC2Ev;2A.;__comp_ctor::(30,48):_ZN11stlpmtx_std8iteratorINS_19output_iterator_tagEvvvvEC1Ev;2A.;;",128,0,67,0
	.stabs	"output_iterator:Tt(30,49)=s1!1,020,(30,41);operator=::(30,50)=#(30,49),(30,51)=&(30,49),(30,52)=*(30,49),(30,53)=&(30,54)=k(30,49),(0,6);:_ZN11stlpmtx_std15output_iteratoraSERKS0_;2A.;__base_ctor::(30,55)=#(30,49),(0,6),(30,52),(30,53),(0,6);:_ZN11stlpmtx_std15output_iteratorC2ERKS0_;2A.;__comp_ctor::(30,55):_ZN11stlpmtx_std15output_iteratorC1ERKS0_;2A.;__base_ctor::(30,56)=#(30,49),(0,6),(30,52),(0,6);:_ZN11stlpmtx_std15output_iteratorC2Ev;2A.;__comp_ctor::(30,56):_ZN11stlpmtx_std15output_iteratorC1Ev;2A.;;",128,0,269,0
	.stabn	162,0,0,0
	.stabs	"/Applications/MoSync/include/newlib/stlport/stl/_algobase.c",130,0,0,0
	.stabs	"_IsCharLikeType<char>:Tt(31,1)=s1operator=::(31,2)=#(31,1),(31,3)=&(31,1),(31,4)=*(31,1),(31,5)=&(31,6)=k(31,1),(0,6);:_ZN11stlpmtx_std4priv15_IsCharLikeTypeIcEaSERKS2_;2A.;__base_ctor::(31,7)=#(31,1),(0,6),(31,4),(31,5),(0,6);:_ZN11stlpmtx_std4priv15_IsCharLikeTypeIcEC2ERKS2_;2A.;__comp_ctor::(31,7):_ZN11stlpmtx_std4priv15_IsCharLikeTypeIcEC1ERKS2_;2A.;__base_ctor::(31,8)=#(31,1),(0,6),(31,4),(0,6);:_ZN11stlpmtx_std4priv15_IsCharLikeTypeIcEC2Ev;2A.;__comp_ctor::(31,8):_ZN11stlpmtx_std4priv15_IsCharLikeTypeIcEC1Ev;2A.;;",128,0,276,0
	.stabs	"_IsCharLikeType<unsigned char>:Tt(31,9)=s1operator=::(31,10)=#(31,9),(31,11)=&(31,9),(31,12)=*(31,9),(31,13)=&(31,14)=k(31,9),(0,6);:_ZN11stlpmtx_std4priv15_IsCharLikeTypeIhEaSERKS2_;2A.;__base_ctor::(31,15)=#(31,9),(0,6),(31,12),(31,13),(0,6);:_ZN11stlpmtx_std4priv15_IsCharLikeTypeIhEC2ERKS2_;2A.;__comp_ctor::(31,15):_ZN11stlpmtx_std4priv15_IsCharLikeTypeIhEC1ERKS2_;2A.;__base_ctor::(31,16)=#(31,9),(0,6),(31,12),(0,6);:_ZN11stlpmtx_std4priv15_IsCharLikeTypeIhEC2Ev;2A.;__comp_ctor::(31,16):_ZN11stlpmtx_std4priv15_IsCharLikeTypeIhEC1Ev;2A.;;",128,0,279,0
	.stabs	"_IsCharLikeType<signed char>:Tt(31,17)=s1operator=::(31,18)=#(31,17),(31,19)=&(31,17),(31,20)=*(31,17),(31,21)=&(31,22)=k(31,17),(0,6);:_ZN11stlpmtx_std4priv15_IsCharLikeTypeIaEaSERKS2_;2A.;__base_ctor::(31,23)=#(31,17),(0,6),(31,20),(31,21),(0,6);:_ZN11stlpmtx_std4priv15_IsCharLikeTypeIaEC2ERKS2_;2A.;__comp_ctor::(31,23):_ZN11stlpmtx_std4priv15_IsCharLikeTypeIaEC1ERKS2_;2A.;__base_ctor::(31,24)=#(31,17),(0,6),(31,20),(0,6);:_ZN11stlpmtx_std4priv15_IsCharLikeTypeIaEC2Ev;2A.;__comp_ctor::(31,24):_ZN11stlpmtx_std4priv15_IsCharLikeTypeIaEC1Ev;2A.;;",128,0,283,0
	.stabn	162,0,0,0
	.stabn	162,0,0,0
	.stabs	"/Applications/MoSync/include/newlib/stlport/stl/_algo.c",130,0,0,0
	.stabs	"/Applications/MoSync/include/newlib/stlport/stl/_tempbuf.h",130,0,0,0
	.stabs	"/Applications/MoSync/include/newlib/stlport/stl/_uninitialized.h",130,0,0,0
	.stabs	"/Applications/MoSync/include/newlib/stlport/stl/_construct.h",130,0,0,0
	.stabs	"/Applications/MoSync/include/newlib/stlport/stl/_new.h",130,0,0,0
	.stabs	"/Applications/MoSync/include/newlib/stlport/../new",130,0,0,0
	.stabs	"/Applications/MoSync/include/newlib/stlport/../macpp.h",130,0,0,0
	.stabs	"size_t:t(38,1)=(0,16)",128,0,17,0
	.stabn	162,0,0,0
	.stabs	"nothrow_t:Tt(37,1)=s1operator=::(37,2)=#(37,1),(37,3)=&(37,1),(37,4)=*(37,1),(37,5)=&(37,6)=k(37,1),(0,6);:_ZNSt9nothrow_taSERKS_;2A.;__base_ctor::(37,7)=#(37,1),(0,6),(37,4),(37,5),(0,6);:_ZNSt9nothrow_tC2ERKS_;2A.;__comp_ctor::(37,7):_ZNSt9nothrow_tC1ERKS_;2A.;__base_ctor::(37,8)=#(37,1),(0,6),(37,4),(0,6);:_ZNSt9nothrow_tC2Ev;2A.;__comp_ctor::(37,8):_ZNSt9nothrow_tC1Ev;2A.;;",128,0,50,0
	.stabn	162,0,0,0
	.stabn	162,0,0,0
	.stabn	162,0,0,0
	.stabn	162,0,0,0
	.stabn	162,0,0,0
	.stabn	162,0,0,0
	.stabn	162,0,0,0
	.stabn	162,0,0,0
	.stabs	"/Applications/MoSync/include/newlib/stlport/vector",130,0,0,0
	.stabs	"/Applications/MoSync/include/newlib/stlport/stl/_vector.h",130,0,0,0
	.stabs	"/Applications/MoSync/include/newlib/stlport/stl/_alloc.h",130,0,0,0
	.stabs	"__malloc_alloc:Tt(41,1)=s1allocate::(41,2)=f(7,28):_ZN11stlpmtx_std14__malloc_alloc8allocateEm;2A?;deallocate::(41,3)=f(0,6):_ZN11stlpmtx_std14__malloc_alloc10deallocateEPvm;2A?;operator=::(41,4)=#(41,1),(41,5)=&(41,1),(41,6)=*(41,1),(41,7)=&(41,8)=k(41,1),(0,6);:_ZN11stlpmtx_std14__malloc_allocaSERKS0_;2A.;__base_ctor::(41,9)=#(41,1),(0,6),(41,6),(41,7),(0,6);:_ZN11stlpmtx_std14__malloc_allocC2ERKS0_;2A.;__comp_ctor::(41,9):_ZN11stlpmtx_std14__malloc_allocC1ERKS0_;2A.;__base_ctor::(41,10)=#(41,1),(0,6),(41,6),(0,6);:_ZN11stlpmtx_std14__malloc_allocC2Ev;2A.;__comp_ctor::(41,10):_ZN11stlpmtx_std14__malloc_allocC1Ev;2A.;;",128,0,63,0
	.stabs	"__new_alloc:Tt(41,11)=s1allocate::(41,2):_ZN11stlpmtx_std11__new_alloc8allocateEm;2A?;deallocate::(41,3):_ZN11stlpmtx_std11__new_alloc10deallocateEPvm;2A?;operator=::(41,12)=#(41,11),(41,13)=&(41,11),(41,14)=*(41,11),(41,15)=&(41,16)=k(41,11),(0,6);:_ZN11stlpmtx_std11__new_allocaSERKS0_;2A.;__base_ctor::(41,17)=#(41,11),(0,6),(41,14),(41,15),(0,6);:_ZN11stlpmtx_std11__new_allocC2ERKS0_;2A.;__comp_ctor::(41,17):_ZN11stlpmtx_std11__new_allocC1ERKS0_;2A.;__base_ctor::(41,18)=#(41,11),(0,6),(41,14),(0,6);:_ZN11stlpmtx_std11__new_allocC2Ev;2A.;__comp_ctor::(41,18):_ZN11stlpmtx_std11__new_allocC1Ev;2A.;;",128,0,88,0
	.stabs	"__alloc_type:t(41,19)=(41,11)",128,0,220,0
	.stabs	"__sgi_alloc:t(41,20)=(41,19)",128,0,230,0
	.stabs	"__single_client_alloc:t(41,21)=(41,20)",128,0,234,0
	.stabs	"__multithreaded_alloc:t(41,22)=(41,20)",128,0,235,0
	.stabs	"allocator<void>:Tt(41,23)=s1operator=::(41,24)=#(41,23),(41,25)=&(41,23),(41,26)=*(41,23),(41,27)=&(41,28)=k(41,23),(0,6);:_ZN11stlpmtx_std9allocatorIvEaSERKS1_;2A.;__base_ctor::(41,29)=#(41,23),(0,6),(41,26),(41,27),(0,6);:_ZN11stlpmtx_std9allocatorIvEC2ERKS1_;2A.;__comp_ctor::(41,29):_ZN11stlpmtx_std9allocatorIvEC1ERKS1_;2A.;__base_ctor::(41,30)=#(41,23),(0,6),(41,26),(0,6);:_ZN11stlpmtx_std9allocatorIvEC2Ev;2A.;__comp_ctor::(41,30):_ZN11stlpmtx_std9allocatorIvEC1Ev;2A.;;",128,0,364,0
	.stabn	162,0,0,0
	.stabs	"/Applications/MoSync/include/newlib/stlport/stl/_bvector.h",130,0,0,0
	.stabs	"_Bit_reference:Tt(42,1)=s8_M_p:(42,2)=*(0,17),0,32;_M_mask:(0,17),32,32;__base_ctor::(42,3)=#(42,1),(0,6),(42,4)=*(42,1),(42,2),(0,17),(0,6);:_ZN11stlpmtx_std4priv14_Bit_referenceC2EPjj;2A.;__comp_ctor::(42,3):_ZN11stlpmtx_std4priv14_Bit_referenceC1EPjj;2A.;__base_ctor::(42,5)=#(42,1),(0,6),(42,4),(0,6);:_ZN11stlpmtx_std4priv14_Bit_referenceC2Ev;2A.;__comp_ctor::(42,5):_ZN11stlpmtx_std4priv14_Bit_referenceC1Ev;2A.;operator 1::(42,6)=#(42,1),(0,4),(42,7)=*(42,8)=k(42,1),(0,6);:_ZNK11stlpmtx_std4priv14_Bit_referencecvbEv;2B.;operator=::(42,9)=#(42,1),(42,10)=&(42,1),(42,4),(0,4),(0,6);:_ZN11stlpmtx_std4priv14_Bit_referenceaSEb;2A.(42,11)=#(42,1),(42,10),(42,4),(42,12)=&(42,8),(0,6);:_ZN11stlpmtx_std4priv14_Bit_referenceaSERKS1_;2A.;operator==::(42,13)=#(42,1),(0,4),(42,7),(42,12),(0,6);:_ZNK11stlpmtx_std4priv14_Bit_referenceeqERKS1_;2B.;operator<::(42,13):_ZNK11stlpmtx_std4priv14_Bit_referenceltERKS1_;2B.;operator|=::(42,9):_ZN11stlpmtx_std4priv14_Bit_referenceoREb;2A.;operator&=::(42,9):_ZN11stlpmtx_std4priv14_Bit_referenceaNEb;2A.;flip::(42,5):_ZN11stlpmtx_std4priv14_Bit_reference4flipEv;2A.;__base_ctor::(42,14)=#(42,1),(0,6),(42,4),(42,12),(0,6);:_ZN11stlpmtx_std4priv14_Bit_referenceC2ERKS1_;2A.;__comp_ctor::(42,14):_ZN11stlpmtx_std4priv14_Bit_referenceC1ERKS1_;2A.;;",128,0,42,0
	.stabs	"__type_traits<stlpmtx_std::priv::_Bit_reference>:Tt(42,15)=s1operator=::(42,16)=#(42,15),(42,17)=&(42,15),(42,18)=*(42,15),(42,19)=&(42,20)=k(42,15),(0,6);:_ZN11stlpmtx_std13__type_traitsINS_4priv14_Bit_referenceEEaSERKS3_;2A.;__base_ctor::(42,21)=#(42,15),(0,6),(42,18),(42,19),(0,6);:_ZN11stlpmtx_std13__type_traitsINS_4priv14_Bit_referenceEEC2ERKS3_;2A.;__comp_ctor::(42,21):_ZN11stlpmtx_std13__type_traitsINS_4priv14_Bit_referenceEEC1ERKS3_;2A.;__base_ctor::(42,22)=#(42,15),(0,6),(42,18),(0,6);:_ZN11stlpmtx_std13__type_traitsINS_4priv14_Bit_referenceEEC2Ev;2A.;__comp_ctor::(42,22):_ZN11stlpmtx_std13__type_traitsINS_4priv14_Bit_referenceEEC1Ev;2A.;;",128,0,93,0
	.stabs	"_Bit_iterator_base:Tt(42,23)=s8_M_p:(42,2),0,32;_M_offset:(0,17),32,32;_M_bump_up::(42,24)=#(42,23),(0,6),(42,25)=*(42,23),(0,6);:_ZN11stlpmtx_std4priv18_Bit_iterator_base10_M_bump_upEv;2A.;_M_bump_down::(42,24):_ZN11stlpmtx_std4priv18_Bit_iterator_base12_M_bump_downEv;2A.;__base_ctor::(42,24):_ZN11stlpmtx_std4priv18_Bit_iterator_baseC2Ev;2A.;__comp_ctor::(42,24):_ZN11stlpmtx_std4priv18_Bit_iterator_baseC1Ev;2A.;__base_ctor::(42,26)=#(42,23),(0,6),(42,25),(42,2),(0,17),(0,6);:_ZN11stlpmtx_std4priv18_Bit_iterator_baseC2EPjj;2A.;__comp_ctor::(42,26):_ZN11stlpmtx_std4priv18_Bit_iterator_baseC1EPjj;2A.;_M_advance::(42,27)=#(42,23),(0,6),(42,25),(12,3),(0,6);:_ZN11stlpmtx_std4priv18_Bit_iterator_base10_M_advanceEi;2A.;_M_subtract::(42,28)=#(42,23),(12,3),(42,29)=*(42,30)=k(42,23),(42,31)=&(42,30),(0,6);:_ZNK11stlpmtx_std4priv18_Bit_iterator_base11_M_subtractERKS1_;2B.;operator=::(42,32)=#(42,23),(42,33)=&(42,23),(42,25),(42,31),(0,6);:_ZN11stlpmtx_std4priv18_Bit_iterator_baseaSERKS1_;2A.;__base_ctor::(42,34)=#(42,23),(0,6),(42,25),(42,31),(0,6);:_ZN11stlpmtx_std4priv18_Bit_iterator_baseC2ERKS1_;2A.;__comp_ctor::(42,34):_ZN11stlpmtx_std4priv18_Bit_iterator_baseC1ERKS1_;2A.;;",128,0,103,0
	.stabs	"_Bit_const_iterator:t(42,35)=(42,36)=xs_Bit_iter<bool,const bool*>:",128,0,262,0
	.stabs	"_Bit_iterator:t(42,37)=(42,38)=xs_Bit_iter<stlpmtx_std::priv::_Bit_reference,stlpmtx_std::priv::_Bit_reference*>:",128,0,263,0
	.stabs	"_Bit_iter<stlpmtx_std::priv::_Bit_reference,stlpmtx_std::priv::_Bit_reference*>:Tt(42,38)=s8!1,020,(42,23);__base_ctor::(42,39)=#(42,38),(0,6),(42,40)=*(42,38),(42,2),(0,17),(0,6);:_ZN11stlpmtx_std4priv9_Bit_iterINS0_14_Bit_referenceEPS2_EC2EPjj;2A.;__comp_ctor::(42,39):_ZN11stlpmtx_std4priv9_Bit_iterINS0_14_Bit_referenceEPS2_EC1EPjj;2A.;__base_ctor::(42,41)=#(42,38),(0,6),(42,40),(0,6);:_ZN11stlpmtx_std4priv9_Bit_iterINS0_14_Bit_referenceEPS2_EC2Ev;2A.;__comp_ctor::(42,41):_ZN11stlpmtx_std4priv9_Bit_iterINS0_14_Bit_referenceEPS2_EC1Ev;2A.;__base_ctor::(42,42)=#(42,38),(0,6),(42,40),(42,43)=&(42,44)=k(42,38),(0,6);:_ZN11stlpmtx_std4priv9_Bit_iterINS0_14_Bit_referenceEPS2_EC2ERKS4_;2A.;__comp_ctor::(42,42):_ZN11stlpmtx_std4priv9_Bit_iterINS0_14_Bit_referenceEPS2_EC1ERKS4_;2A.;operator*::(42,45)=#(42,38),(42,1),(42,46)=*(42,44),(0,6);:_ZNK11stlpmtx_std4priv9_Bit_iterINS0_14_Bit_referenceEPS2_EdeEv;2B.;operator++::(42,47)=#(42,38),(42,48)=&(42,38),(42,40),(0,6);:_ZN11stlpmtx_std4priv9_Bit_iterINS0_14_Bit_referenceEPS2_EppEv;2A.(42,49)=#(42,38),(42,38),(42,40),(0,3),(0,6);:_ZN11stlpmtx_std4priv9_Bit_iterINS0_14_Bit_referenceEPS2_EppEi;2A.;operator--::(42,47):_ZN11stlpmtx_std4priv9_Bit_iterINS0_14_Bit_referenceEPS2_EmmEv;2A.(42,49):_ZN11stlpmtx_std4priv9_Bit_iterINS0_14_Bit_referenceEPS2_EmmEi;2A.;operator+=::(42,50)=#(42,38),(42,48),(42,40),(0,3),(0,6);:_ZN11stlpmtx_std4priv9_Bit_iterINS0_14_Bit_referenceEPS2_EpLEi;2A.;operator-=::(42,50):_ZN11stlpmtx_std4priv9_Bit_iterINS0_14_Bit_referenceEPS2_EmIEi;2A.;operator+::(42,51)=#(42,38),(42,38),(42,46),(0,3),(0,6);:_ZNK11stlpmtx_std4priv9_Bit_iterINS0_14_Bit_referenceEPS2_EplEi;2B.;operator-::(42,51):_ZNK11stlpmtx_std4priv9_Bit_iterINS0_14_Bit_referenceEPS2_EmiEi;2B.(42,52)=#(42,38),(12,3),(42,46),(42,43),(0,6);:_ZNK11stlpmtx_std4priv9_Bit_iterINS0_14_Bit_referenceEPS2_EmiERKS4_;2B.;operator[]::(42,53)=#(42,38),(42,1),(42,40),(0,3),(0,6);:_ZN11stlpmtx_std4priv9_Bit_iterINS0_14_Bit_referenceEPS2_EixEi;2A.;operator=::(42,54)=#(42,38),(42,48),(42,40),(42,43),(0,6);:_ZN11stlpmtx_std4priv9_Bit_iterINS0_14_Bit_referenceEPS2_EaSERKS4_;2A.;;",128,0,169,0
	.stabn	162,0,0,0
	.stabs	"bit_vector:t(40,1)=(40,2)=xsvector<bool,stlpmtx_std::allocator<bool> >:",128,0,741,0
	.stabn	162,0,0,0
	.stabn	162,0,0,0
	.stabs	"/Users/brzeszczot/workspace/mosync_engine2/Vertex.hpp",130,0,0,0
	.stabs	"Vertex:Tt(43,1)=s8x:(0,3),0,32;y:(0,3),32,32;__base_ctor::(43,2)=#(43,1),(0,6),(43,3)=*(43,1),(0,6);:_ZN6VertexC2Ev;2A.;__comp_ctor::(43,2):_ZN6VertexC1Ev;2A.;__base_ctor::(43,4)=#(43,1),(0,6),(43,3),(0,3),(0,3),(0,6);:_ZN6VertexC2Eii;2A.;__comp_ctor::(43,4):_ZN6VertexC1Eii;2A.;__base_ctor::(43,5)=#(43,1),(0,6),(43,3),(0,3),(0,6);:_ZN6VertexC2Ei;2A.;__comp_ctor::(43,5):_ZN6VertexC1Ei;2A.;operator+::(43,6)=#(43,1),(43,1),(43,3),(43,1),(0,6);:_ZN6VertexplES_;2A.;operator-::(43,6):_ZN6VertexmiES_;2A.;operator*::(43,6):_ZN6VertexmlES_;2A.;operator/::(43,6):_ZN6VertexdvES_;2A.;operator==::(43,7)=#(43,1),(0,4),(43,3),(43,1),(0,6);:_ZN6VertexeqES_;2A.;operator!=::(43,7):_ZN6VertexneES_;2A.;operator++::(43,8)=#(43,1),(43,1),(43,3),(0,3),(0,6);:_ZN6VertexppEi;2A.;operator--::(43,8):_ZN6VertexmmEi;2A.;operator=::(43,6):_ZN6VertexaSES_;2A.;operator+=::(43,6):_ZN6VertexpLES_;2A.;operator-=::(43,6):_ZN6VertexmIES_;2A.;operator*=::(43,6):_ZN6VertexmLES_;2A.;operator/=::(43,6):_ZN6VertexdVES_;2A.;__base_ctor::(43,9)=#(43,1),(0,6),(43,3),(43,10)=&(43,11)=k(43,1),(0,6);:_ZN6VertexC2ERKS_;2A.;__comp_ctor::(43,9):_ZN6VertexC1ERKS_;2A.;;",128,0,13,0
	.stabn	162,0,0,0
	.stabs	"/Users/brzeszczot/workspace/mosync_engine2/VertexF.hpp",130,0,0,0
	.stabs	"VertexF:Tt(44,1)=s8x:(0,9),0,32;y:(0,9),32,32;__base_ctor::(44,2)=#(44,1),(0,6),(44,3)=*(44,1),(0,6);:_ZN7VertexFC2Ev;2A.;__comp_ctor::(44,2):_ZN7VertexFC1Ev;2A.;__base_ctor::(44,4)=#(44,1),(0,6),(44,3),(0,9),(0,9),(0,6);:_ZN7VertexFC2Eff;2A.;__comp_ctor::(44,4):_ZN7VertexFC1Eff;2A.;__base_ctor::(44,5)=#(44,1),(0,6),(44,3),(0,9),(0,6);:_ZN7VertexFC2Ef;2A.;__comp_ctor::(44,5):_ZN7VertexFC1Ef;2A.;operator+::(44,6)=#(44,1),(44,1),(44,3),(44,1),(0,6);:_ZN7VertexFplES_;2A.;operator-::(44,6):_ZN7VertexFmiES_;2A.;operator*::(44,6):_ZN7VertexFmlES_;2A.;operator/::(44,6):_ZN7VertexFdvES_;2A.;operator==::(44,7)=#(44,1),(0,4),(44,3),(44,1),(0,6);:_ZN7VertexFeqES_;2A.;operator!=::(44,7):_ZN7VertexFneES_;2A.;operator++::(44,8)=#(44,1),(44,1),(44,3),(0,3),(0,6);:_ZN7VertexFppEi;2A.;operator--::(44,8):_ZN7VertexFmmEi;2A.;operator=::(44,6):_ZN7VertexFaSES_;2A.;operator+=::(44,6):_ZN7VertexFpLES_;2A.;operator-=::(44,6):_ZN7VertexFmIES_;2A.;operator*=::(44,6):_ZN7VertexFmLES_;2A.;operator/=::(44,6):_ZN7VertexFdVES_;2A.;__base_ctor::(44,9)=#(44,1),(0,6),(44,3),(44,10)=&(44,11)=k(44,1),(0,6);:_ZN7VertexFC2ERKS_;2A.;__comp_ctor::(44,9):_ZN7VertexFC1ERKS_;2A.;;",128,0,13,0
	.stabn	162,0,0,0
	.stabn	162,0,0,0
	.stabs	"__stlport_class<stlpmtx_std::allocator<Vertex> >:Tt(0,25)=s1operator=::(0,26)=#(0,25),(0,27)=&(0,25),(0,28)=*(0,25),(0,29)=&(0,30)=k(0,25),(0,6);:_ZN11stlpmtx_std15__stlport_classINS_9allocatorI6VertexEEEaSERKS4_;2A.;__base_ctor::(0,31)=#(0,25),(0,6),(0,28),(0,29),(0,6);:_ZN11stlpmtx_std15__stlport_classINS_9allocatorI6VertexEEEC2ERKS4_;2A.;__comp_ctor::(0,31):_ZN11stlpmtx_std15__stlport_classINS_9allocatorI6VertexEEEC1ERKS4_;2A.;__base_ctor::(0,32)=#(0,25),(0,6),(0,28),(0,6);:_ZN11stlpmtx_std15__stlport_classINS_9allocatorI6VertexEEEC2Ev;2A.;__comp_ctor::(0,32):_ZN11stlpmtx_std15__stlport_classINS_9allocatorI6VertexEEEC1Ev;2A.;;",128,0,572,0
	.stabs	"allocator<Vertex>:Tt(0,33)=s1!1,020,(0,25);__base_ctor::(0,34)=#(0,33),(0,6),(0,35)=*(0,33),(0,6);:_ZN11stlpmtx_std9allocatorI6VertexEC2Ev;2A.;__comp_ctor::(0,34):_ZN11stlpmtx_std9allocatorI6VertexEC1Ev;2A.;__base_ctor::(0,36)=#(0,33),(0,6),(0,35),(0,37)=&(0,38)=k(0,33),(0,6);:_ZN11stlpmtx_std9allocatorI6VertexEC2ERKS2_;2A.;__comp_ctor::(0,36):_ZN11stlpmtx_std9allocatorI6VertexEC1ERKS2_;2A.;__base_ctor::(0,39)=#(0,33),(0,6),(0,35),(0,40)=xs__move_source<stlpmtx_std::allocator<Vertex> >:,(0,6);:_ZN11stlpmtx_std9allocatorI6VertexEC2ENS_13__move_sourceIS2_EE;2A.;__comp_ctor::(0,39):_ZN11stlpmtx_std9allocatorI6VertexEC1ENS_13__move_sourceIS2_EE;2A.;__base_dtor::(0,34):_ZN11stlpmtx_std9allocatorI6VertexED2Ev;2A.;__comp_dtor::(0,34):_ZN11stlpmtx_std9allocatorI6VertexED1Ev;2A.;address::(0,41)=#(0,33),(43,3),(0,42)=*(0,38),(0,43)=&(43,1),(0,6);:_ZNK11stlpmtx_std9allocatorI6VertexE7addressERS1_;2B.(0,44)=#(0,33),(0,45)=*(43,11),(0,42),(43,10),(0,6);:_ZNK11stlpmtx_std9allocatorI6VertexE7addressERKS1_;2B.;allocate::(0,46)=#(0,33),(43,3),(0,35),(0,16),(29,92),(0,6);:_ZN11stlpmtx_std9allocatorI6VertexE8allocateEmPKv;2A.;deallocate::(0,47)=#(0,33),(0,6),(0,35),(43,3),(0,16),(0,6);:_ZN11stlpmtx_std9allocatorI6VertexE10deallocateEPS1_m;2A.(0,48)=#(0,33),(0,6),(0,42),(43,3),(0,6);:_ZNK11stlpmtx_std9allocatorI6VertexE10deallocateEPS1_;2B.;max_size::(0,49)=#(0,33),(12,2),(0,42),(0,6);:_ZNK11stlpmtx_std9allocatorI6VertexE8max_sizeEv;2B.;construct::(0,50)=#(0,33),(0,6),(0,35),(43,3),(43,10),(0,6);:_ZN11stlpmtx_std9allocatorI6VertexE9constructEPS1_RKS1_;2A.;destroy::(0,51)=#(0,33),(0,6),(0,35),(43,3),(0,6);:_ZN11stlpmtx_std9allocatorI6VertexE7destroyEPS1_;2A.;_M_allocate::(0,52)=#(0,33),(43,3),(0,35),(0,16),(0,53)=&(12,2),(0,6);:_ZN11stlpmtx_std9allocatorI6VertexE11_M_allocateEmRm;2A.;operator=::(0,54)=#(0,33),(0,55)=&(0,33),(0,35),(0,37),(0,6);:_ZN11stlpmtx_std9allocatorI6VertexEaSERKS2_;2A.;;",128,0,275,0
	.stabs	"_STLP_alloc_proxy<Vertex*,Vertex,stlpmtx_std::allocator<Vertex> >:Tt(0,56)=s4!1,020,(0,33);_M_data:(43,3),0,32;__base_ctor::(0,57)=#(0,56),(0,6),(0,58)=*(0,56),(0,37),(43,3),(0,6);:_ZN11stlpmtx_std4priv17_STLP_alloc_proxyIP6VertexS2_NS_9allocatorIS2_EEEC2ERKS5_S3_;2A.;__comp_ctor::(0,57):_ZN11stlpmtx_std4priv17_STLP_alloc_proxyIP6VertexS2_NS_9allocatorIS2_EEEC1ERKS5_S3_;2A.;__base_ctor::(0,59)=#(0,56),(0,6),(0,58),(0,60)=xs__move_source<stlpmtx_std::priv::_STLP_alloc_proxy<Vertex*, Vertex, stlpmtx_std::allocator<Vertex> > >:,(0,6);:_ZN11stlpmtx_std4priv17_STLP_alloc_proxyIP6VertexS2_NS_9allocatorIS2_EEEC2ENS_13__move_sourceIS6_EE;2A.;__comp_ctor::(0,59):_ZN11stlpmtx_std4priv17_STLP_alloc_proxyIP6VertexS2_NS_9allocatorIS2_EEEC1ENS_13__move_sourceIS6_EE;2A.;_M_base::(0,61)=#(0,56),(0,55),(0,58),(0,6);:_ZN11stlpmtx_std4priv17_STLP_alloc_proxyIP6VertexS2_NS_9allocatorIS2_EEE7_M_baseEv;2A.;_M_swap_alloc::(0,62)=#(0,56),(0,6),(0,58),(0,63)=&(0,56),(29,5),(0,6);:_ZN11stlpmtx_std4priv17_STLP_alloc_proxyIP6VertexS2_NS_9allocatorIS2_EEE13_M_swap_allocERS6_RKNS_11__true_typeE;0A.(0,64)=#(0,56),(0,6),(0,58),(0,63),(29,13),(0,6);:_ZN11stlpmtx_std4priv17_STLP_alloc_proxyIP6VertexS2_NS_9allocatorIS2_EEE13_M_swap_allocERS6_RKNS_12__false_typeE;0A.(0,65)=#(0,56),(0,6),(0,58),(0,63),(0,6);:_ZN11stlpmtx_std4priv17_STLP_alloc_proxyIP6VertexS2_NS_9allocatorIS2_EEE13_M_swap_allocERS6_;2A.;swap::(0,65):_ZN11stlpmtx_std4priv17_STLP_alloc_proxyIP6VertexS2_NS_9allocatorIS2_EEE4swapERS6_;2A.;allocate::(0,66)=#(0,56),(43,3),(0,58),(0,16),(0,53),(0,6);:_ZN11stlpmtx_std4priv17_STLP_alloc_proxyIP6VertexS2_NS_9allocatorIS2_EEE8allocateEmRm;2A.(0,67)=#(0,56),(43,3),(0,58),(0,16),(0,6);:_ZN11stlpmtx_std4priv17_STLP_alloc_proxyIP6VertexS2_NS_9allocatorIS2_EEE8allocateEm;2A.(0,68)=#(0,56),(43,3),(0,58),(0,16),(0,53),(29,5),(0,6);:_ZN11stlpmtx_std4priv17_STLP_alloc_proxyIP6VertexS2_NS_9allocatorIS2_EEE8allocateEmRmRKNS_11__true_typeE;0A.(0,69)=#(0,56),(43,3),(0,58),(0,16),(0,53),(29,13),(0,6);:_ZN11stlpmtx_std4priv17_STLP_alloc_proxyIP6VertexS2_NS_9allocatorIS2_EEE8allocateEmRmRKNS_12__false_typeE;0A.;operator=::(0,70)=#(0,56),(0,63),(0,58),(0,71)=&(0,72)=k(0,56),(0,6);:_ZN11stlpmtx_std4priv17_STLP_alloc_proxyIP6VertexS2_NS_9allocatorIS2_EEEaSERKS6_;2A.;__base_ctor::(0,73)=#(0,56),(0,6),(0,58),(0,71),(0,6);:_ZN11stlpmtx_std4priv17_STLP_alloc_proxyIP6VertexS2_NS_9allocatorIS2_EEEC2ERKS6_;2A.;__comp_ctor::(0,73):_ZN11stlpmtx_std4priv17_STLP_alloc_proxyIP6VertexS2_NS_9allocatorIS2_EEEC1ERKS6_;2A.;__base_dtor::(0,74)=#(0,56),(0,6),(0,58),(0,6);:_ZN11stlpmtx_std4priv17_STLP_alloc_proxyIP6VertexS2_NS_9allocatorIS2_EEED2Ev;2A.;__comp_dtor::(0,74):_ZN11stlpmtx_std4priv17_STLP_alloc_proxyIP6VertexS2_NS_9allocatorIS2_EEED1Ev;2A.;;",128,0,472,0
	.stabs	"_Vector_base<Vertex,stlpmtx_std::allocator<Vertex> >:Tt(0,75)=s12_M_start:/1(43,3),0,32;_M_finish:/1(43,3),32,32;_M_end_of_storage:/1(0,56),64,32;__base_ctor::(0,76)=#(0,75),(0,6),(0,77)=*(0,75),(0,37),(0,6);:_ZN11stlpmtx_std4priv12_Vector_baseI6VertexNS_9allocatorIS2_EEEC2ERKS4_;2A.;__comp_ctor::(0,76):_ZN11stlpmtx_std4priv12_Vector_baseI6VertexNS_9allocatorIS2_EEEC1ERKS4_;2A.;__base_ctor::(0,78)=#(0,75),(0,6),(0,77),(0,16),(0,37),(0,6);:_ZN11stlpmtx_std4priv12_Vector_baseI6VertexNS_9allocatorIS2_EEEC2EmRKS4_;2A.;__comp_ctor::(0,78):_ZN11stlpmtx_std4priv12_Vector_baseI6VertexNS_9allocatorIS2_EEEC1EmRKS4_;2A.;__base_ctor::(0,79)=#(0,75),(0,6),(0,77),(0,80)=xs__move_source<stlpmtx_std::priv::_Vector_base<Vertex, stlpmtx_std::allocator<Vertex> > >:,(0,6);:_ZN11stlpmtx_std4priv12_Vector_baseI6VertexNS_9allocatorIS2_EEEC2ENS_13__move_sourceIS5_EE;2A.;__comp_ctor::(0,79):_ZN11stlpmtx_std4priv12_Vector_baseI6VertexNS_9allocatorIS2_EEEC1ENS_13__move_sourceIS5_EE;2A.;__base_dtor::(0,81)=#(0,75),(0,6),(0,77),(0,6);:_ZN11stlpmtx_std4priv12_Vector_baseI6VertexNS_9allocatorIS2_EEED2Ev;2A.;__comp_dtor::(0,81):_ZN11stlpmtx_std4priv12_Vector_baseI6VertexNS_9allocatorIS2_EEED1Ev;2A.;_M_throw_length_error::(0,82)=#(0,75),(0,6),(0,83)=*(0,84)=k(0,75),(0,6);:_ZNK11stlpmtx_std4priv12_Vector_baseI6VertexNS_9allocatorIS2_EEE21_M_throw_length_errorEv;1B.;_M_throw_out_of_range::(0,82):_ZNK11stlpmtx_std4priv12_Vector_baseI6VertexNS_9allocatorIS2_EEE21_M_throw_out_of_rangeEv;1B.;operator=::(0,85)=#(0,75),(0,86)=&(0,75),(0,77),(0,87)=&(0,84),(0,6);:_ZN11stlpmtx_std4priv12_Vector_baseI6VertexNS_9allocatorIS2_EEEaSERKS5_;2A.;__base_ctor::(0,88)=#(0,75),(0,6),(0,77),(0,87),(0,6);:_ZN11stlpmtx_std4priv12_Vector_baseI6VertexNS_9allocatorIS2_EEEC2ERKS5_;2A.;__comp_ctor::(0,88):_ZN11stlpmtx_std4priv12_Vector_baseI6VertexNS_9allocatorIS2_EEEC1ERKS5_;2A.;;",128,0,58,0
	.stabs	"vector<Vertex,stlpmtx_std::allocator<Vertex> >:Tt(0,89)=s12!1,010,(0,75);get_allocator::(0,90)=#(0,89),(0,33),(0,91)=*(0,92)=k(0,89),(0,6);:_ZNK11stlpmtx_std6vectorI6VertexNS_9allocatorIS1_EEE13get_allocatorEv;2B.;_M_insert_overflow_aux::(0,93)=#(0,89),(0,6),(0,94)=*(0,89),(43,3),(43,10),(29,13),(0,16),(0,4),(0,6);:_ZN11stlpmtx_std6vectorI6VertexNS_9allocatorIS1_EEE22_M_insert_overflow_auxEPS1_RKS1_RKNS_12__false_typeEmb;0A.(0,95)=#(0,89),(0,6),(0,94),(43,3),(43,10),(29,5),(0,16),(0,4),(0,6);:_ZN11stlpmtx_std6vectorI6VertexNS_9allocatorIS1_EEE22_M_insert_overflow_auxEPS1_RKS1_RKNS_11__true_typeEmb;0A.;_M_insert_overflow::(0,96)=#(0,89),(0,6),(0,94),(43,3),(43,10),(29,13),(0,16),(0,4),(0,6);:_ZN11stlpmtx_std6vectorI6VertexNS_9allocatorIS1_EEE18_M_insert_overflowEPS1_RKS1_RKNS_12__false_typeEmb;0A.(0,97)=#(0,89),(0,6),(0,94),(43,3),(43,10),(29,5),(0,16),(0,4),(0,6);:_ZN11stlpmtx_std6vectorI6VertexNS_9allocatorIS1_EEE18_M_insert_overflowEPS1_RKS1_RKNS_11__true_typeEmb;0A.;_M_range_check::(0,98)=#(0,89),(0,6),(0,91),(0,16),(0,6);:_ZNK11stlpmtx_std6vectorI6VertexNS_9allocatorIS1_EEE14_M_range_checkEm;0B.;_M_compute_next_size::(0,99)=#(0,89),(12,2),(0,94),(0,16),(0,6);:_ZN11stlpmtx_std6vectorI6VertexNS_9allocatorIS1_EEE20_M_compute_next_sizeEm;0A.;begin::(0,100)=#(0,89),(43,3),(0,94),(0,6);:_ZN11stlpmtx_std6vectorI6VertexNS_9allocatorIS1_EEE5beginEv;2A.(0,101)=#(0,89),(0,45),(0,91),(0,6);:_ZNK11stlpmtx_std6vectorI6VertexNS_9allocatorIS1_EEE5beginEv;2B.;end::(0,100):_ZN11stlpmtx_std6vectorI6VertexNS_9allocatorIS1_EEE3endEv;2A.(0,101):_ZNK11stlpmtx_std6vectorI6VertexNS_9allocatorIS1_EEE3endEv;2B.;rbegin::(0,102)=#(0,89),(0,103)=xsreverse_iterator<Vertex*>:,(0,94),(0,6);:_ZN11stlpmtx_std6vectorI6VertexNS_9allocatorIS1_EEE6rbeginEv;2A.(0,104)=#(0,89),(0,105)=xsreverse_iterator<const Vertex*>:,(0,91),(0,6);:_ZNK11stlpmtx_std6vectorI6VertexNS_9allocatorIS1_EEE6rbeginEv;2B.;rend::(0,102):_ZN11stlpmtx_std6vectorI6VertexNS_9allocatorIS1_EEE4rendEv;2A.(0,104):_ZNK11stlpmtx_std6vectorI6VertexNS_9allocatorIS1_EEE4rendEv;2B.;size::(0,106)=#(0,89),(12,2),(0,91),(0,6);:_ZNK11stlpmtx_std6vectorI6VertexNS_9allocatorIS1_EEE4sizeEv;2B.;max_size::(0,106):_ZNK11stlpmtx_std6vectorI6VertexNS_9allocatorIS1_EEE8max_sizeEv;2B.;capacity::(0,106):_ZNK11stlpmtx_std6vectorI6VertexNS_9allocatorIS1_EEE8capacityEv;2B.;empty::(0,107)=#(0,89),(0,4),(0,91),(0,6);:_ZNK11stlpmtx_std6vectorI6VertexNS_9allocatorIS1_EEE5emptyEv;2B.;operator[]::(0,108)=#(0,89),(0,43),(0,94),(0,16),(0,6);:_ZN11stlpmtx_std6vectorI6VertexNS_9allocatorIS1_EEEixEm;2A.(0,109)=#(0,89),(43,10),(0,91),(0,16),(0,6);:_ZNK11stlpmtx_std6vectorI6VertexNS_9allocatorIS1_EEEixEm;2B.;front::(0,110)=#(0,89),(0,43),(0,94),(0,6);:_ZN11stlpmtx_std6vectorI6VertexNS_9allocatorIS1_EEE5frontEv;2A.(0,111)=#(0,89),(43,10),(0,91),(0,6);:_ZNK11stlpmtx_std6vectorI6VertexNS_9allocatorIS1_EEE5frontEv;2B.;back::(0,110):_ZN11stlpmtx_std6vectorI6VertexNS_9allocatorIS1_EEE4backEv;2A.(0,111):_ZNK11stlpmtx_std6vectorI6VertexNS_9allocatorIS1_EEE4backEv;2B.;at::(0,108):_ZN11stlpmtx_std6vectorI6VertexNS_9allocatorIS1_EEE2atEm;2A.(0,109):_ZNK11stlpmtx_std6vectorI6VertexNS_9allocatorIS1_EEE2atEm;2B.;__base_ctor::(0,112)=#(0,89),(0,6),(0,94),(0,37),(0,6);:_ZN11stlpmtx_std6vectorI6VertexNS_9allocatorIS1_EEEC2ERKS3_;2A.;__comp_ctor::(0,112):_ZN11stlpmtx_std6vectorI6VertexNS_9allocatorIS1_EEEC1ERKS3_;2A.;_M_initialize::(0,113)=#(0,89),(0,6),(0,94),(0,16),(43,10),(0,6);:_ZN11stlpmtx_std6vectorI6VertexNS_9allocatorIS1_EEE13_M_initializeEmRKS1_;0A.;__base_ctor::(0,114)=#(0,89),(0,6),(0,94),(0,16),(0,6);:_ZN11stlpmtx_std6vectorI6VertexNS_9allocatorIS1_EEEC2Em;2A.;__comp_ctor::(0,114):_ZN11stlpmtx_std6vectorI6VertexNS_9allocatorIS1_EEEC1Em;2A.;__base_ctor::(0,115)=#(0,89),(0,6),(0,94),(0,16),(43,10),(0,37),(0,6);:_ZN11stlpmtx_std6vectorI6VertexNS_9allocatorIS1_EEEC2EmRKS1_RKS3_;2A.;__comp_ctor::(0,115):_ZN11stlpmtx_std6vectorI6VertexNS_9allocatorIS1_EEEC1EmRKS1_RKS3_;2A.;__base_ctor::(0,116)=#(0,89),(0,6),(0,94),(0,117)=&(0,92),(0,6);:_ZN11stlpmtx_std6vectorI6VertexNS_9allocatorIS1_EEEC2ERKS4_;2A.;__comp_ctor::(0,116):_ZN11stlpmtx_std6vectorI6VertexNS_9allocatorIS1_EEEC1ERKS4_;2A.;__base_ctor::(0,118)=#(0,89),(0,6),(0,94),(0,119)=xs__move_source<stlpmtx_std::vector<Vertex, stlpmtx_std::allocator<Vertex> > >:,(0,6);:_ZN11stlpmtx_std6vectorI6VertexNS_9allocatorIS1_EEEC2ENS_13__move_sourceIS4_EE;2A.;__comp_ctor::(0,118):_ZN11stlpmtx_std6vectorI6VertexNS_9allocatorIS1_EEEC1ENS_13__move_sourceIS4_EE;2A.;__base_dtor::(0,120)=#(0,89),(0,6),(0,94),(0,6);:_ZN11stlpmtx_std6vectorI6VertexNS_9allocatorIS1_EEED2Ev;2A.;__comp_dtor::(0,120):_ZN11stlpmtx_std6vectorI6VertexNS_9allocatorIS1_EEED1Ev;2A.;operator=::(0,121)=#(0,89),(0,122)=&(0,89),(0,94),(0,117),(0,6);:_ZN11stlpmtx_std6vectorI6VertexNS_9allocatorIS1_EEEaSERKS4_;2A.;reserve::(0,114):_ZN11stlpmtx_std6vectorI6VertexNS_9allocatorIS1_EEE7reserveEm;2A.;assign::(0,123)=#(0,89),(0,6),(0,94),(0,16),(43,10),(0,6);:_ZN11stlpmtx_std6vectorI6VertexNS_9allocatorIS1_EEE6assignEmRKS1_;2A.;_M_fill_assign::(0,123):_ZN11stlpmtx_std6vectorI6VertexNS_9allocatorIS1_EEE14_M_fill_assignEmRKS1_;2A.;push_back::(0,124)=#(0,89),(0,6),(0,94),(43,10),(0,6);:_ZN11stlpmtx_std6vectorI6VertexNS_9allocatorIS1_EEE9push_backERKS1_;2A.;insert::(0,125)=#(0,89),(43,3),(0,94),(43,3),(43,10),(0,6);:_ZN11stlpmtx_std6vectorI6VertexNS_9allocatorIS1_EEE6insertEPS1_RKS1_;2A.;swap::(0,126)=#(0,89),(0,6),(0,94),(0,122),(0,6);:_ZN11stlpmtx_std6vectorI6VertexNS_9allocatorIS1_EEE4swapERS4_;2A.;_M_fill_insert_aux::(0,127)=#(0,89),(0,6),(0,94),(43,3),(0,16),(43,10),(29,5),(0,6);:_ZN11stlpmtx_std6vectorI6VertexNS_9allocatorIS1_EEE18_M_fill_insert_auxEPS1_mRKS1_RKNS_11__true_typeE;0A.(0,128)=#(0,89),(0,6),(0,94),(43,3),(0,16),(43,10),(29,13),(0,6);:_ZN11stlpmtx_std6vectorI6VertexNS_9allocatorIS1_EEE18_M_fill_insert_auxEPS1_mRKS1_RKNS_12__false_typeE;0A.;_M_fill_insert::(0,129)=#(0,89),(0,6),(0,94),(43,3),(0,16),(43,10),(0,6);:_ZN11stlpmtx_std6vectorI6VertexNS_9allocatorIS1_EEE14_M_fill_insertEPS1_mRKS1_;0A.;_M_is_inside::(0,130)=#(0,89),(0,4),(0,91),(43,10),(0,6);:_ZNK11stlpmtx_std6vectorI6VertexNS_9allocatorIS1_EEE12_M_is_insideERKS1_;0B.;insert::(0,129):_ZN11stlpmtx_std6vectorI6VertexNS_9allocatorIS1_EEE6insertEPS1_mRKS1_;2A.;pop_back::(0,120):_ZN11stlpmtx_std6vectorI6VertexNS_9allocatorIS1_EEE8pop_backEv;2A.;_M_erase::(0,131)=#(0,89),(43,3),(0,94),(43,3),(29,5),(0,6);:_ZN11stlpmtx_std6vectorI6VertexNS_9allocatorIS1_EEE8_M_eraseEPS1_RKNS_11__true_typeE;0A.(0,132)=#(0,89),(43,3),(0,94),(43,3),(29,13),(0,6);:_ZN11stlpmtx_std6vectorI6VertexNS_9allocatorIS1_EEE8_M_eraseEPS1_RKNS_12__false_typeE;0A.(0,133)=#(0,89),(43,3),(0,94),(43,3),(43,3),(29,5),(0,6);:_ZN11stlpmtx_std6vectorI6VertexNS_9allocatorIS1_EEE8_M_eraseEPS1_S5_RKNS_11__true_typeE;0A.(0,134)=#(0,89),(43,3),(0,94),(43,3),(43,3),(29,13),(0,6);:_ZN11stlpmtx_std6vectorI6VertexNS_9allocatorIS1_EEE8_M_eraseEPS1_S5_RKNS_12__false_typeE;0A.;erase::(0,135)=#(0,89),(43,3),(0,94),(43,3),(0,6);:_ZN11stlpmtx_std6vectorI6VertexNS_9allocatorIS1_EEE5eraseEPS1_;2A.(0,136)=#(0,89),(43,3),(0,94),(43,3),(43,3),(0,6);:_ZN11stlpmtx_std6vectorI6VertexNS_9allocatorIS1_EEE5eraseEPS1_S5_;2A.;resize::(0,137)=#(0,89),(0,6),(0,94),(0,16),(43,10),(0,6);:_ZN11stlpmtx_std6vectorI6VertexNS_9allocatorIS1_EEE6resizeEmRKS1_;2A.;clear::(0,120):_ZN11stlpmtx_std6vectorI6VertexNS_9allocatorIS1_EEE5clearEv;2A.;_M_clear::(0,120):_ZN11stlpmtx_std6vectorI6VertexNS_9allocatorIS1_EEE8_M_clearEv;0A.;_M_clear_after_move::(0,120):_ZN11stlpmtx_std6vectorI6VertexNS_9allocatorIS1_EEE19_M_clear_after_moveEv;0A.;_M_set::(0,138)=#(0,89),(0,6),(0,94),(43,3),(43,3),(43,3),(0,6);:_ZN11stlpmtx_std6vectorI6VertexNS_9allocatorIS1_EEE6_M_setEPS1_S5_S5_;0A.;;",128,0,113,0
	.stabs	"__stlport_class<stlpmtx_std::allocator<VertexF> >:Tt(0,139)=s1operator=::(0,140)=#(0,139),(0,141)=&(0,139),(0,142)=*(0,139),(0,143)=&(0,144)=k(0,139),(0,6);:_ZN11stlpmtx_std15__stlport_classINS_9allocatorI7VertexFEEEaSERKS4_;2A.;__base_ctor::(0,145)=#(0,139),(0,6),(0,142),(0,143),(0,6);:_ZN11stlpmtx_std15__stlport_classINS_9allocatorI7VertexFEEEC2ERKS4_;2A.;__comp_ctor::(0,145):_ZN11stlpmtx_std15__stlport_classINS_9allocatorI7VertexFEEEC1ERKS4_;2A.;__base_ctor::(0,146)=#(0,139),(0,6),(0,142),(0,6);:_ZN11stlpmtx_std15__stlport_classINS_9allocatorI7VertexFEEEC2Ev;2A.;__comp_ctor::(0,146):_ZN11stlpmtx_std15__stlport_classINS_9allocatorI7VertexFEEEC1Ev;2A.;;",128,0,572,0
	.stabs	"allocator<VertexF>:Tt(0,147)=s1!1,020,(0,139);__base_ctor::(0,148)=#(0,147),(0,6),(0,149)=*(0,147),(0,6);:_ZN11stlpmtx_std9allocatorI7VertexFEC2Ev;2A.;__comp_ctor::(0,148):_ZN11stlpmtx_std9allocatorI7VertexFEC1Ev;2A.;__base_ctor::(0,150)=#(0,147),(0,6),(0,149),(0,151)=&(0,152)=k(0,147),(0,6);:_ZN11stlpmtx_std9allocatorI7VertexFEC2ERKS2_;2A.;__comp_ctor::(0,150):_ZN11stlpmtx_std9allocatorI7VertexFEC1ERKS2_;2A.;__base_ctor::(0,153)=#(0,147),(0,6),(0,149),(0,154)=xs__move_source<stlpmtx_std::allocator<VertexF> >:,(0,6);:_ZN11stlpmtx_std9allocatorI7VertexFEC2ENS_13__move_sourceIS2_EE;2A.;__comp_ctor::(0,153):_ZN11stlpmtx_std9allocatorI7VertexFEC1ENS_13__move_sourceIS2_EE;2A.;__base_dtor::(0,148):_ZN11stlpmtx_std9allocatorI7VertexFED2Ev;2A.;__comp_dtor::(0,148):_ZN11stlpmtx_std9allocatorI7VertexFED1Ev;2A.;address::(0,155)=#(0,147),(44,3),(0,156)=*(0,152),(0,157)=&(44,1),(0,6);:_ZNK11stlpmtx_std9allocatorI7VertexFE7addressERS1_;2B.(0,158)=#(0,147),(0,159)=*(44,11),(0,156),(44,10),(0,6);:_ZNK11stlpmtx_std9allocatorI7VertexFE7addressERKS1_;2B.;allocate::(0,160)=#(0,147),(44,3),(0,149),(0,16),(29,92),(0,6);:_ZN11stlpmtx_std9allocatorI7VertexFE8allocateEmPKv;2A.;deallocate::(0,161)=#(0,147),(0,6),(0,149),(44,3),(0,16),(0,6);:_ZN11stlpmtx_std9allocatorI7VertexFE10deallocateEPS1_m;2A.(0,162)=#(0,147),(0,6),(0,156),(44,3),(0,6);:_ZNK11stlpmtx_std9allocatorI7VertexFE10deallocateEPS1_;2B.;max_size::(0,163)=#(0,147),(12,2),(0,156),(0,6);:_ZNK11stlpmtx_std9allocatorI7VertexFE8max_sizeEv;2B.;construct::(0,164)=#(0,147),(0,6),(0,149),(44,3),(44,10),(0,6);:_ZN11stlpmtx_std9allocatorI7VertexFE9constructEPS1_RKS1_;2A.;destroy::(0,165)=#(0,147),(0,6),(0,149),(44,3),(0,6);:_ZN11stlpmtx_std9allocatorI7VertexFE7destroyEPS1_;2A.;_M_allocate::(0,166)=#(0,147),(44,3),(0,149),(0,16),(0,53),(0,6);:_ZN11stlpmtx_std9allocatorI7VertexFE11_M_allocateEmRm;2A.;operator=::(0,167)=#(0,147),(0,168)=&(0,147),(0,149),(0,151),(0,6);:_ZN11stlpmtx_std9allocatorI7VertexFEaSERKS2_;2A.;;",128,0,275,0
	.stabs	"_STLP_alloc_proxy<VertexF*,VertexF,stlpmtx_std::allocator<VertexF> >:Tt(0,169)=s4!1,020,(0,147);_M_data:(44,3),0,32;__base_ctor::(0,170)=#(0,169),(0,6),(0,171)=*(0,169),(0,151),(44,3),(0,6);:_ZN11stlpmtx_std4priv17_STLP_alloc_proxyIP7VertexFS2_NS_9allocatorIS2_EEEC2ERKS5_S3_;2A.;__comp_ctor::(0,170):_ZN11stlpmtx_std4priv17_STLP_alloc_proxyIP7VertexFS2_NS_9allocatorIS2_EEEC1ERKS5_S3_;2A.;__base_ctor::(0,172)=#(0,169),(0,6),(0,171),(0,173)=xs__move_source<stlpmtx_std::priv::_STLP_alloc_proxy<VertexF*, VertexF, stlpmtx_std::allocator<VertexF> > >:,(0,6);:_ZN11stlpmtx_std4priv17_STLP_alloc_proxyIP7VertexFS2_NS_9allocatorIS2_EEEC2ENS_13__move_sourceIS6_EE;2A.;__comp_ctor::(0,172):_ZN11stlpmtx_std4priv17_STLP_alloc_proxyIP7VertexFS2_NS_9allocatorIS2_EEEC1ENS_13__move_sourceIS6_EE;2A.;_M_base::(0,174)=#(0,169),(0,168),(0,171),(0,6);:_ZN11stlpmtx_std4priv17_STLP_alloc_proxyIP7VertexFS2_NS_9allocatorIS2_EEE7_M_baseEv;2A.;_M_swap_alloc::(0,175)=#(0,169),(0,6),(0,171),(0,176)=&(0,169),(29,5),(0,6);:_ZN11stlpmtx_std4priv17_STLP_alloc_proxyIP7VertexFS2_NS_9allocatorIS2_EEE13_M_swap_allocERS6_RKNS_11__true_typeE;0A.(0,177)=#(0,169),(0,6),(0,171),(0,176),(29,13),(0,6);:_ZN11stlpmtx_std4priv17_STLP_alloc_proxyIP7VertexFS2_NS_9allocatorIS2_EEE13_M_swap_allocERS6_RKNS_12__false_typeE;0A.(0,178)=#(0,169),(0,6),(0,171),(0,176),(0,6);:_ZN11stlpmtx_std4priv17_STLP_alloc_proxyIP7VertexFS2_NS_9allocatorIS2_EEE13_M_swap_allocERS6_;2A.;swap::(0,178):_ZN11stlpmtx_std4priv17_STLP_alloc_proxyIP7VertexFS2_NS_9allocatorIS2_EEE4swapERS6_;2A.;allocate::(0,179)=#(0,169),(44,3),(0,171),(0,16),(0,53),(0,6);:_ZN11stlpmtx_std4priv17_STLP_alloc_proxyIP7VertexFS2_NS_9allocatorIS2_EEE8allocateEmRm;2A.(0,180)=#(0,169),(44,3),(0,171),(0,16),(0,6);:_ZN11stlpmtx_std4priv17_STLP_alloc_proxyIP7VertexFS2_NS_9allocatorIS2_EEE8allocateEm;2A.(0,181)=#(0,169),(44,3),(0,171),(0,16),(0,53),(29,5),(0,6);:_ZN11stlpmtx_std4priv17_STLP_alloc_proxyIP7VertexFS2_NS_9allocatorIS2_EEE8allocateEmRmRKNS_11__true_typeE;0A.(0,182)=#(0,169),(44,3),(0,171),(0,16),(0,53),(29,13),(0,6);:_ZN11stlpmtx_std4priv17_STLP_alloc_proxyIP7VertexFS2_NS_9allocatorIS2_EEE8allocateEmRmRKNS_12__false_typeE;0A.;operator=::(0,183)=#(0,169),(0,176),(0,171),(0,184)=&(0,185)=k(0,169),(0,6);:_ZN11stlpmtx_std4priv17_STLP_alloc_proxyIP7VertexFS2_NS_9allocatorIS2_EEEaSERKS6_;2A.;__base_ctor::(0,186)=#(0,169),(0,6),(0,171),(0,184),(0,6);:_ZN11stlpmtx_std4priv17_STLP_alloc_proxyIP7VertexFS2_NS_9allocatorIS2_EEEC2ERKS6_;2A.;__comp_ctor::(0,186):_ZN11stlpmtx_std4priv17_STLP_alloc_proxyIP7VertexFS2_NS_9allocatorIS2_EEEC1ERKS6_;2A.;__base_dtor::(0,187)=#(0,169),(0,6),(0,171),(0,6);:_ZN11stlpmtx_std4priv17_STLP_alloc_proxyIP7VertexFS2_NS_9allocatorIS2_EEED2Ev;2A.;__comp_dtor::(0,187):_ZN11stlpmtx_std4priv17_STLP_alloc_proxyIP7VertexFS2_NS_9allocatorIS2_EEED1Ev;2A.;;",128,0,472,0
	.stabs	"_Vector_base<VertexF,stlpmtx_std::allocator<VertexF> >:Tt(0,188)=s12_M_start:/1(44,3),0,32;_M_finish:/1(44,3),32,32;_M_end_of_storage:/1(0,169),64,32;__base_ctor::(0,189)=#(0,188),(0,6),(0,190)=*(0,188),(0,151),(0,6);:_ZN11stlpmtx_std4priv12_Vector_baseI7VertexFNS_9allocatorIS2_EEEC2ERKS4_;2A.;__comp_ctor::(0,189):_ZN11stlpmtx_std4priv12_Vector_baseI7VertexFNS_9allocatorIS2_EEEC1ERKS4_;2A.;__base_ctor::(0,191)=#(0,188),(0,6),(0,190),(0,16),(0,151),(0,6);:_ZN11stlpmtx_std4priv12_Vector_baseI7VertexFNS_9allocatorIS2_EEEC2EmRKS4_;2A.;__comp_ctor::(0,191):_ZN11stlpmtx_std4priv12_Vector_baseI7VertexFNS_9allocatorIS2_EEEC1EmRKS4_;2A.;__base_ctor::(0,192)=#(0,188),(0,6),(0,190),(0,193)=xs__move_source<stlpmtx_std::priv::_Vector_base<VertexF, stlpmtx_std::allocator<VertexF> > >:,(0,6);:_ZN11stlpmtx_std4priv12_Vector_baseI7VertexFNS_9allocatorIS2_EEEC2ENS_13__move_sourceIS5_EE;2A.;__comp_ctor::(0,192):_ZN11stlpmtx_std4priv12_Vector_baseI7VertexFNS_9allocatorIS2_EEEC1ENS_13__move_sourceIS5_EE;2A.;__base_dtor::(0,194)=#(0,188),(0,6),(0,190),(0,6);:_ZN11stlpmtx_std4priv12_Vector_baseI7VertexFNS_9allocatorIS2_EEED2Ev;2A.;__comp_dtor::(0,194):_ZN11stlpmtx_std4priv12_Vector_baseI7VertexFNS_9allocatorIS2_EEED1Ev;2A.;_M_throw_length_error::(0,195)=#(0,188),(0,6),(0,196)=*(0,197)=k(0,188),(0,6);:_ZNK11stlpmtx_std4priv12_Vector_baseI7VertexFNS_9allocatorIS2_EEE21_M_throw_length_errorEv;1B.;_M_throw_out_of_range::(0,195):_ZNK11stlpmtx_std4priv12_Vector_baseI7VertexFNS_9allocatorIS2_EEE21_M_throw_out_of_rangeEv;1B.;operator=::(0,198)=#(0,188),(0,199)=&(0,188),(0,190),(0,200)=&(0,197),(0,6);:_ZN11stlpmtx_std4priv12_Vector_baseI7VertexFNS_9allocatorIS2_EEEaSERKS5_;2A.;__base_ctor::(0,201)=#(0,188),(0,6),(0,190),(0,200),(0,6);:_ZN11stlpmtx_std4priv12_Vector_baseI7VertexFNS_9allocatorIS2_EEEC2ERKS5_;2A.;__comp_ctor::(0,201):_ZN11stlpmtx_std4priv12_Vector_baseI7VertexFNS_9allocatorIS2_EEEC1ERKS5_;2A.;;",128,0,58,0
	.stabs	"vector<VertexF,stlpmtx_std::allocator<VertexF> >:Tt(0,202)=s12!1,010,(0,188);get_allocator::(0,203)=#(0,202),(0,147),(0,204)=*(0,205)=k(0,202),(0,6);:_ZNK11stlpmtx_std6vectorI7VertexFNS_9allocatorIS1_EEE13get_allocatorEv;2B.;_M_insert_overflow_aux::(0,206)=#(0,202),(0,6),(0,207)=*(0,202),(44,3),(44,10),(29,13),(0,16),(0,4),(0,6);:_ZN11stlpmtx_std6vectorI7VertexFNS_9allocatorIS1_EEE22_M_insert_overflow_auxEPS1_RKS1_RKNS_12__false_typeEmb;0A.(0,208)=#(0,202),(0,6),(0,207),(44,3),(44,10),(29,5),(0,16),(0,4),(0,6);:_ZN11stlpmtx_std6vectorI7VertexFNS_9allocatorIS1_EEE22_M_insert_overflow_auxEPS1_RKS1_RKNS_11__true_typeEmb;0A.;_M_insert_overflow::(0,209)=#(0,202),(0,6),(0,207),(44,3),(44,10),(29,13),(0,16),(0,4),(0,6);:_ZN11stlpmtx_std6vectorI7VertexFNS_9allocatorIS1_EEE18_M_insert_overflowEPS1_RKS1_RKNS_12__false_typeEmb;0A.(0,210)=#(0,202),(0,6),(0,207),(44,3),(44,10),(29,5),(0,16),(0,4),(0,6);:_ZN11stlpmtx_std6vectorI7VertexFNS_9allocatorIS1_EEE18_M_insert_overflowEPS1_RKS1_RKNS_11__true_typeEmb;0A.;_M_range_check::(0,211)=#(0,202),(0,6),(0,204),(0,16),(0,6);:_ZNK11stlpmtx_std6vectorI7VertexFNS_9allocatorIS1_EEE14_M_range_checkEm;0B.;_M_compute_next_size::(0,212)=#(0,202),(12,2),(0,207),(0,16),(0,6);:_ZN11stlpmtx_std6vectorI7VertexFNS_9allocatorIS1_EEE20_M_compute_next_sizeEm;0A.;begin::(0,213)=#(0,202),(44,3),(0,207),(0,6);:_ZN11stlpmtx_std6vectorI7VertexFNS_9allocatorIS1_EEE5beginEv;2A.(0,214)=#(0,202),(0,159),(0,204),(0,6);:_ZNK11stlpmtx_std6vectorI7VertexFNS_9allocatorIS1_EEE5beginEv;2B.;end::(0,213):_ZN11stlpmtx_std6vectorI7VertexFNS_9allocatorIS1_EEE3endEv;2A.(0,214):_ZNK11stlpmtx_std6vectorI7VertexFNS_9allocatorIS1_EEE3endEv;2B.;rbegin::(0,215)=#(0,202),(0,216)=xsreverse_iterator<VertexF*>:,(0,207),(0,6);:_ZN11stlpmtx_std6vectorI7VertexFNS_9allocatorIS1_EEE6rbeginEv;2A.(0,217)=#(0,202),(0,218)=xsreverse_iterator<const VertexF*>:,(0,204),(0,6);:_ZNK11stlpmtx_std6vectorI7VertexFNS_9allocatorIS1_EEE6rbeginEv;2B.;rend::(0,215):_ZN11stlpmtx_std6vectorI7VertexFNS_9allocatorIS1_EEE4rendEv;2A.(0,217):_ZNK11stlpmtx_std6vectorI7VertexFNS_9allocatorIS1_EEE4rendEv;2B.;size::(0,219)=#(0,202),(12,2),(0,204),(0,6);:_ZNK11stlpmtx_std6vectorI7VertexFNS_9allocatorIS1_EEE4sizeEv;2B.;max_size::(0,219):_ZNK11stlpmtx_std6vectorI7VertexFNS_9allocatorIS1_EEE8max_sizeEv;2B.;capacity::(0,219):_ZNK11stlpmtx_std6vectorI7VertexFNS_9allocatorIS1_EEE8capacityEv;2B.;empty::(0,220)=#(0,202),(0,4),(0,204),(0,6);:_ZNK11stlpmtx_std6vectorI7VertexFNS_9allocatorIS1_EEE5emptyEv;2B.;operator[]::(0,221)=#(0,202),(0,157),(0,207),(0,16),(0,6);:_ZN11stlpmtx_std6vectorI7VertexFNS_9allocatorIS1_EEEixEm;2A.(0,222)=#(0,202),(44,10),(0,204),(0,16),(0,6);:_ZNK11stlpmtx_std6vectorI7VertexFNS_9allocatorIS1_EEEixEm;2B.;front::(0,223)=#(0,202),(0,157),(0,207),(0,6);:_ZN11stlpmtx_std6vectorI7VertexFNS_9allocatorIS1_EEE5frontEv;2A.(0,224)=#(0,202),(44,10),(0,204),(0,6);:_ZNK11stlpmtx_std6vectorI7VertexFNS_9allocatorIS1_EEE5frontEv;2B.;back::(0,223):_ZN11stlpmtx_std6vectorI7VertexFNS_9allocatorIS1_EEE4backEv;2A.(0,224):_ZNK11stlpmtx_std6vectorI7VertexFNS_9allocatorIS1_EEE4backEv;2B.;at::(0,221):_ZN11stlpmtx_std6vectorI7VertexFNS_9allocatorIS1_EEE2atEm;2A.(0,222):_ZNK11stlpmtx_std6vectorI7VertexFNS_9allocatorIS1_EEE2atEm;2B.;__base_ctor::(0,225)=#(0,202),(0,6),(0,207),(0,151),(0,6);:_ZN11stlpmtx_std6vectorI7VertexFNS_9allocatorIS1_EEEC2ERKS3_;2A.;__comp_ctor::(0,225):_ZN11stlpmtx_std6vectorI7VertexFNS_9allocatorIS1_EEEC1ERKS3_;2A.;_M_initialize::(0,226)=#(0,202),(0,6),(0,207),(0,16),(44,10),(0,6);:_ZN11stlpmtx_std6vectorI7VertexFNS_9allocatorIS1_EEE13_M_initializeEmRKS1_;0A.;__base_ctor::(0,227)=#(0,202),(0,6),(0,207),(0,16),(0,6);:_ZN11stlpmtx_std6vectorI7VertexFNS_9allocatorIS1_EEEC2Em;2A.;__comp_ctor::(0,227):_ZN11stlpmtx_std6vectorI7VertexFNS_9allocatorIS1_EEEC1Em;2A.;__base_ctor::(0,228)=#(0,202),(0,6),(0,207),(0,16),(44,10),(0,151),(0,6);:_ZN11stlpmtx_std6vectorI7VertexFNS_9allocatorIS1_EEEC2EmRKS1_RKS3_;2A.;__comp_ctor::(0,228):_ZN11stlpmtx_std6vectorI7VertexFNS_9allocatorIS1_EEEC1EmRKS1_RKS3_;2A.;__base_ctor::(0,229)=#(0,202),(0,6),(0,207),(0,230)=&(0,205),(0,6);:_ZN11stlpmtx_std6vectorI7VertexFNS_9allocatorIS1_EEEC2ERKS4_;2A.;__comp_ctor::(0,229):_ZN11stlpmtx_std6vectorI7VertexFNS_9allocatorIS1_EEEC1ERKS4_;2A.;__base_ctor::(0,231)=#(0,202),(0,6),(0,207),(0,232)=xs__move_source<stlpmtx_std::vector<VertexF, stlpmtx_std::allocator<VertexF> > >:,(0,6);:_ZN11stlpmtx_std6vectorI7VertexFNS_9allocatorIS1_EEEC2ENS_13__move_sourceIS4_EE;2A.;__comp_ctor::(0,231):_ZN11stlpmtx_std6vectorI7VertexFNS_9allocatorIS1_EEEC1ENS_13__move_sourceIS4_EE;2A.;__base_dtor::(0,233)=#(0,202),(0,6),(0,207),(0,6);:_ZN11stlpmtx_std6vectorI7VertexFNS_9allocatorIS1_EEED2Ev;2A.;__comp_dtor::(0,233):_ZN11stlpmtx_std6vectorI7VertexFNS_9allocatorIS1_EEED1Ev;2A.;operator=::(0,234)=#(0,202),(0,235)=&(0,202),(0,207),(0,230),(0,6);:_ZN11stlpmtx_std6vectorI7VertexFNS_9allocatorIS1_EEEaSERKS4_;2A.;reserve::(0,227):_ZN11stlpmtx_std6vectorI7VertexFNS_9allocatorIS1_EEE7reserveEm;2A.;assign::(0,236)=#(0,202),(0,6),(0,207),(0,16),(44,10),(0,6);:_ZN11stlpmtx_std6vectorI7VertexFNS_9allocatorIS1_EEE6assignEmRKS1_;2A.;_M_fill_assign::(0,236):_ZN11stlpmtx_std6vectorI7VertexFNS_9allocatorIS1_EEE14_M_fill_assignEmRKS1_;2A.;push_back::(0,237)=#(0,202),(0,6),(0,207),(44,10),(0,6);:_ZN11stlpmtx_std6vectorI7VertexFNS_9allocatorIS1_EEE9push_backERKS1_;2A.;insert::(0,238)=#(0,202),(44,3),(0,207),(44,3),(44,10),(0,6);:_ZN11stlpmtx_std6vectorI7VertexFNS_9allocatorIS1_EEE6insertEPS1_RKS1_;2A.;swap::(0,239)=#(0,202),(0,6),(0,207),(0,235),(0,6);:_ZN11stlpmtx_std6vectorI7VertexFNS_9allocatorIS1_EEE4swapERS4_;2A.;_M_fill_insert_aux::(0,240)=#(0,202),(0,6),(0,207),(44,3),(0,16),(44,10),(29,5),(0,6);:_ZN11stlpmtx_std6vectorI7VertexFNS_9allocatorIS1_EEE18_M_fill_insert_auxEPS1_mRKS1_RKNS_11__true_typeE;0A.(0,241)=#(0,202),(0,6),(0,207),(44,3),(0,16),(44,10),(29,13),(0,6);:_ZN11stlpmtx_std6vectorI7VertexFNS_9allocatorIS1_EEE18_M_fill_insert_auxEPS1_mRKS1_RKNS_12__false_typeE;0A.;_M_fill_insert::(0,242)=#(0,202),(0,6),(0,207),(44,3),(0,16),(44,10),(0,6);:_ZN11stlpmtx_std6vectorI7VertexFNS_9allocatorIS1_EEE14_M_fill_insertEPS1_mRKS1_;0A.;_M_is_inside::(0,243)=#(0,202),(0,4),(0,204),(44,10),(0,6);:_ZNK11stlpmtx_std6vectorI7VertexFNS_9allocatorIS1_EEE12_M_is_insideERKS1_;0B.;insert::(0,242):_ZN11stlpmtx_std6vectorI7VertexFNS_9allocatorIS1_EEE6insertEPS1_mRKS1_;2A.;pop_back::(0,233):_ZN11stlpmtx_std6vectorI7VertexFNS_9allocatorIS1_EEE8pop_backEv;2A.;_M_erase::(0,244)=#(0,202),(44,3),(0,207),(44,3),(29,5),(0,6);:_ZN11stlpmtx_std6vectorI7VertexFNS_9allocatorIS1_EEE8_M_eraseEPS1_RKNS_11__true_typeE;0A.(0,245)=#(0,202),(44,3),(0,207),(44,3),(29,13),(0,6);:_ZN11stlpmtx_std6vectorI7VertexFNS_9allocatorIS1_EEE8_M_eraseEPS1_RKNS_12__false_typeE;0A.(0,246)=#(0,202),(44,3),(0,207),(44,3),(44,3),(29,5),(0,6);:_ZN11stlpmtx_std6vectorI7VertexFNS_9allocatorIS1_EEE8_M_eraseEPS1_S5_RKNS_11__true_typeE;0A.(0,247)=#(0,202),(44,3),(0,207),(44,3),(44,3),(29,13),(0,6);:_ZN11stlpmtx_std6vectorI7VertexFNS_9allocatorIS1_EEE8_M_eraseEPS1_S5_RKNS_12__false_typeE;0A.;erase::(0,248)=#(0,202),(44,3),(0,207),(44,3),(0,6);:_ZN11stlpmtx_std6vectorI7VertexFNS_9allocatorIS1_EEE5eraseEPS1_;2A.(0,249)=#(0,202),(44,3),(0,207),(44,3),(44,3),(0,6);:_ZN11stlpmtx_std6vectorI7VertexFNS_9allocatorIS1_EEE5eraseEPS1_S5_;2A.;resize::(0,250)=#(0,202),(0,6),(0,207),(0,16),(44,10),(0,6);:_ZN11stlpmtx_std6vectorI7VertexFNS_9allocatorIS1_EEE6resizeEmRKS1_;2A.;clear::(0,233):_ZN11stlpmtx_std6vectorI7VertexFNS_9allocatorIS1_EEE5clearEv;2A.;_M_clear::(0,233):_ZN11stlpmtx_std6vectorI7VertexFNS_9allocatorIS1_EEE8_M_clearEv;0A.;_M_clear_after_move::(0,233):_ZN11stlpmtx_std6vectorI7VertexFNS_9allocatorIS1_EEE19_M_clear_after_moveEv;0A.;_M_set::(0,251)=#(0,202),(0,6),(0,207),(44,3),(44,3),(44,3),(0,6);:_ZN11stlpmtx_std6vectorI7VertexFNS_9allocatorIS1_EEE6_M_setEPS1_S5_S5_;0A.;;",128,0,113,0
	.stabs	"__type_traits<Vertex>:Tt(0,252)=s1operator=::(0,253)=#(0,252),(0,254)=&(0,252),(0,255)=*(0,252),(0,256)=&(0,257)=k(0,252),(0,6);:_ZN11stlpmtx_std13__type_traitsI6VertexEaSERKS2_;2A.;__base_ctor::(0,258)=#(0,252),(0,6),(0,255),(0,256),(0,6);:_ZN11stlpmtx_std13__type_traitsI6VertexEC2ERKS2_;2A.;__comp_ctor::(0,258):_ZN11stlpmtx_std13__type_traitsI6VertexEC1ERKS2_;2A.;__base_ctor::(0,259)=#(0,252),(0,6),(0,255),(0,6);:_ZN11stlpmtx_std13__type_traitsI6VertexEC2Ev;2A.;__comp_ctor::(0,259):_ZN11stlpmtx_std13__type_traitsI6VertexEC1Ev;2A.;;",128,0,224,0
	.stabs	"vector<Vertex,stlpmtx_std::allocator<Vertex> >::_TrivialCopy:t(0,260)=(29,9)",128,0,385,0
	.stabs	"__type_traits<VertexF>:Tt(0,261)=s1operator=::(0,262)=#(0,261),(0,263)=&(0,261),(0,264)=*(0,261),(0,265)=&(0,266)=k(0,261),(0,6);:_ZN11stlpmtx_std13__type_traitsI7VertexFEaSERKS2_;2A.;__base_ctor::(0,267)=#(0,261),(0,6),(0,264),(0,265),(0,6);:_ZN11stlpmtx_std13__type_traitsI7VertexFEC2ERKS2_;2A.;__comp_ctor::(0,267):_ZN11stlpmtx_std13__type_traitsI7VertexFEC1ERKS2_;2A.;__base_ctor::(0,268)=#(0,261),(0,6),(0,264),(0,6);:_ZN11stlpmtx_std13__type_traitsI7VertexFEC2Ev;2A.;__comp_ctor::(0,268):_ZN11stlpmtx_std13__type_traitsI7VertexFEC1Ev;2A.;;",128,0,224,0
	.stabs	"vector<VertexF,stlpmtx_std::allocator<VertexF> >::_TrivialCopy:t(0,269)=(29,9)",128,0,385,0
	.stabs	"_IsPOD<Vertex>:Tt(0,270)=s1_Answer::(28,578):_ZN11stlpmtx_std6_IsPODI6VertexE7_AnswerEv;2A?;operator=::(0,271)=#(0,270),(0,272)=&(0,270),(0,273)=*(0,270),(0,274)=&(0,275)=k(0,270),(0,6);:_ZN11stlpmtx_std6_IsPODI6VertexEaSERKS2_;2A.;__base_ctor::(0,276)=#(0,270),(0,6),(0,273),(0,274),(0,6);:_ZN11stlpmtx_std6_IsPODI6VertexEC2ERKS2_;2A.;__comp_ctor::(0,276):_ZN11stlpmtx_std6_IsPODI6VertexEC1ERKS2_;2A.;__base_ctor::(0,277)=#(0,270),(0,6),(0,273),(0,6);:_ZN11stlpmtx_std6_IsPODI6VertexEC2Ev;2A.;__comp_ctor::(0,277):_ZN11stlpmtx_std6_IsPODI6VertexEC1Ev;2A.;;",128,0,545,0
	.stabs	"__move_traits<Vertex>:Tt(0,278)=s1operator=::(0,279)=#(0,278),(0,280)=&(0,278),(0,281)=*(0,278),(0,282)=&(0,283)=k(0,278),(0,6);:_ZN11stlpmtx_std13__move_traitsI6VertexEaSERKS2_;2A.;__base_ctor::(0,284)=#(0,278),(0,6),(0,281),(0,282),(0,6);:_ZN11stlpmtx_std13__move_traitsI6VertexEC2ERKS2_;2A.;__comp_ctor::(0,284):_ZN11stlpmtx_std13__move_traitsI6VertexEC1ERKS2_;2A.;__base_ctor::(0,285)=#(0,278),(0,6),(0,281),(0,6);:_ZN11stlpmtx_std13__move_traitsI6VertexEC2Ev;2A.;__comp_ctor::(0,285):_ZN11stlpmtx_std13__move_traitsI6VertexEC1Ev;2A.;;",128,0,52,0
	.stabs	"vector<Vertex,stlpmtx_std::allocator<Vertex> >::_Movable:t(0,286)=(29,9)",128,0,160,0
	.stabs	"_IsPOD<VertexF>:Tt(0,287)=s1_Answer::(28,578):_ZN11stlpmtx_std6_IsPODI7VertexFE7_AnswerEv;2A?;operator=::(0,288)=#(0,287),(0,289)=&(0,287),(0,290)=*(0,287),(0,291)=&(0,292)=k(0,287),(0,6);:_ZN11stlpmtx_std6_IsPODI7VertexFEaSERKS2_;2A.;__base_ctor::(0,293)=#(0,287),(0,6),(0,290),(0,291),(0,6);:_ZN11stlpmtx_std6_IsPODI7VertexFEC2ERKS2_;2A.;__comp_ctor::(0,293):_ZN11stlpmtx_std6_IsPODI7VertexFEC1ERKS2_;2A.;__base_ctor::(0,294)=#(0,287),(0,6),(0,290),(0,6);:_ZN11stlpmtx_std6_IsPODI7VertexFEC2Ev;2A.;__comp_ctor::(0,294):_ZN11stlpmtx_std6_IsPODI7VertexFEC1Ev;2A.;;",128,0,545,0
	.stabs	"__move_traits<VertexF>:Tt(0,295)=s1operator=::(0,296)=#(0,295),(0,297)=&(0,295),(0,298)=*(0,295),(0,299)=&(0,300)=k(0,295),(0,6);:_ZN11stlpmtx_std13__move_traitsI7VertexFEaSERKS2_;2A.;__base_ctor::(0,301)=#(0,295),(0,6),(0,298),(0,299),(0,6);:_ZN11stlpmtx_std13__move_traitsI7VertexFEC2ERKS2_;2A.;__comp_ctor::(0,301):_ZN11stlpmtx_std13__move_traitsI7VertexFEC1ERKS2_;2A.;__base_ctor::(0,302)=#(0,295),(0,6),(0,298),(0,6);:_ZN11stlpmtx_std13__move_traitsI7VertexFEC2Ev;2A.;__comp_ctor::(0,302):_ZN11stlpmtx_std13__move_traitsI7VertexFEC1Ev;2A.;;",128,0,52,0
	.stabs	"vector<VertexF,stlpmtx_std::allocator<VertexF> >::_Movable:t(0,303)=(29,9)",128,0,160,0
	.stabs	"vector<Vertex,stlpmtx_std::allocator<Vertex> >::_TrivialUCopy:t(0,304)=(29,9)",128,0,83,0
	.stabs	"vector<Vertex,stlpmtx_std::allocator<Vertex> >::_Movable:t(0,305)=(29,9)",128,0,85,0
	.stabs	"vector<VertexF,stlpmtx_std::allocator<VertexF> >::_TrivialUCopy:t(0,306)=(29,9)",128,0,83,0
	.stabs	"vector<VertexF,stlpmtx_std::allocator<VertexF> >::_Movable:t(0,307)=(29,9)",128,0,85,0
	.stabs	"_ConversionHelper<stlpmtx_std::allocator<Vertex>*,const volatile stlpmtx_std::__stlport_class<stlpmtx_std::allocator<Vertex> >*>:Tt(0,308)=s1_Test::(0,309)=f(0,19):_ZN11stlpmtx_std17_ConversionHelperIPNS_9allocatorI6VertexEEPVKNS_15__stlport_classIS3_EEE5_TestEbS8_;2A?(0,310)=f(6,93):_ZN11stlpmtx_std17_ConversionHelperIPNS_9allocatorI6VertexEEPVKNS_15__stlport_classIS3_EEE5_TestEbz;2A?;_MakeSource::(0,311)=f(0,35):_ZN11stlpmtx_std17_ConversionHelperIPNS_9allocatorI6VertexEEPVKNS_15__stlport_classIS3_EEE11_MakeSourceEv;2A?;operator=::(0,312)=#(0,308),(0,313)=&(0,308),(0,314)=*(0,308),(0,315)=&(0,316)=k(0,308),(0,6);:_ZN11stlpmtx_std17_ConversionHelperIPNS_9allocatorI6VertexEEPVKNS_15__stlport_classIS3_EEEaSERKS9_;2A.;__base_ctor::(0,317)=#(0,308),(0,6),(0,314),(0,315),(0,6);:_ZN11stlpmtx_std17_ConversionHelperIPNS_9allocatorI6VertexEEPVKNS_15__stlport_classIS3_EEEC2ERKS9_;2A.;__comp_ctor::(0,317):_ZN11stlpmtx_std17_ConversionHelperIPNS_9allocatorI6VertexEEPVKNS_15__stlport_classIS3_EEEC1ERKS9_;2A.;__base_ctor::(0,318)=#(0,308),(0,6),(0,314),(0,6);:_ZN11stlpmtx_std17_ConversionHelperIPNS_9allocatorI6VertexEEPVKNS_15__stlport_classIS3_EEEC2Ev;2A.;__comp_ctor::(0,318):_ZN11stlpmtx_std17_ConversionHelperIPNS_9allocatorI6VertexEEPVKNS_15__stlport_classIS3_EEEC1Ev;2A.;;",128,0,224,0
	.stabs	"_IsConvertible<stlpmtx_std::allocator<Vertex>,stlpmtx_std::__stlport_class<stlpmtx_std::allocator<Vertex> > >:Tt(0,319)=s1operator=::(0,320)=#(0,319),(0,321)=&(0,319),(0,322)=*(0,319),(0,323)=&(0,324)=k(0,319),(0,6);:_ZN11stlpmtx_std14_IsConvertibleINS_9allocatorI6VertexEENS_15__stlport_classIS3_EEEaSERKS6_;2A.;__base_ctor::(0,325)=#(0,319),(0,6),(0,322),(0,323),(0,6);:_ZN11stlpmtx_std14_IsConvertibleINS_9allocatorI6VertexEENS_15__stlport_classIS3_EEEC2ERKS6_;2A.;__comp_ctor::(0,325):_ZN11stlpmtx_std14_IsConvertibleINS_9allocatorI6VertexEENS_15__stlport_classIS3_EEEC1ERKS6_;2A.;__base_ctor::(0,326)=#(0,319),(0,6),(0,322),(0,6);:_ZN11stlpmtx_std14_IsConvertibleINS_9allocatorI6VertexEENS_15__stlport_classIS3_EEEC2Ev;2A.;__comp_ctor::(0,326):_ZN11stlpmtx_std14_IsConvertibleINS_9allocatorI6VertexEENS_15__stlport_classIS3_EEEC1Ev;2A.;;",128,0,231,0
	.stabs	"_IsSTLportClass<stlpmtx_std::allocator<Vertex> >:Tt(0,327)=s1operator=::(0,328)=#(0,327),(0,329)=&(0,327),(0,330)=*(0,327),(0,331)=&(0,332)=k(0,327),(0,6);:_ZN11stlpmtx_std15_IsSTLportClassINS_9allocatorI6VertexEEEaSERKS4_;2A.;__base_ctor::(0,333)=#(0,327),(0,6),(0,330),(0,331),(0,6);:_ZN11stlpmtx_std15_IsSTLportClassINS_9allocatorI6VertexEEEC2ERKS4_;2A.;__comp_ctor::(0,333):_ZN11stlpmtx_std15_IsSTLportClassINS_9allocatorI6VertexEEEC1ERKS4_;2A.;__base_ctor::(0,334)=#(0,327),(0,6),(0,330),(0,6);:_ZN11stlpmtx_std15_IsSTLportClassINS_9allocatorI6VertexEEEC2Ev;2A.;__comp_ctor::(0,334):_ZN11stlpmtx_std15_IsSTLportClassINS_9allocatorI6VertexEEEC1Ev;2A.;;",128,0,575,0
	.stabs	"_STLP_alloc_proxy<Vertex*,Vertex,stlpmtx_std::allocator<Vertex> >::_STLportAlloc:t(0,335)=(29,1)",128,0,527,0
	.stabs	"iterator_traits<Vertex*>:Tt(0,336)=s1operator=::(0,337)=#(0,336),(0,338)=&(0,336),(0,339)=*(0,336),(0,340)=&(0,341)=k(0,336),(0,6);:_ZN11stlpmtx_std15iterator_traitsIP6VertexEaSERKS3_;2A.;__base_ctor::(0,342)=#(0,336),(0,6),(0,339),(0,340),(0,6);:_ZN11stlpmtx_std15iterator_traitsIP6VertexEC2ERKS3_;2A.;__comp_ctor::(0,342):_ZN11stlpmtx_std15iterator_traitsIP6VertexEC1ERKS3_;2A.;__base_ctor::(0,343)=#(0,336),(0,6),(0,339),(0,6);:_ZN11stlpmtx_std15iterator_traitsIP6VertexEC2Ev;2A.;__comp_ctor::(0,343):_ZN11stlpmtx_std15iterator_traitsIP6VertexEC1Ev;2A.;;",128,0,147,0
	.stabs	"iterator<stlpmtx_std::random_access_iterator_tag,Vertex,ptrdiff_t,Vertex*,Vertex&>:Tt(0,344)=s1operator=::(0,345)=#(0,344),(0,346)=&(0,344),(0,347)=*(0,344),(0,348)=&(0,349)=k(0,344),(0,6);:_ZN11stlpmtx_std8iteratorINS_26random_access_iterator_tagE6VertexiPS2_RS2_EaSERKS5_;2A.;__base_ctor::(0,350)=#(0,344),(0,6),(0,347),(0,348),(0,6);:_ZN11stlpmtx_std8iteratorINS_26random_access_iterator_tagE6VertexiPS2_RS2_EC2ERKS5_;2A.;__comp_ctor::(0,350):_ZN11stlpmtx_std8iteratorINS_26random_access_iterator_tagE6VertexiPS2_RS2_EC1ERKS5_;2A.;__base_ctor::(0,351)=#(0,344),(0,6),(0,347),(0,6);:_ZN11stlpmtx_std8iteratorINS_26random_access_iterator_tagE6VertexiPS2_RS2_EC2Ev;2A.;__comp_ctor::(0,351):_ZN11stlpmtx_std8iteratorINS_26random_access_iterator_tagE6VertexiPS2_RS2_EC1Ev;2A.;;",128,0,59,0
	.stabs	"reverse_iterator<Vertex*>:Tt(0,103)=s4!1,020,(0,344);current:/1(43,3),0,32;__base_ctor::(0,352)=#(0,103),(0,6),(0,353)=*(0,103),(0,6);:_ZN11stlpmtx_std16reverse_iteratorIP6VertexEC2Ev;2A.;__comp_ctor::(0,352):_ZN11stlpmtx_std16reverse_iteratorIP6VertexEC1Ev;2A.;__base_ctor::(0,354)=#(0,103),(0,6),(0,353),(43,3),(0,6);:_ZN11stlpmtx_std16reverse_iteratorIP6VertexEC2ES2_;2A.;__comp_ctor::(0,354):_ZN11stlpmtx_std16reverse_iteratorIP6VertexEC1ES2_;2A.;__base_ctor::(0,355)=#(0,103),(0,6),(0,353),(0,356)=&(0,357)=k(0,103),(0,6);:_ZN11stlpmtx_std16reverse_iteratorIP6VertexEC2ERKS3_;2A.;__comp_ctor::(0,355):_ZN11stlpmtx_std16reverse_iteratorIP6VertexEC1ERKS3_;2A.;operator=::(0,358)=#(0,103),(0,359)=&(0,103),(0,353),(0,356),(0,6);:_ZN11stlpmtx_std16reverse_iteratorIP6VertexEaSERKS3_;2A.;base::(0,360)=#(0,103),(43,3),(0,361)=*(0,357),(0,6);:_ZNK11stlpmtx_std16reverse_iteratorIP6VertexE4baseEv;2B.;operator*::(0,362)=#(0,103),(0,43),(0,361),(0,6);:_ZNK11stlpmtx_std16reverse_iteratorIP6VertexEdeEv;2B.;operator->::(0,360):_ZNK11stlpmtx_std16reverse_iteratorIP6VertexEptEv;2B.;operator++::(0,363)=#(0,103),(0,359),(0,353),(0,6);:_ZN11stlpmtx_std16reverse_iteratorIP6VertexEppEv;2A.(0,364)=#(0,103),(0,103),(0,353),(0,3),(0,6);:_ZN11stlpmtx_std16reverse_iteratorIP6VertexEppEi;2A.;operator--::(0,363):_ZN11stlpmtx_std16reverse_iteratorIP6VertexEmmEv;2A.(0,364):_ZN11stlpmtx_std16reverse_iteratorIP6VertexEmmEi;2A.;operator+::(0,365)=#(0,103),(0,103),(0,361),(0,3),(0,6);:_ZNK11stlpmtx_std16reverse_iteratorIP6VertexEplEi;2B.;operator+=::(0,366)=#(0,103),(0,359),(0,353),(0,3),(0,6);:_ZN11stlpmtx_std16reverse_iteratorIP6VertexEpLEi;2A.;operator-::(0,365):_ZNK11stlpmtx_std16reverse_iteratorIP6VertexEmiEi;2B.;operator-=::(0,366):_ZN11stlpmtx_std16reverse_iteratorIP6VertexEmIEi;2A.;operator[]::(0,367)=#(0,103),(0,43),(0,361),(0,3),(0,6);:_ZNK11stlpmtx_std16reverse_iteratorIP6VertexEixEi;2B.;;",128,0,52,0
	.stabs	"_ConversionHelper<stlpmtx_std::allocator<VertexF>*,const volatile stlpmtx_std::__stlport_class<stlpmtx_std::allocator<VertexF> >*>:Tt(0,368)=s1_Test::(0,369)=f(0,19):_ZN11stlpmtx_std17_ConversionHelperIPNS_9allocatorI7VertexFEEPVKNS_15__stlport_classIS3_EEE5_TestEbS8_;2A?(0,310):_ZN11stlpmtx_std17_ConversionHelperIPNS_9allocatorI7VertexFEEPVKNS_15__stlport_classIS3_EEE5_TestEbz;2A?;_MakeSource::(0,370)=f(0,149):_ZN11stlpmtx_std17_ConversionHelperIPNS_9allocatorI7VertexFEEPVKNS_15__stlport_classIS3_EEE11_MakeSourceEv;2A?;operator=::(0,371)=#(0,368),(0,372)=&(0,368),(0,373)=*(0,368),(0,374)=&(0,375)=k(0,368),(0,6);:_ZN11stlpmtx_std17_ConversionHelperIPNS_9allocatorI7VertexFEEPVKNS_15__stlport_classIS3_EEEaSERKS9_;2A.;__base_ctor::(0,376)=#(0,368),(0,6),(0,373),(0,374),(0,6);:_ZN11stlpmtx_std17_ConversionHelperIPNS_9allocatorI7VertexFEEPVKNS_15__stlport_classIS3_EEEC2ERKS9_;2A.;__comp_ctor::(0,376):_ZN11stlpmtx_std17_ConversionHelperIPNS_9allocatorI7VertexFEEPVKNS_15__stlport_classIS3_EEEC1ERKS9_;2A.;__base_ctor::(0,377)=#(0,368),(0,6),(0,373),(0,6);:_ZN11stlpmtx_std17_ConversionHelperIPNS_9allocatorI7VertexFEEPVKNS_15__stlport_classIS3_EEEC2Ev;2A.;__comp_ctor::(0,377):_ZN11stlpmtx_std17_ConversionHelperIPNS_9allocatorI7VertexFEEPVKNS_15__stlport_classIS3_EEEC1Ev;2A.;;",128,0,224,0
	.stabs	"_IsConvertible<stlpmtx_std::allocator<VertexF>,stlpmtx_std::__stlport_class<stlpmtx_std::allocator<VertexF> > >:Tt(0,378)=s1operator=::(0,379)=#(0,378),(0,380)=&(0,378),(0,381)=*(0,378),(0,382)=&(0,383)=k(0,378),(0,6);:_ZN11stlpmtx_std14_IsConvertibleINS_9allocatorI7VertexFEENS_15__stlport_classIS3_EEEaSERKS6_;2A.;__base_ctor::(0,384)=#(0,378),(0,6),(0,381),(0,382),(0,6);:_ZN11stlpmtx_std14_IsConvertibleINS_9allocatorI7VertexFEENS_15__stlport_classIS3_EEEC2ERKS6_;2A.;__comp_ctor::(0,384):_ZN11stlpmtx_std14_IsConvertibleINS_9allocatorI7VertexFEENS_15__stlport_classIS3_EEEC1ERKS6_;2A.;__base_ctor::(0,385)=#(0,378),(0,6),(0,381),(0,6);:_ZN11stlpmtx_std14_IsConvertibleINS_9allocatorI7VertexFEENS_15__stlport_classIS3_EEEC2Ev;2A.;__comp_ctor::(0,385):_ZN11stlpmtx_std14_IsConvertibleINS_9allocatorI7VertexFEENS_15__stlport_classIS3_EEEC1Ev;2A.;;",128,0,231,0
	.stabs	"_IsSTLportClass<stlpmtx_std::allocator<VertexF> >:Tt(0,386)=s1operator=::(0,387)=#(0,386),(0,388)=&(0,386),(0,389)=*(0,386),(0,390)=&(0,391)=k(0,386),(0,6);:_ZN11stlpmtx_std15_IsSTLportClassINS_9allocatorI7VertexFEEEaSERKS4_;2A.;__base_ctor::(0,392)=#(0,386),(0,6),(0,389),(0,390),(0,6);:_ZN11stlpmtx_std15_IsSTLportClassINS_9allocatorI7VertexFEEEC2ERKS4_;2A.;__comp_ctor::(0,392):_ZN11stlpmtx_std15_IsSTLportClassINS_9allocatorI7VertexFEEEC1ERKS4_;2A.;__base_ctor::(0,393)=#(0,386),(0,6),(0,389),(0,6);:_ZN11stlpmtx_std15_IsSTLportClassINS_9allocatorI7VertexFEEEC2Ev;2A.;__comp_ctor::(0,393):_ZN11stlpmtx_std15_IsSTLportClassINS_9allocatorI7VertexFEEEC1Ev;2A.;;",128,0,575,0
	.stabs	"_STLP_alloc_proxy<VertexF*,VertexF,stlpmtx_std::allocator<VertexF> >::_STLportAlloc:t(0,394)=(29,1)",128,0,527,0
	.stabs	"iterator_traits<VertexF*>:Tt(0,395)=s1operator=::(0,396)=#(0,395),(0,397)=&(0,395),(0,398)=*(0,395),(0,399)=&(0,400)=k(0,395),(0,6);:_ZN11stlpmtx_std15iterator_traitsIP7VertexFEaSERKS3_;2A.;__base_ctor::(0,401)=#(0,395),(0,6),(0,398),(0,399),(0,6);:_ZN11stlpmtx_std15iterator_traitsIP7VertexFEC2ERKS3_;2A.;__comp_ctor::(0,401):_ZN11stlpmtx_std15iterator_traitsIP7VertexFEC1ERKS3_;2A.;__base_ctor::(0,402)=#(0,395),(0,6),(0,398),(0,6);:_ZN11stlpmtx_std15iterator_traitsIP7VertexFEC2Ev;2A.;__comp_ctor::(0,402):_ZN11stlpmtx_std15iterator_traitsIP7VertexFEC1Ev;2A.;;",128,0,147,0
	.stabs	"iterator<stlpmtx_std::random_access_iterator_tag,VertexF,ptrdiff_t,VertexF*,VertexF&>:Tt(0,403)=s1operator=::(0,404)=#(0,403),(0,405)=&(0,403),(0,406)=*(0,403),(0,407)=&(0,408)=k(0,403),(0,6);:_ZN11stlpmtx_std8iteratorINS_26random_access_iterator_tagE7VertexFiPS2_RS2_EaSERKS5_;2A.;__base_ctor::(0,409)=#(0,403),(0,6),(0,406),(0,407),(0,6);:_ZN11stlpmtx_std8iteratorINS_26random_access_iterator_tagE7VertexFiPS2_RS2_EC2ERKS5_;2A.;__comp_ctor::(0,409):_ZN11stlpmtx_std8iteratorINS_26random_access_iterator_tagE7VertexFiPS2_RS2_EC1ERKS5_;2A.;__base_ctor::(0,410)=#(0,403),(0,6),(0,406),(0,6);:_ZN11stlpmtx_std8iteratorINS_26random_access_iterator_tagE7VertexFiPS2_RS2_EC2Ev;2A.;__comp_ctor::(0,410):_ZN11stlpmtx_std8iteratorINS_26random_access_iterator_tagE7VertexFiPS2_RS2_EC1Ev;2A.;;",128,0,59,0
	.stabs	"reverse_iterator<VertexF*>:Tt(0,216)=s4!1,020,(0,403);current:/1(44,3),0,32;__base_ctor::(0,411)=#(0,216),(0,6),(0,412)=*(0,216),(0,6);:_ZN11stlpmtx_std16reverse_iteratorIP7VertexFEC2Ev;2A.;__comp_ctor::(0,411):_ZN11stlpmtx_std16reverse_iteratorIP7VertexFEC1Ev;2A.;__base_ctor::(0,413)=#(0,216),(0,6),(0,412),(44,3),(0,6);:_ZN11stlpmtx_std16reverse_iteratorIP7VertexFEC2ES2_;2A.;__comp_ctor::(0,413):_ZN11stlpmtx_std16reverse_iteratorIP7VertexFEC1ES2_;2A.;__base_ctor::(0,414)=#(0,216),(0,6),(0,412),(0,415)=&(0,416)=k(0,216),(0,6);:_ZN11stlpmtx_std16reverse_iteratorIP7VertexFEC2ERKS3_;2A.;__comp_ctor::(0,414):_ZN11stlpmtx_std16reverse_iteratorIP7VertexFEC1ERKS3_;2A.;operator=::(0,417)=#(0,216),(0,418)=&(0,216),(0,412),(0,415),(0,6);:_ZN11stlpmtx_std16reverse_iteratorIP7VertexFEaSERKS3_;2A.;base::(0,419)=#(0,216),(44,3),(0,420)=*(0,416),(0,6);:_ZNK11stlpmtx_std16reverse_iteratorIP7VertexFE4baseEv;2B.;operator*::(0,421)=#(0,216),(0,157),(0,420),(0,6);:_ZNK11stlpmtx_std16reverse_iteratorIP7VertexFEdeEv;2B.;operator->::(0,419):_ZNK11stlpmtx_std16reverse_iteratorIP7VertexFEptEv;2B.;operator++::(0,422)=#(0,216),(0,418),(0,412),(0,6);:_ZN11stlpmtx_std16reverse_iteratorIP7VertexFEppEv;2A.(0,423)=#(0,216),(0,216),(0,412),(0,3),(0,6);:_ZN11stlpmtx_std16reverse_iteratorIP7VertexFEppEi;2A.;operator--::(0,422):_ZN11stlpmtx_std16reverse_iteratorIP7VertexFEmmEv;2A.(0,423):_ZN11stlpmtx_std16reverse_iteratorIP7VertexFEmmEi;2A.;operator+::(0,424)=#(0,216),(0,216),(0,420),(0,3),(0,6);:_ZNK11stlpmtx_std16reverse_iteratorIP7VertexFEplEi;2B.;operator+=::(0,425)=#(0,216),(0,418),(0,412),(0,3),(0,6);:_ZN11stlpmtx_std16reverse_iteratorIP7VertexFEpLEi;2A.;operator-::(0,424):_ZNK11stlpmtx_std16reverse_iteratorIP7VertexFEmiEi;2B.;operator-=::(0,425):_ZN11stlpmtx_std16reverse_iteratorIP7VertexFEmIEi;2A.;operator[]::(0,426)=#(0,216),(0,157),(0,420),(0,3),(0,6);:_ZNK11stlpmtx_std16reverse_iteratorIP7VertexFEixEi;2B.;;",128,0,52,0
	.stabs	"iterator_traits<stlpmtx_std::reverse_iterator<Vertex*> >:Tt(0,427)=s1operator=::(0,428)=#(0,427),(0,429)=&(0,427),(0,430)=*(0,427),(0,431)=&(0,432)=k(0,427),(0,6);:_ZN11stlpmtx_std15iterator_traitsINS_16reverse_iteratorIP6VertexEEEaSERKS5_;2A.;__base_ctor::(0,433)=#(0,427),(0,6),(0,430),(0,431),(0,6);:_ZN11stlpmtx_std15iterator_traitsINS_16reverse_iteratorIP6VertexEEEC2ERKS5_;2A.;__comp_ctor::(0,433):_ZN11stlpmtx_std15iterator_traitsINS_16reverse_iteratorIP6VertexEEEC1ERKS5_;2A.;__base_ctor::(0,434)=#(0,427),(0,6),(0,430),(0,6);:_ZN11stlpmtx_std15iterator_traitsINS_16reverse_iteratorIP6VertexEEEC2Ev;2A.;__comp_ctor::(0,434):_ZN11stlpmtx_std15iterator_traitsINS_16reverse_iteratorIP6VertexEEEC1Ev;2A.;;",128,0,147,0
	.stabs	"iterator_traits<stlpmtx_std::reverse_iterator<VertexF*> >:Tt(0,435)=s1operator=::(0,436)=#(0,435),(0,437)=&(0,435),(0,438)=*(0,435),(0,439)=&(0,440)=k(0,435),(0,6);:_ZN11stlpmtx_std15iterator_traitsINS_16reverse_iteratorIP7VertexFEEEaSERKS5_;2A.;__base_ctor::(0,441)=#(0,435),(0,6),(0,438),(0,439),(0,6);:_ZN11stlpmtx_std15iterator_traitsINS_16reverse_iteratorIP7VertexFEEEC2ERKS5_;2A.;__comp_ctor::(0,441):_ZN11stlpmtx_std15iterator_traitsINS_16reverse_iteratorIP7VertexFEEEC1ERKS5_;2A.;__base_ctor::(0,442)=#(0,435),(0,6),(0,438),(0,6);:_ZN11stlpmtx_std15iterator_traitsINS_16reverse_iteratorIP7VertexFEEEC2Ev;2A.;__comp_ctor::(0,442):_ZN11stlpmtx_std15iterator_traitsINS_16reverse_iteratorIP7VertexFEEEC1Ev;2A.;;",128,0,147,0
	.stabs	"_CompleteMove:t(0,443)=(29,9)",128,0,233,0
	.stabs	"_CompleteMove:t(0,444)=(29,9)",128,0,233,0
.code
	.stabs	"_ZN10Algorithms9multilaneE6VertexS0_S0_:F(0,4)",36,0,13,__ZN10Algorithms9multilaneE6VertexS0_S0_
	.stabs	"p1:P(43,1)",64,0,13,18
	.stabs	"p2:P(43,1)",64,0,13,16
	.stabs	"v:p(43,1)",160,0,13,0
	.global	__ZN10Algorithms9multilaneE6VertexS0_S0_

.func __ZN10Algorithms9multilaneE6VertexS0_S0_, 6, int
	.line 13
	push rt,d0
	ld   fr,sp
	add  fr,#0xc
	ld   r2,i0
	ld   r0,i2
	ld   r14,[fr]
	ld   r15,[fr,4]
	.dlab LBB2
	.dlab LBB3
	.line 14
	mul  i0,i3
	ld   r4,i2
	mul  r4,r15
	add  i0,r4
	ld   r4,r14
	mul  r4,i1
	add  i0,r4
	ld   r4,r14
	mul  r4,i3
	sub  i0,r4
	ld   r14,r2
	mul  r14,r15
	sub  i0,r14
	mul  r0,i1
	sub  i0,r0
	call &___floatsisf ; call non-native
	ld d0,r14
	.line 15
	ld i0,r14
	ld i1,#0x0		; 0
	call &___lesf2 ; call non-native
	.line 16
	ld   r0,#0x1
	.line 15
	ld   r1,#0x0
	jc   le,r14,r1,#L1
	.line 17
	ld i0,d0
	ld i1,#0x0		; 0
	call &___gtsf2 ; call non-native
	.line 18
	ld   r0,#0x0
L1:
	.dlab LBE3
	.dlab LBE2
	.line 19
	ld   r14,r0
	pop  rt,d0
	ret
	.stabs	"v:r(43,1)",64,0,13,30
	.stabs	"det:r(0,9)",64,0,14,4
	.stabn	192,0,0,LBB3-__ZN10Algorithms9multilaneE6VertexS0_S0_
	.stabn	224,0,0,LBE3-__ZN10Algorithms9multilaneE6VertexS0_S0_
Lscope0:
	.stabs	"_ZN10Algorithms13SectionLengthE6VertexS0_:F(0,9)",36,0,22,__ZN10Algorithms13SectionLengthE6VertexS0_
	.stabs	"v1:p(43,1)",160,0,22,-36
	.stabs	"v2:p(43,1)",160,0,22,-44
	.global	__ZN10Algorithms13SectionLengthE6VertexS0_

.func __ZN10Algorithms13SectionLengthE6VertexS0_, 4, float
	.line 22
	push rt,d4
	sub  sp,#0x10
	ld   fr,sp
	add  fr,#0x2c
	ld   [fr,-36],i0
	ld   d4,fr
	add  d4,#0xffffffdc
	ld   [fr,-32],i1
	ld   [fr,-44],i2
	ld   d3,fr
	add  d3,#0xffffffd4
	ld   [fr,-40],i3
	.dlab LBB4
	.dlab LBB5
	.dlab LBB6
	.dlab LBB7
	.dlab LBB8
	.dlab LBB9
	.stabs	"/Applications/MoSync/include/newlib/stlport/stl/_algobase.h",132,0,0,Ltext1
Ltext1:
	.line 141
	ld   d1,i2
	ld   d0,i0
	ld   i0,d4
	jc   lt,i2,d0,#L11
	ld   i0,d3
L11:
	.dlab LBE9
	.dlab LBE8
	ld   i0,[i0]
	call &___floatsisf ; call non-native
	ld d2,r14
	.dlab LBB10
	.dlab LBB11
	.line 139
	ld   i0,d3
	jc   le,d1,d0,#L14
	ld   i0,d4
L14:
	.dlab LBE11
	.dlab LBE10
	ld   i0,[i0]
	call &___floatsisf ; call non-native
	ld i0,d2
	ld i1,r14
	call &___subsf3 ; call non-native
	.dlab LBB12
	.stabs	"/Applications/MoSync/include/newlib/stlport/stl/_cmath.h",132,0,0,Ltext2
Ltext2:
	.line 458
	ld i0,r14
	ld i1,#0x40000000		; 3.21142669797e-322
	call &_powf ; call non-native
	ld d1,r14
	.dlab LBE12
	.dlab LBE7
	.dlab LBB13
	.dlab LBB14
	.stabs	"/Applications/MoSync/include/newlib/stlport/stl/_algobase.h",132,0,0,Ltext3
Ltext3:
	.line 141
	ld   r1,d3
	add  r1,#0x4
	ld   r14,d4
	add  r14,#0x4
	.dlab LBB15
	ld   r0,[r1]
	ld   i0,r14
	ld   r14,[r14]
	jc   lt,r0,r14,#L18
	ld   i0,r1
L18:
	.dlab LBE15
	.dlab LBE14
	ld   i0,[i0]
	call &___floatsisf ; call non-native
	ld d0,r14
	.dlab LBB16
	.line 139
	ld   r14,d3
	add  r14,#0x4
	ld   r1,d4
	add  r1,#0x4
	.dlab LBB17
	ld   r0,[r14]
	ld   r2,[r1]
	jc   le,r0,r2,#L21
	ld   r14,r1
L21:
	.dlab LBE17
	.dlab LBE16
	ld   i0,[r14]
	call &___floatsisf ; call non-native
	ld i0,d0
	ld i1,r14
	call &___subsf3 ; call non-native
	.dlab LBB18
	.stabs	"/Applications/MoSync/include/newlib/stlport/stl/_cmath.h",132,0,0,Ltext4
Ltext4:
	.line 458
	ld i0,r14
	ld i1,#0x40000000		; 3.21142669797e-322
	call &_powf ; call non-native
	.dlab LBE18
	.dlab LBE13
	ld i0,d1
	ld i1,r14
	call &___addsf3 ; call non-native
	.dlab LBB19
	.line 450
	ld i0,r14
	call &_sqrtf ; call non-native
	.dlab LBE19
	.dlab LBE6
	.dlab LBB20
	.line 427
	and  r14,#0x7fffffff
	.dlab LBE20
	.dlab LBE5
	.dlab LBE4
	.stabs	"/Users/brzeszczot/workspace/mosync_engine2/Alg.cpp",132,0,0,Ltext5
Ltext5:
	.line 24
	add  sp,#0x10
	pop  rt,d4
	ret
	.stabs	"__a:r(0,445)=&(0,446)=k(0,3)",64,0,141,17
	.stabs	"__b:r(0,445)",64,0,141,30
	.stabn	192,0,0,LBB14-__ZN10Algorithms13SectionLengthE6VertexS0_
	.stabn	224,0,0,LBE14-__ZN10Algorithms13SectionLengthE6VertexS0_
	.stabs	"__a:r(0,447)=&(0,448)=k(12,3)",64,0,139,30
	.stabs	"__b:r(0,447)",64,0,139,17
	.stabn	192,0,0,LBB16-__ZN10Algorithms13SectionLengthE6VertexS0_
	.stabn	224,0,0,LBE16-__ZN10Algorithms13SectionLengthE6VertexS0_
Lscope1:
	.stabs	"_ZN10Algorithms13ObjectVisibleE6VertexS0_S0_S0_:F(0,4)",36,0,27,__ZN10Algorithms13ObjectVisibleE6VertexS0_S0_S0_
	.stabs	"p1:P(43,1)",64,0,27,7
	.stabs	"p2:p(43,1)",160,0,27,-48
	.stabs	"v1:p(43,1)",160,0,27,0
	.stabs	"v2:p(43,1)",160,0,27,8
	.global	__ZN10Algorithms13ObjectVisibleE6VertexS0_S0_S0_

.func __ZN10Algorithms13ObjectVisibleE6VertexS0_S0_S0_, 8, int
	.line 27
	push rt,d7
	sub  sp,#0x2c
	ld   fr,sp
	add  fr,#0x54
	ld   d3,i0
	ld   d4,i1
	ld   [fr,-48],i2
	ld   [fr,-44],i3
	ld   d5,[fr,8]
	ld   d6,[fr,12]
	.dlab LBB21
	.dlab LBB22
	.dlab LBB23
	.dlab LBB24
	.stabs	"/Users/brzeszczot/workspace/mosync_engine2/Vertex.hpp",132,0,0,Ltext6
Ltext6:
	.line 16
	ld   r0,#0x0
	ld   [fr,-56],r0
	ld   [fr,-52],r0
	.dlab LBE24
	.dlab LBE23
	.dlab LBB25
	.dlab LBB26
	ld   [fr,-64],r0
	ld   [fr,-60],r0
	.dlab LBE26
	.dlab LBE25
	.stabs	"/Users/brzeszczot/workspace/mosync_engine2/Alg.cpp",132,0,0,Ltext7
Ltext7:
	.line 29
	ld   r1,#0x0
	ld.b [fr,-65],r1
	.line 31
	ld r14,#0x0		; 0
	ld  [fr,-84],r14
	.line 32
	ld   [fr,-72],r0
	ld   [fr,-80],r0
	ld   [fr,-76],r0
	.dlab LBB27
	.line 35
	ld   d7,r0
L48:
	.dlab LBB28
	.dlab LBB29
	.line 37
	case d7,#0x0,#0x3,#L36,#L31
.data
	.align 4
L36:
	.word L32
	.word L33
	.word L34
	.word L35
.code
L33:
	.line 40
	ld   r14,[fr,-56]
	add  r14,d5
	.line 42
	ld   [fr,-56],r14
L31:
	.line 45
	ld   r1,[fr,-44]
	ld   i0,r1
	mul  i0,d3
	ld   d2,[fr,-48]
	ld   r0,[fr,-52]
	ld   r14,d2
	mul  r14,r0
	add  i0,r14
	ld   d1,[fr,-56]
	ld   r14,d1
	mul  r14,d4
	add  i0,r14
	ld   r14,d1
	mul  r14,r1
	sub  i0,r14
	mul  r0,d3
	sub  i0,r0
	ld   r14,d2
	mul  r14,d4
	sub  i0,r14
	call &___floatsisf ; call non-native
	ld d0,r14
	.line 47
	ld i0,r14
	ld i1,#0x0		; 0
	call &___ltsf2 ; call non-native
	ld   r1,#0x0
	jc   lt,r14,r1,#L72
	.line 48
	ld i0,d0
	ld i1,#0x0		; 0
	call &___gesf2 ; call non-native
	ld   r0,#0x0
	jc   lt,r14,r0,#L39
	ld   r1,[fr,-72]
	add  r1,#0x1
	ld   [fr,-72],r1
L39:
	.line 50
	jc   le,d1,d2,#L42
	ld   r14,[fr,-76]
	add  r14,#0x1
	ld   [fr,-76],r14
L43:
	.line 52
	ld   r14,[fr,-52]
	ld   r1,[fr,-44]
	jc   le,r14,r1,#L44
	ld   r14,[fr,-80]
	add  r14,#0x1
	ld   [fr,-80],r14
	.line 55
	ld   r0,[fr,-48]
	ld   r1,[fr,-44]
	ld   r14,[fr,-56]
	ld   r15,[fr,-52]
	ld   i0,r0
	ld   i1,r1
	ld   i2,r14
	ld   i3,r15
	call &__ZN10Algorithms13SectionLengthE6VertexS0_ ; call non-native
	ld d0,r14
	.line 58
	ld i0,[fr,-84]
	ld i1,#0x0		; 0
	call &___eqsf2 ; call non-native
	ld   r1,#0x0
	jc   eq,r14,r1,#L47
L77:
	ld i0,d0
	ld i1,[fr,-84]
	call &___ltsf2 ; call non-native
	ld   r0,#0x0
	jc   lt,r14,r0,#L47
L30:
	.dlab LBE29
	.dlab LBE28
	.line 35
	add  d7,#0x1
	ld   r1,#0x3
	jc   le,d7,r1,#L48
	.dlab LBE27
	.line 68
	ld   r14,[fr,-76]
	ld   r0,#0x4
	jc   eq,r14,r0,#L73
	ld   r14,[fr,-76]
	ld   r0,#0xfffffffc
	jc   eq,r14,r0,#L74
L55:
	.line 70
	ld   r1,[fr,-76]
	ld   r14,#0x4
	jc   eq,r1,r14,#L67
L59:
	.line 72
	ld   r1,[fr,-76]
	ld   r14,#0xfffffffc
	jc   eq,r1,r14,#L69
L60:
	ld   r1,[fr,-80]
	ld   r14,#0x4
	jc   eq,r1,r14,#L75
	ld   r1,[fr,-80]
	ld   r14,#0xfffffffc
	jc   eq,r1,r14,#L76
L52:
	.line 78
	ld   i0,[fr,-72]
	call &_abs ; call non-native
	ld   r0,#0x4
	jc   eq,r14,r0,#L62
	ld.b r14,[fr,-65]
	and  r14,#0xff  ; zero extend
	.line 79
	ld   r0,#0x0
	.line 78
	jc   ne,r14,r0,#L25
L62:
	.line 82
	ld   r0,#0x1
L25:
	.dlab LBE22
	.dlab LBE21
	.line 83
	ld   r14,r0
	add  sp,#0x2c
	pop  rt,d7
	ret
L35:
	.dlab LBB30
	.dlab LBB31
	.dlab LBB32
	.dlab LBB33
	.dlab LBB34
	.line 42
	ld   r14,[fr,-56]
	sub  r14,d5
	ld   [fr,-56],r14
	jp   #L31
L32:
	.line 39
	ld   r14,[fr]
	ld   r15,[fr,4]
	ld   i0,fr
	add  i0,#0xffffffc8
	ld   i1,r14
	ld   i2,r15
	call &__ZN6VertexaSES_ ; call non-native
	jp   #L31
L34:
	.line 41
	ld   r14,[fr,-52]
	add  r14,d6
	ld   [fr,-52],r14
	jp   #L31
L44:
	.line 53
	ld   r0,[fr,-80]
	add  r0,#0xffffffff
	ld   [fr,-80],r0
	.line 55
	ld   r0,[fr,-48]
	ld   r1,[fr,-44]
	ld   r14,[fr,-56]
	ld   r15,[fr,-52]
	ld   i0,r0
	ld   i1,r1
	ld   i2,r14
	ld   i3,r15
	call &__ZN10Algorithms13SectionLengthE6VertexS0_ ; call non-native
	ld d0,r14
	.line 58
	ld i0,[fr,-84]
	ld i1,#0x0		; 0
	call &___eqsf2 ; call non-native
	ld   r1,#0x0
	jc   ne,r14,r1,#L77
L47:
	.line 60
	ld   r14,[fr,-56]
	ld   r15,[fr,-52]
	ld   i0,fr
	add  i0,#0xffffffc0
	ld   i1,r14
	ld   i2,r15
	call &__ZN6VertexaSES_ ; call non-native
	.line 61
	ld  [fr,-84],d0
	jp   #L30
L42:
	.line 51
	ld   r0,[fr,-76]
	add  r0,#0xffffffff
	ld   [fr,-76],r0
	jp   #L43
L72:
	.line 47
	ld   r14,[fr,-72]
	add  r14,#0xffffffff
	ld   [fr,-72],r14
	jp   #L39
L73:
	.dlab LBE34
	.dlab LBE33
	.dlab LBE32
	.line 68
	ld   r1,[fr,-80]
	jc   eq,r1,r14,#L78
L67:
	.line 70
	ld   r0,[fr,-80]
	ld   r1,#0xfffffffc
	jc   eq,r0,r1,#L79
L68:
	.line 72
	ld   i0,[fr,-80]
	call &_abs ; call non-native
	ld   r0,[fr,-76]
	jc   eq,r14,r0,#L60
	ld   r14,[fr,-64]
	jc   ge,r14,d3,#L60
L58:
	.line 73
	ld   r1,#0x1
	ld.b [fr,-65],r1
	jp   #L52
L74:
	.line 68
	ld   r1,[fr,-80]
	jc   eq,r1,r14,#L80
L66:
	.line 70
	ld   r14,[fr,-80]
	ld   r0,#0x4
	jc   eq,r14,r0,#L81
L69:
	.line 72
	ld   i0,[fr,-80]
	call &_abs ; call non-native
	ld   r0,#0x4
	jc   eq,r14,r0,#L60
	ld   r14,[fr,-64]
	jc   gt,r14,d3,#L58
	jp   #L60
L80:
	.line 68
	ld   r14,[fr,-64]
	jc   le,r14,d3,#L66
	ld   r14,[fr,-60]
	jc   le,r14,d4,#L66
L54:
	.line 71
	ld   r14,#0x1
	ld.b [fr,-65],r14
	jp   #L52
L79:
	.line 70
	ld   r14,[fr,-64]
	jc   ge,r14,d3,#L68
	ld   r14,[fr,-60]
	jc   le,r14,d4,#L68
	.line 71
	ld   r14,#0x1
	ld.b [fr,-65],r14
	jp   #L52
L75:
	.line 72
	ld   i0,[fr,-76]
	call &_abs ; call non-native
	ld   r0,[fr,-80]
	jc   eq,r14,r0,#L52
	ld   r14,[fr,-60]
	jc   ge,r14,d4,#L52
	.line 73
	ld   r1,#0x1
	ld.b [fr,-65],r1
	jp   #L52
L76:
	.line 72
	ld   i0,[fr,-76]
	call &_abs ; call non-native
	ld   r0,#0x4
	jc   eq,r14,r0,#L52
	ld   r14,[fr,-60]
	jc   le,r14,d4,#L52
	.line 73
	ld   r1,#0x1
	ld.b [fr,-65],r1
	jp   #L52
L78:
	.line 68
	ld   r14,[fr,-64]
	jc   ge,r14,d3,#L67
	ld   r14,[fr,-60]
	jc   lt,r14,d4,#L54
	.line 70
	ld   r0,[fr,-76]
	ld   r1,#0xfffffffc
	jc   ne,r0,r1,#L55
	jp   #L66
L81:
	ld   r14,[fr,-64]
	jc   le,r14,d3,#L69
	ld   r14,[fr,-60]
	jc   lt,r14,d4,#L54
	.line 72
	ld   r0,[fr,-76]
	ld   r1,#0x4
	jc   ne,r0,r1,#L59
	jp   #L68
	.dlab LBE31
	.dlab LBE30
	.stabs	"v2:r(43,1)",64,0,27,9
	.stabs	"v:(43,1)",128,0,28,-56
	.stabs	"p_min:(43,1)",128,0,28,-64
	.stabs	"allow:(0,4)",128,0,29,-65
	.stabs	"colision:(0,3)",128,0,30,-72
	.stabs	"x_domin:(0,3)",128,0,30,-76
	.stabs	"y_domin:(0,3)",128,0,30,-80
	.stabs	"vmin:(0,9)",128,0,31,-84
	.stabn	192,0,0,LBB22-__ZN10Algorithms13ObjectVisibleE6VertexS0_S0_S0_
	.stabs	"jj:r(0,3)",64,0,35,11
	.stabn	192,0,0,LBB27-__ZN10Algorithms13ObjectVisibleE6VertexS0_S0_S0_
	.stabs	"det:r(0,9)",64,0,45,4
	.stabn	192,0,0,LBB29-__ZN10Algorithms13ObjectVisibleE6VertexS0_S0_S0_
	.stabn	224,0,0,LBE29-__ZN10Algorithms13ObjectVisibleE6VertexS0_S0_S0_
	.stabn	224,0,0,LBE27-__ZN10Algorithms13ObjectVisibleE6VertexS0_S0_S0_
	.stabn	224,0,0,LBE22-__ZN10Algorithms13ObjectVisibleE6VertexS0_S0_S0_
	.stabs	"v:(43,1)",128,0,28,-56
	.stabs	"p_min:(43,1)",128,0,28,-64
	.stabs	"allow:(0,4)",128,0,29,-65
	.stabs	"colision:(0,3)",128,0,30,-72
	.stabs	"x_domin:(0,3)",128,0,30,-76
	.stabs	"y_domin:(0,3)",128,0,30,-80
	.stabs	"vmin:(0,9)",128,0,31,-84
	.stabn	192,0,0,LBB31-__ZN10Algorithms13ObjectVisibleE6VertexS0_S0_S0_
	.stabs	"jj:r(0,3)",64,0,35,11
	.stabn	192,0,0,LBB32-__ZN10Algorithms13ObjectVisibleE6VertexS0_S0_S0_
	.stabs	"det:r(0,9)",64,0,45,4
	.stabn	192,0,0,LBB34-__ZN10Algorithms13ObjectVisibleE6VertexS0_S0_S0_
	.stabn	224,0,0,LBE34-__ZN10Algorithms13ObjectVisibleE6VertexS0_S0_S0_
	.stabn	224,0,0,LBE32-__ZN10Algorithms13ObjectVisibleE6VertexS0_S0_S0_
	.stabn	224,0,0,LBE31-__ZN10Algorithms13ObjectVisibleE6VertexS0_S0_S0_
Lscope2:
	.stabs	"_ZN10Algorithms4lerpER7VertexFRKS0_S3_f:F(0,6)",36,0,187,__ZN10Algorithms4lerpER7VertexFRKS0_S3_f
	.stabs	"dest:P(0,157)",64,0,187,8
	.stabs	"a:P(44,10)",64,0,187,5
	.stabs	"b:P(44,10)",64,0,187,6
	.stabs	"t:P(0,449)=k(0,9)",64,0,187,7
	.global	__ZN10Algorithms4lerpER7VertexFRKS0_S3_f

.func __ZN10Algorithms4lerpER7VertexFRKS0_S3_f, 4, void
	.line 187
	push rt,d4
	ld   fr,sp
	add  fr,#0x1c
	ld   d4,i0
	ld   d1,i1
	ld   d2,i2
	ld d3,i3
	.dlab LBB35
	.line 188
	ld d0,[i1]
	ld i0,[i2]
	ld i1,d0
	call &___subsf3 ; call non-native
	ld i0,r14
	ld i1,d3
	call &___mulsf3 ; call non-native
	ld i0,d0
	ld i1,r14
	call &___addsf3 ; call non-native
	ld  [d4],r14
	.line 189
	ld d0,[d1,4]
	ld i0,[d2,4]
	ld i1,d0
	call &___subsf3 ; call non-native
	ld i0,r14
	ld i1,d3
	call &___mulsf3 ; call non-native
	ld i0,d0
	ld i1,r14
	call &___addsf3 ; call non-native
	ld  [d4,4],r14
	.dlab LBE35
	pop  rt,d4
	ret
Lscope3:
	.stabs	"_ZN10Algorithms13bezier_pointsER7VertexFRKS0_S3_S3_S3_f:F(0,6)",36,0,193,__ZN10Algorithms13bezier_pointsER7VertexFRKS0_S3_S3_S3_f
	.stabs	"dest:p(0,157)",160,0,193,-84
	.stabs	"a:P(44,10)",64,0,193,13
	.stabs	"b:P(44,10)",64,0,193,11
	.stabs	"c:P(44,10)",64,0,193,6
	.stabs	"d:p(44,10)",160,0,193,0
	.stabs	"t:p(0,449)",160,0,193,4
	.global	__ZN10Algorithms13bezier_pointsER7VertexFRKS0_S3_S3_S3_f

.func __ZN10Algorithms13bezier_pointsER7VertexFRKS0_S3_S3_S3_f, 6, void
	.line 193
	push rt,d7
	sub  sp,#0x2c
	ld   fr,sp
	add  fr,#0x54
	ld   [fr,-84],i0
	ld   d7,i2
	ld   d2,i3
	ld d0,[fr,4]
	.dlab LBB36
	.dlab LBB37
	.dlab LBB38
	.stabs	"/Users/brzeszczot/workspace/mosync_engine2/VertexF.hpp",132,0,0,Ltext8
Ltext8:
	.line 16
	ld   d4,fr
	add  d4,#0xffffffd0
	.dlab LBB39
	ld r14,#0x0		; 0
	ld  [fr,-48],r14
	ld  [fr,-44],r14
	.dlab LBE39
	.dlab LBE38
	.dlab LBB40
	ld   d1,fr
	add  d1,#0xffffffc8
	.dlab LBB41
	ld  [fr,-56],r14
	ld  [fr,-52],r14
	.dlab LBE41
	.dlab LBE40
	.dlab LBB42
	ld   d5,fr
	add  d5,#0xffffffc0
	.dlab LBB43
	ld  [fr,-64],r14
	ld  [fr,-60],r14
	.dlab LBE43
	.dlab LBE42
	.dlab LBB44
	ld   d6,fr
	add  d6,#0xffffffb8
	.dlab LBB45
	ld  [fr,-72],r14
	ld  [fr,-68],r14
	.dlab LBE45
	.dlab LBE44
	.dlab LBB46
	ld   d3,fr
	add  d3,#0xffffffb0
	.dlab LBB47
	ld  [fr,-80],r14
	ld  [fr,-76],r14
	.dlab LBE47
	.dlab LBE46
	.stabs	"/Users/brzeszczot/workspace/mosync_engine2/Alg.cpp",132,0,0,Ltext9
Ltext9:
	.line 195
	ld   i0,d4
	ld i3,d0
	call &__ZN10Algorithms4lerpER7VertexFRKS0_S3_f ; call non-native
	.line 196
	ld   i0,d1
	ld   i1,d7
	ld   i2,d2
	ld i3,d0
	call &__ZN10Algorithms4lerpER7VertexFRKS0_S3_f ; call non-native
	.line 197
	ld   i0,d5
	ld   i1,d2
	ld   i2,[fr]
	ld i3,d0
	call &__ZN10Algorithms4lerpER7VertexFRKS0_S3_f ; call non-native
	.line 198
	ld   i0,d6
	ld   i1,d4
	ld   i2,d1
	ld i3,d0
	call &__ZN10Algorithms4lerpER7VertexFRKS0_S3_f ; call non-native
	.line 199
	ld   i0,d3
	ld   i1,d1
	ld   i2,d5
	ld i3,d0
	call &__ZN10Algorithms4lerpER7VertexFRKS0_S3_f ; call non-native
	.line 200
	ld   i0,[fr,-84]
	ld   i1,d6
	ld   i2,d3
	ld i3,d0
	call &__ZN10Algorithms4lerpER7VertexFRKS0_S3_f ; call non-native
	.dlab LBE37
	.dlab LBE36
	add  sp,#0x2c
	pop  rt,d7
	ret
	.stabs	"t:r(0,449)",64,0,193,4
	.stabs	"ab:(44,1)",128,0,194,-48
	.stabs	"bc:(44,1)",128,0,194,-56
	.stabs	"cd:(44,1)",128,0,194,-64
	.stabs	"abbc:(44,1)",128,0,194,-72
	.stabs	"bccd:(44,1)",128,0,194,-80
	.stabn	192,0,0,LBB37-__ZN10Algorithms13bezier_pointsER7VertexFRKS0_S3_S3_S3_f
	.stabs	"this:r(0,450)=k(44,3)",64,0,16,8
	.stabn	192,0,0,LBB38-__ZN10Algorithms13bezier_pointsER7VertexFRKS0_S3_S3_S3_f
	.stabn	224,0,0,LBE38-__ZN10Algorithms13bezier_pointsER7VertexFRKS0_S3_S3_S3_f
	.stabs	"this:r(0,450)",64,0,16,5
	.stabn	192,0,0,LBB40-__ZN10Algorithms13bezier_pointsER7VertexFRKS0_S3_S3_S3_f
	.stabn	224,0,0,LBE40-__ZN10Algorithms13bezier_pointsER7VertexFRKS0_S3_S3_S3_f
	.stabs	"this:r(0,450)",64,0,16,9
	.stabn	192,0,0,LBB42-__ZN10Algorithms13bezier_pointsER7VertexFRKS0_S3_S3_S3_f
	.stabn	224,0,0,LBE42-__ZN10Algorithms13bezier_pointsER7VertexFRKS0_S3_S3_S3_f
	.stabs	"this:r(0,450)",64,0,16,10
	.stabn	192,0,0,LBB44-__ZN10Algorithms13bezier_pointsER7VertexFRKS0_S3_S3_S3_f
	.stabn	224,0,0,LBE44-__ZN10Algorithms13bezier_pointsER7VertexFRKS0_S3_S3_S3_f
	.stabs	"this:r(0,450)",64,0,16,7
	.stabn	192,0,0,LBB46-__ZN10Algorithms13bezier_pointsER7VertexFRKS0_S3_S3_S3_f
	.stabn	224,0,0,LBE46-__ZN10Algorithms13bezier_pointsER7VertexFRKS0_S3_S3_S3_f
	.stabn	224,0,0,LBE37-__ZN10Algorithms13bezier_pointsER7VertexFRKS0_S3_S3_S3_f
Lscope4:
.data
LC0:
	.ascii "vector\0"
.code
	.stabs	"_ZNK11stlpmtx_std4priv12_Vector_baseI6VertexNS_9allocatorIS2_EEE21_M_throw_length_errorEv:f(0,6)",36,0,41,__ZNK11stlpmtx_std4priv12_Vector_baseI6VertexNS_9allocatorIS2_EEE21_M_throw_length_errorEv
	.stabs	"this:P(0,451)=k(0,83)",64,0,41,12

.func __ZNK11stlpmtx_std4priv12_Vector_baseI6VertexNS_9allocatorIS2_EEE21_M_throw_length_errorEv, 1, void
	.stabs	"/Applications/MoSync/include/newlib/stlport/stl/_vector.c",132,0,0,Ltext10
Ltext10:
	.line 41
	push rt,fr
	ld   fr,sp
	add  fr,#0x8
	.dlab LBB48
	.dlab LBB49
	.dlab LBB50
	.stabs	"/Applications/MoSync/include/newlib/stlport/stl/_range_errors.c",132,0,0,Ltext11
Ltext11:
	.line 73
	ld   i0,#LC0
	call &_puts ; call non-native
	call &_abort ; call non-native
	.dlab LBE50
	.dlab LBE49
	.dlab LBE48
Lscope5:
	.stabs	"_ZNK11stlpmtx_std4priv12_Vector_baseI7VertexFNS_9allocatorIS2_EEE21_M_throw_length_errorEv:f(0,6)",36,0,41,__ZNK11stlpmtx_std4priv12_Vector_baseI7VertexFNS_9allocatorIS2_EEE21_M_throw_length_errorEv
	.stabs	"this:P(0,452)=k(0,196)",64,0,41,12

.func __ZNK11stlpmtx_std4priv12_Vector_baseI7VertexFNS_9allocatorIS2_EEE21_M_throw_length_errorEv, 1, void
	.stabs	"/Applications/MoSync/include/newlib/stlport/stl/_vector.c",132,0,0,Ltext12
Ltext12:
	.line 41
	push rt,fr
	ld   fr,sp
	add  fr,#0x8
	.dlab LBB51
	.dlab LBB52
	.dlab LBB53
	.stabs	"/Applications/MoSync/include/newlib/stlport/stl/_range_errors.c",132,0,0,Ltext13
Ltext13:
	.line 73
	ld   i0,#LC0
	call &_puts ; call non-native
	call &_abort ; call non-native
	.dlab LBE53
	.dlab LBE52
	.dlab LBE51
Lscope6:
.data
LC1:
	.ascii "out of memory\12\0"
.code
	.stabs	"_ZN11stlpmtx_std6vectorI6VertexNS_9allocatorIS1_EEE22_M_insert_overflow_auxEPS1_RKS1_RKNS_12__false_typeEmb:f(0,6)",36,0,82,__ZN11stlpmtx_std6vectorI6VertexNS_9allocatorIS1_EEE22_M_insert_overflow_auxEPS1_RKS1_RKNS_12__false_typeEmb
	.stabs	"this:P(0,453)=k(0,94)",64,0,82,6
	.stabs	"__pos:P(43,3)",64,0,82,10
	.stabs	"__x:P(43,10)",64,0,82,5
	.stabs	"__fill_len:p(12,2)",160,0,82,0
	.stabs	"__atend:p(0,4)",160,0,82,4

.func __ZN11stlpmtx_std6vectorI6VertexNS_9allocatorIS1_EEE22_M_insert_overflow_auxEPS1_RKS1_RKNS_12__false_typeEmb, 6, void
	.stabs	"/Applications/MoSync/include/newlib/stlport/stl/_vector.c",132,0,0,Ltext14
Ltext14:
	.line 82
	push rt,d6
	sub  sp,#0x20
	ld   fr,sp
	add  fr,#0x44
	ld   d2,i0
	ld   d6,i1
	ld   d1,i2
	ld   d4,[fr]
	.dlab LBB54
	.dlab LBB55
	.dlab LBB56
	.stabs	"/Applications/MoSync/include/newlib/stlport/stl/_vector.h",132,0,0,Ltext15
Ltext15:
	.line 171
	ld   r1,d4
	ld   [fr,-64],d4
	.dlab LBB57
	.dlab LBB58
	.dlab LBB59
	.dlab LBB60
	.line 192
	ld   r0,[i0,4]
	ld   r2,[i0]
	sub  r0,r2
	sra  r0,#0x3
	.dlab LBE60
	.dlab LBE59
	ld   [fr,-68],r0
	.dlab LBB61
	.dlab LBB62
	.dlab LBB63
	.line 194
	ld   r14,#0x1fffffff
	.dlab LBE63
	.dlab LBE62
	.dlab LBE61
	.line 193
	sub  r14,r0
	jc   ltu,r14,d4,#L212
L95:
	.dlab LBB64
	.dlab LBB65
	.stabs	"/Applications/MoSync/include/newlib/stlport/stl/_algobase.h",132,0,0,Ltext16
Ltext16:
	.line 141
	ld   r14,fr
	add  r14,#0xffffffbc
	jc   ltu,r1,r0,#L101
	add  r14,#0x4
L101:
	.dlab LBE65
	.dlab LBE64
	ld   i0,[r14]
	add  i0,r0
	.stabs	"/Applications/MoSync/include/newlib/stlport/stl/_vector.h",132,0,0,Ltext17
Ltext17:
	.line 193
	ld   r14,#0x1fffffff
	jc   gtu,i0,r14,#L103
	jc   geu,i0,r0,#L102
L103:
	ld   i0,#0x1fffffff
L207:
	.dlab LBE58
	.dlab LBE57
	.dlab LBE56
	.dlab LBB66
	.dlab LBB67
	.dlab LBB68
	.dlab LBB69
	.dlab LBB70
	.dlab LBB71
	.dlab LBB72
	.dlab LBB73
	.dlab LBB74
	.dlab LBB75
	.stabs	"/Applications/MoSync/include/newlib/stlport/stl/_alloc.h",132,0,0,Ltext18
Ltext18:
	.line 347
	ld   d0,i0
	sll  d0,#0x3
	.dlab LBB76
	.dlab LBB77
	.dlab LBB78
	.dlab LBB79
	.dlab LBB80
	.stabs	"/Applications/MoSync/include/newlib/stlport/stl/_new.h",132,0,0,Ltext19
Ltext19:
	.line 113
	ld   i0,d0
	call &__Znwm ; call non-native
	ld   r0,#0x0
	jc   eq,r14,r0,#L211
	.dlab LBE80
	.dlab LBE79
	.dlab LBE78
	.dlab LBE77
	.dlab LBE76
	.stabs	"/Applications/MoSync/include/newlib/stlport/stl/_alloc.h",132,0,0,Ltext20
Ltext20:
	.line 352
	ld   d3,d0
	srl  d3,#0x3
	ld   d5,r14
L117:
	.dlab LBE75
	.dlab LBE74
	.dlab LBE73
	.dlab LBE72
	.dlab LBE71
	.dlab LBE70
	.dlab LBE69
	.dlab LBE68
	.dlab LBE67
	.dlab LBE66
	.dlab LBB81
	.stabs	"/Applications/MoSync/include/newlib/stlport/stl/_uninitialized.h",132,0,0,Ltext21
Ltext21:
	.line 420
	ld   i0,[d2]
	.dlab LBB82
	.dlab LBB83
	.dlab LBB84
	.dlab LBB85
	.line 83
	ld   r14,i0
	.dlab LBB86
	.dlab LBB87
	.line 84
	ld   r0,d5
	.dlab LBB88
	.dlab LBB89
	.line 86
	ld   r1,d6
	sub  r1,i0
	sra  r1,#0x3
	ld   r2,#0x0
	jc   le,r1,r2,#L201
L213:
	.dlab LBB90
	.dlab LBB91
	.dlab LBB92
	.dlab LBB93
	.stabs	"/Applications/MoSync/include/newlib/stlport/../new",132,0,0,Ltext22
Ltext22:
	.line 83
	ld   r2,[r14]
	ld   [r0],r2
	ld   r2,[r14,4]
	ld   [r0,4],r2
	.dlab LBE93
	.dlab LBE92
	.dlab LBE91
	.dlab LBE90
	.stabs	"/Applications/MoSync/include/newlib/stlport/stl/_uninitialized.h",132,0,0,Ltext23
Ltext23:
	.line 88
	add  r14,#0x8
	.line 89
	add  r0,#0x8
	.line 86
	add  r1,#0xffffffff
	ld   r2,#0x0
	jc   gt,r1,r2,#L213
L201:
	.dlab LBE89
	.dlab LBE88
	.dlab LBE87
	.dlab LBE86
	.dlab LBE85
	.dlab LBE84
	.dlab LBE83
	.dlab LBE82
	.dlab LBE81
	.stabs	"/Applications/MoSync/include/newlib/stlport/stl/_vector.c",132,0,0,Ltext24
Ltext24:
	.line 93
	ld   r14,#0x1
	jc   eq,d4,r14,#L214
	.dlab LBB94
	.dlab LBB95
	.dlab LBB96
	.stabs	"/Applications/MoSync/include/newlib/stlport/stl/_uninitialized.h",132,0,0,Ltext25
Ltext25:
	.line 314
	ld   r14,d4
	sll  r14,#0x3
	.dlab LBB97
	.dlab LBB98
	.dlab LBB99
	.dlab LBB100
	.dlab LBB101
	.line 249
	ld   r1,r14
	add  r1,r0
	sra  r14,#0x3
	ld   r2,#0x0
	jc   le,r14,r2,#L203
L215:
	.dlab LBB102
	.dlab LBB103
	.dlab LBB104
	.dlab LBB105
	.stabs	"/Applications/MoSync/include/newlib/stlport/../new",132,0,0,Ltext26
Ltext26:
	.line 83
	ld   r2,[d1]
	ld   [r0],r2
	ld   r2,[d1,4]
	ld   [r0,4],r2
	.dlab LBE105
	.dlab LBE104
	.dlab LBE103
	.dlab LBE102
	.stabs	"/Applications/MoSync/include/newlib/stlport/stl/_uninitialized.h",132,0,0,Ltext27
Ltext27:
	.line 249
	add  r14,#0xffffffff
	add  r0,#0x8
	ld   r2,#0x0
	jc   gt,r14,r2,#L215
L203:
	.dlab LBE101
	.dlab LBE100
	.dlab LBE99
	.dlab LBE98
	.dlab LBE97
	.dlab LBE96
	.dlab LBE95
	.dlab LBE94
	.line 313
	ld   d0,r1
	.stabs	"/Applications/MoSync/include/newlib/stlport/stl/_vector.c",132,0,0,Ltext28
Ltext28:
	.line 98
	ld.b r2,[fr,4]
	and  r2,#0xff  ; zero extend
	ld   r14,#0x0
	jc   eq,r2,r14,#L216
L206:
	ld   r1,[d2,4]
L150:
	.dlab LBB106
	.dlab LBB107
	.dlab LBB108
	.dlab LBB109
	.dlab LBB110
	.dlab LBB111
	.dlab LBB112
	.stabs	"/Applications/MoSync/include/newlib/stlport/stl/_iterator.h",132,0,0,Ltext29
Ltext29:
	.line 64
	ld   [fr,-40],r1
	.dlab LBE112
	.dlab LBE111
	.dlab LBE110
	.dlab LBE109
	.dlab LBB113
	.dlab LBB114
	.dlab LBB115
	.dlab LBB116
	ld   [fr,-44],i0
	.dlab LBE116
	.dlab LBE115
	.dlab LBE114
	.dlab LBE113
	.dlab LBB117
	.dlab LBB118
	.dlab LBB119
	.dlab LBB120
	.line 65
	ld   [fr,-48],r1
	.dlab LBE120
	.dlab LBE119
	.dlab LBB121
	.dlab LBB122
	ld   [fr,-52],i0
	.dlab LBE122
	.dlab LBE121
	.dlab LBB123
	.dlab LBB124
	.dlab LBB125
	.dlab LBB126
	.dlab LBB127
	ld   r2,r1
	.dlab LBE127
	.dlab LBE126
	.dlab LBB128
	.dlab LBB129
	ld   [fr,-60],i0
	jp   #L179
L190:
	.dlab LBE129
	.dlab LBE128
	.dlab LBB130
	.dlab LBB131
	.dlab LBB132
	.dlab LBB133
	.dlab LBB134
	.line 76
	ld   r2,r1
	add  r2,#0xfffffff8
	.dlab LBE134
	.dlab LBE133
	.dlab LBE132
	.dlab LBE131
	.dlab LBB135
	.dlab LBB136
	.line 81
	ld   r1,r2
L179:
	.dlab LBE136
	.dlab LBE135
	.dlab LBB137
	.dlab LBB138
	.dlab LBB139
	.dlab LBB140
	.line 74
	ld   r14,r1
	xor  r14,i0
	neg r0,r14
	or   r0,r14
	srl  r0,#0x1f
	ld   r14,#0x1
	sub  r14,r0
	.dlab LBE140
	.dlab LBE139
	.dlab LBE138
	.dlab LBE137
	.line 126
	xor  r14,#0x1
	and  r14,#0xff  ; zero extend
	ld   r0,#0x0
	jc   ne,r14,r0,#L190
	ld   [fr,-56],r2
	.dlab LBE130
	.dlab LBE125
	.dlab LBE124
	.dlab LBE123
	.dlab LBE118
	.dlab LBE117
	.dlab LBE108
	.dlab LBB141
	.dlab LBB142
	.stabs	"/Applications/MoSync/include/newlib/stlport/stl/_alloc.h",132,0,0,Ltext30
Ltext30:
	.line 319
	jc   ne,i0,r0,#L217
	.dlab LBE142
	.dlab LBE141
	.dlab LBE107
	.dlab LBE106
	.dlab LBB143
	.stabs	"/Applications/MoSync/include/newlib/stlport/stl/_vector.h",132,0,0,Ltext31
Ltext31:
	.line 665
	sll  d3,#0x3
	add  d3,d5
	.dlab LBB144
	.line 666
	ld   [d2],d5
	.line 667
	ld   [d2,4],d0
	.line 668
	ld   [d2,8],d3
	.dlab LBE144
	.dlab LBE143
	.dlab LBE55
	.dlab LBE54
	add  sp,#0x20
	pop  rt,d6
	ret
L102:
	.dlab LBB145
	.dlab LBB146
	.line 171
	ld   d3,i0
	.dlab LBB147
	.dlab LBB148
	.dlab LBB149
	.dlab LBB150
	.dlab LBB151
	.dlab LBB152
	.dlab LBB153
	.dlab LBB154
	.stabs	"/Applications/MoSync/include/newlib/stlport/stl/_alloc.h",132,0,0,Ltext32
Ltext32:
	.line 330
	ld   r0,#0x1fffffff
	jc   gtu,i0,r0,#L211
	.line 353
	ld   d5,i0
	.dlab LBB155
	.line 346
	ld   r2,#0x0
	jc   eq,i0,r2,#L117
	jp   #L207
L212:
	.dlab LBE155
	.dlab LBE154
	.dlab LBE153
	.dlab LBE152
	.dlab LBE151
	.dlab LBE150
	.dlab LBE149
	.dlab LBE148
	.dlab LBE147
	.dlab LBB156
	.dlab LBB157
	.dlab LBB158
	.stabs	"/Applications/MoSync/include/newlib/stlport/stl/_vector.h",132,0,0,Ltext33
Ltext33:
	.line 174
	call &__ZNK11stlpmtx_std4priv12_Vector_baseI6VertexNS_9allocatorIS2_EEE21_M_throw_length_errorEv ; call non-native
	ld   r1,[fr,-64]
	ld   r0,[fr,-68]
	jp   #L95
L214:
	.dlab LBE158
	.dlab LBE157
	.dlab LBE156
	.dlab LBB159
	.dlab LBB160
	.dlab LBB161
	.dlab LBB162
	.stabs	"/Applications/MoSync/include/newlib/stlport/../new",132,0,0,Ltext34
Ltext34:
	.line 83
	ld   r2,[d1]
	ld   [r0],r2
	ld   d1,[d1,4]
	ld   [r0,4],d1
	.dlab LBE162
	.dlab LBE161
	.dlab LBE160
	.dlab LBE159
	.stabs	"/Applications/MoSync/include/newlib/stlport/stl/_vector.c",132,0,0,Ltext35
Ltext35:
	.line 95
	ld   d0,r0
	add  d0,#0x8
	.line 98
	ld.b r2,[fr,4]
	and  r2,#0xff  ; zero extend
	ld   r14,#0x0
	jc   ne,r2,r14,#L206
L216:
	.dlab LBB163
	.stabs	"/Applications/MoSync/include/newlib/stlport/stl/_uninitialized.h",132,0,0,Ltext36
Ltext36:
	.line 420
	ld   r1,[d2,4]
	.dlab LBB164
	.dlab LBB165
	.dlab LBB166
	.dlab LBB167
	.line 83
	ld   i1,d6
	.dlab LBB168
	.dlab LBB169
	.line 84
	ld   r14,d0
	.dlab LBB170
	.dlab LBB171
	.line 86
	ld   r0,r1
	sub  r0,d6
	sra  r0,#0x3
	jc   le,r0,r2,#L205
L218:
	.dlab LBB172
	.dlab LBB173
	.dlab LBB174
	.dlab LBB175
	.stabs	"/Applications/MoSync/include/newlib/stlport/../new",132,0,0,Ltext37
Ltext37:
	.line 83
	ld   r2,[i1]
	ld   [r14],r2
	ld   r2,[i1,4]
	ld   [r14,4],r2
	.dlab LBE175
	.dlab LBE174
	.dlab LBE173
	.dlab LBE172
	.stabs	"/Applications/MoSync/include/newlib/stlport/stl/_uninitialized.h",132,0,0,Ltext38
Ltext38:
	.line 88
	add  i1,#0x8
	.line 89
	add  r14,#0x8
	.line 86
	add  r0,#0xffffffff
	ld   r2,#0x0
	jc   gt,r0,r2,#L218
L205:
	.dlab LBE171
	.dlab LBE170
	.dlab LBE169
	.dlab LBE168
	.dlab LBE167
	.dlab LBE166
	.dlab LBE165
	.dlab LBE164
	.dlab LBE163
	.line 420
	ld   d0,r14
	jp   #L150
L217:
	.dlab LBB176
	.dlab LBB177
	.dlab LBB178
	.dlab LBB179
	.dlab LBB180
	.dlab LBB181
	.dlab LBB182
	.dlab LBB183
	.stabs	"/Applications/MoSync/include/newlib/stlport/stl/_new.h",132,0,0,Ltext39
Ltext39:
	.line 114
	call &__ZdlPv ; call non-native
	.dlab LBE183
	.dlab LBE182
	.dlab LBE181
	.dlab LBE180
	.dlab LBE179
	.dlab LBE178
	.dlab LBE177
	.dlab LBE176
	.dlab LBB184
	.stabs	"/Applications/MoSync/include/newlib/stlport/stl/_vector.h",132,0,0,Ltext40
Ltext40:
	.line 665
	sll  d3,#0x3
	add  d3,d5
	.dlab LBB185
	.line 666
	ld   [d2],d5
	.line 667
	ld   [d2,4],d0
	.line 668
	ld   [d2,8],d3
	.dlab LBE185
	.dlab LBE184
	.dlab LBE146
	.dlab LBE145
	add  sp,#0x20
	pop  rt,d6
	ret
L211:
	.dlab LBB186
	.dlab LBB187
	.dlab LBB188
	.dlab LBB189
	.dlab LBB190
	.dlab LBB191
	.dlab LBB192
	.dlab LBB193
	.dlab LBB194
	.dlab LBB195
	.dlab LBB196
	.dlab LBB197
	.dlab LBB198
	.dlab LBB199
	.dlab LBB200
	.dlab LBB201
	.dlab LBB202
	.stabs	"/Applications/MoSync/include/newlib/stlport/stl/_new.h",132,0,0,Ltext41
Ltext41:
	.line 113
	ld   i0,#LC1
	call &_puts ; call non-native
	ld   i0,#0x1
	call &_exit ; call non-native
	.dlab LBE202
	.dlab LBE201
	.dlab LBE200
	.dlab LBE199
	.dlab LBE198
	.dlab LBE197
	.dlab LBE196
	.dlab LBE195
	.dlab LBE194
	.dlab LBE193
	.dlab LBE192
	.dlab LBE191
	.dlab LBE190
	.dlab LBE189
	.dlab LBE188
	.dlab LBE187
	.dlab LBE186
	.stabs	"__fill_len:r(12,2)",64,0,82,8
	.stabs	"__len:r(12,2)",64,0,87,7
	.stabs	"__new_finish:r(43,3)",64,0,89,4
	.stabn	192,0,0,LBB55-__ZN11stlpmtx_std6vectorI6VertexNS_9allocatorIS1_EEE22_M_insert_overflow_auxEPS1_RKS1_RKNS_12__false_typeEmb
	.stabs	"__n:(12,2)",128,0,171,-64
	.stabn	192,0,0,LBB56-__ZN11stlpmtx_std6vectorI6VertexNS_9allocatorIS1_EEE22_M_insert_overflow_auxEPS1_RKS1_RKNS_12__false_typeEmb
	.stabs	"__size:(0,454)=k(12,2)",128,0,172,-68
	.stabs	"__len:r(12,2)",64,0,175,12
	.stabn	192,0,0,LBB58-__ZN11stlpmtx_std6vectorI6VertexNS_9allocatorIS1_EEE22_M_insert_overflow_auxEPS1_RKS1_RKNS_12__false_typeEmb
	.stabn	224,0,0,LBE58-__ZN11stlpmtx_std6vectorI6VertexNS_9allocatorIS1_EEE22_M_insert_overflow_auxEPS1_RKS1_RKNS_12__false_typeEmb
	.stabn	224,0,0,LBE56-__ZN11stlpmtx_std6vectorI6VertexNS_9allocatorIS1_EEE22_M_insert_overflow_auxEPS1_RKS1_RKNS_12__false_typeEmb
	.stabs	"__buf_size:r(12,2)",64,0,347,4
	.stabn	192,0,0,LBB75-__ZN11stlpmtx_std6vectorI6VertexNS_9allocatorIS1_EEE22_M_insert_overflow_auxEPS1_RKS1_RKNS_12__false_typeEmb
	.stabs	"__y:r(7,28)",64,0,113,30
	.stabn	192,0,0,LBB80-__ZN11stlpmtx_std6vectorI6VertexNS_9allocatorIS1_EEE22_M_insert_overflow_auxEPS1_RKS1_RKNS_12__false_typeEmb
	.stabn	224,0,0,LBE80-__ZN11stlpmtx_std6vectorI6VertexNS_9allocatorIS1_EEE22_M_insert_overflow_auxEPS1_RKS1_RKNS_12__false_typeEmb
	.stabn	224,0,0,LBE75-__ZN11stlpmtx_std6vectorI6VertexNS_9allocatorIS1_EEE22_M_insert_overflow_auxEPS1_RKS1_RKNS_12__false_typeEmb
	.stabs	"__first:r(43,3)",64,0,83,30
	.stabn	192,0,0,LBB85-__ZN11stlpmtx_std6vectorI6VertexNS_9allocatorIS1_EEE22_M_insert_overflow_auxEPS1_RKS1_RKNS_12__false_typeEmb
	.stabs	"__cur:r(43,3)",64,0,84,16
	.stabn	192,0,0,LBB87-__ZN11stlpmtx_std6vectorI6VertexNS_9allocatorIS1_EEE22_M_insert_overflow_auxEPS1_RKS1_RKNS_12__false_typeEmb
	.stabs	"__n:r(12,3)",64,0,86,17
	.stabn	192,0,0,LBB89-__ZN11stlpmtx_std6vectorI6VertexNS_9allocatorIS1_EEE22_M_insert_overflow_auxEPS1_RKS1_RKNS_12__false_typeEmb
	.stabn	224,0,0,LBE89-__ZN11stlpmtx_std6vectorI6VertexNS_9allocatorIS1_EEE22_M_insert_overflow_auxEPS1_RKS1_RKNS_12__false_typeEmb
	.stabn	224,0,0,LBE87-__ZN11stlpmtx_std6vectorI6VertexNS_9allocatorIS1_EEE22_M_insert_overflow_auxEPS1_RKS1_RKNS_12__false_typeEmb
	.stabn	224,0,0,LBE85-__ZN11stlpmtx_std6vectorI6VertexNS_9allocatorIS1_EEE22_M_insert_overflow_auxEPS1_RKS1_RKNS_12__false_typeEmb
	.stabs	"__last:r(43,3)",64,0,314,17
	.stabn	192,0,0,LBB96-__ZN11stlpmtx_std6vectorI6VertexNS_9allocatorIS1_EEE22_M_insert_overflow_auxEPS1_RKS1_RKNS_12__false_typeEmb
	.stabs	"__cur:r(43,3)",64,0,247,16
	.stabn	192,0,0,LBB99-__ZN11stlpmtx_std6vectorI6VertexNS_9allocatorIS1_EEE22_M_insert_overflow_auxEPS1_RKS1_RKNS_12__false_typeEmb
	.stabs	"__n:r(12,3)",64,0,249,30
	.stabn	192,0,0,LBB101-__ZN11stlpmtx_std6vectorI6VertexNS_9allocatorIS1_EEE22_M_insert_overflow_auxEPS1_RKS1_RKNS_12__false_typeEmb
	.stabn	224,0,0,LBE101-__ZN11stlpmtx_std6vectorI6VertexNS_9allocatorIS1_EEE22_M_insert_overflow_auxEPS1_RKS1_RKNS_12__false_typeEmb
	.stabn	224,0,0,LBE99-__ZN11stlpmtx_std6vectorI6VertexNS_9allocatorIS1_EEE22_M_insert_overflow_auxEPS1_RKS1_RKNS_12__false_typeEmb
	.stabn	224,0,0,LBE96-__ZN11stlpmtx_std6vectorI6VertexNS_9allocatorIS1_EEE22_M_insert_overflow_auxEPS1_RKS1_RKNS_12__false_typeEmb
	.stabn	224,0,0,LBE55-__ZN11stlpmtx_std6vectorI6VertexNS_9allocatorIS1_EEE22_M_insert_overflow_auxEPS1_RKS1_RKNS_12__false_typeEmb
	.stabs	"__len:r(12,2)",64,0,87,7
	.stabs	"__new_finish:r(43,3)",64,0,89,4
	.stabn	192,0,0,LBB146-__ZN11stlpmtx_std6vectorI6VertexNS_9allocatorIS1_EEE22_M_insert_overflow_auxEPS1_RKS1_RKNS_12__false_typeEmb
	.stabs	"__n:(12,2)",128,0,171,-64
	.stabn	192,0,0,LBB156-__ZN11stlpmtx_std6vectorI6VertexNS_9allocatorIS1_EEE22_M_insert_overflow_auxEPS1_RKS1_RKNS_12__false_typeEmb
	.stabs	"__size:(0,454)",128,0,172,-68
	.stabs	"__len:r(12,2)",64,0,175,12
	.stabn	192,0,0,LBB158-__ZN11stlpmtx_std6vectorI6VertexNS_9allocatorIS1_EEE22_M_insert_overflow_auxEPS1_RKS1_RKNS_12__false_typeEmb
	.stabn	224,0,0,LBE158-__ZN11stlpmtx_std6vectorI6VertexNS_9allocatorIS1_EEE22_M_insert_overflow_auxEPS1_RKS1_RKNS_12__false_typeEmb
	.stabn	224,0,0,LBE156-__ZN11stlpmtx_std6vectorI6VertexNS_9allocatorIS1_EEE22_M_insert_overflow_auxEPS1_RKS1_RKNS_12__false_typeEmb
	.stabs	"__first:r(43,3)",64,0,83,13
	.stabn	192,0,0,LBB167-__ZN11stlpmtx_std6vectorI6VertexNS_9allocatorIS1_EEE22_M_insert_overflow_auxEPS1_RKS1_RKNS_12__false_typeEmb
	.stabs	"__cur:r(43,3)",64,0,84,30
	.stabn	192,0,0,LBB169-__ZN11stlpmtx_std6vectorI6VertexNS_9allocatorIS1_EEE22_M_insert_overflow_auxEPS1_RKS1_RKNS_12__false_typeEmb
	.stabs	"__n:r(12,3)",64,0,86,16
	.stabn	192,0,0,LBB171-__ZN11stlpmtx_std6vectorI6VertexNS_9allocatorIS1_EEE22_M_insert_overflow_auxEPS1_RKS1_RKNS_12__false_typeEmb
	.stabn	224,0,0,LBE171-__ZN11stlpmtx_std6vectorI6VertexNS_9allocatorIS1_EEE22_M_insert_overflow_auxEPS1_RKS1_RKNS_12__false_typeEmb
	.stabn	224,0,0,LBE169-__ZN11stlpmtx_std6vectorI6VertexNS_9allocatorIS1_EEE22_M_insert_overflow_auxEPS1_RKS1_RKNS_12__false_typeEmb
	.stabn	224,0,0,LBE167-__ZN11stlpmtx_std6vectorI6VertexNS_9allocatorIS1_EEE22_M_insert_overflow_auxEPS1_RKS1_RKNS_12__false_typeEmb
	.stabn	224,0,0,LBE146-__ZN11stlpmtx_std6vectorI6VertexNS_9allocatorIS1_EEE22_M_insert_overflow_auxEPS1_RKS1_RKNS_12__false_typeEmb
	.stabs	"__len:r(12,2)",64,0,87,7
	.stabs	"__new_finish:r(43,3)",64,0,89,4
	.stabn	192,0,0,LBB187-__ZN11stlpmtx_std6vectorI6VertexNS_9allocatorIS1_EEE22_M_insert_overflow_auxEPS1_RKS1_RKNS_12__false_typeEmb
	.stabs	"__buf_size:r(12,2)",64,0,347,4
	.stabn	192,0,0,LBB197-__ZN11stlpmtx_std6vectorI6VertexNS_9allocatorIS1_EEE22_M_insert_overflow_auxEPS1_RKS1_RKNS_12__false_typeEmb
	.stabs	"__y:r(7,28)",64,0,113,30
	.stabn	192,0,0,LBB202-__ZN11stlpmtx_std6vectorI6VertexNS_9allocatorIS1_EEE22_M_insert_overflow_auxEPS1_RKS1_RKNS_12__false_typeEmb
	.stabn	224,0,0,LBE202-__ZN11stlpmtx_std6vectorI6VertexNS_9allocatorIS1_EEE22_M_insert_overflow_auxEPS1_RKS1_RKNS_12__false_typeEmb
	.stabn	224,0,0,LBE197-__ZN11stlpmtx_std6vectorI6VertexNS_9allocatorIS1_EEE22_M_insert_overflow_auxEPS1_RKS1_RKNS_12__false_typeEmb
	.stabn	224,0,0,LBE187-__ZN11stlpmtx_std6vectorI6VertexNS_9allocatorIS1_EEE22_M_insert_overflow_auxEPS1_RKS1_RKNS_12__false_typeEmb
Lscope7:
	.stabs	"_ZN10Algorithms11SectionCalcE6VertexS0_iPN11stlpmtx_std6vectorIS0_NS1_9allocatorIS0_EEEEi:F(43,1)",36,0,86,__ZN10Algorithms11SectionCalcE6VertexS0_iPN11stlpmtx_std6vectorIS0_NS1_9allocatorIS0_EEEEi
	.stabs	"p1:P(43,1)",64,0,86,16
	.stabs	"p2:P(43,1)",64,0,86,30
	.stabs	"bytesPerLine:p(0,3)",160,0,86,0
	.stabs	"v:p(0,94)",160,0,86,4
	.stabs	"deep:p(0,3)",160,0,86,8
	.global	__ZN10Algorithms11SectionCalcE6VertexS0_iPN11stlpmtx_std6vectorIS0_NS1_9allocatorIS0_EEEEi

.func __ZN10Algorithms11SectionCalcE6VertexS0_iPN11stlpmtx_std6vectorIS0_NS1_9allocatorIS0_EEEEi, 7, ?
	.stabs	"/Users/brzeszczot/workspace/mosync_engine2/Alg.cpp",132,0,0,Ltext42
Ltext42:
	.line 86
	push rt,d7
	sub  sp,#0x28
	ld   fr,sp
	add  fr,#0x50
	ld   d3,[fr,4]
	.dlab LBB203
	.dlab LBB204
	.line 88
	ld   d5,i1
	.line 89
	ld   [fr,-56],i2
	.line 90
	ld   [fr,-60],i3
	.dlab LBB205
	.stabs	"/Users/brzeszczot/workspace/mosync_engine2/Vertex.hpp",132,0,0,Ltext43
Ltext43:
	.line 16
	ld   d6,fr
	add  d6,#0xffffffd0
	.dlab LBE205
	.stabs	"/Users/brzeszczot/workspace/mosync_engine2/Alg.cpp",132,0,0,Ltext44
Ltext44:
	.line 94
	ld   d0,i0
	ld   d2,i1
	.line 96
	jc   ge,i0,i2,#L221
	.line 98
	ld   r1,[fr]
	ld   [fr,-68],r1
	.line 99
	ld   d7,i2
	sub  d7,i0
L222:
	.line 107
	ld   r1,[fr,-60]
	jc   ge,d5,r1,#L223
	.line 109
	ld   r2,[fr]
	ld   [fr,-72],r2
	.line 110
	ld   d1,r1
	sub  d1,d5
	.line 119
	ld   [fr,-48],d0
	.line 120
	ld   [d6,4],d5
	.dlab LBB206
	.dlab LBB207
	.dlab LBB208
	.dlab LBB209
	.stabs	"/Applications/MoSync/include/newlib/stlport/stl/_vector.h",132,0,0,Ltext45
Ltext45:
	.line 380
	ld   i1,[d3,4]
	ld   r2,[d3,8]
	jc   eq,i1,r2,#L225
L287:
	.dlab LBB210
	.dlab LBB211
	.dlab LBB212
	.dlab LBB213
	.stabs	"/Applications/MoSync/include/newlib/stlport/../new",132,0,0,Ltext46
Ltext46:
	.line 83
	ld   [i1],d0
	ld   r14,[d6,4]
	ld   [i1,4],r14
	.dlab LBE213
	.dlab LBE212
	.dlab LBE211
	.dlab LBE210
	.stabs	"/Applications/MoSync/include/newlib/stlport/stl/_vector.h",132,0,0,Ltext47
Ltext47:
	.line 382
	add  i1,#0x8
	ld   [d3,4],i1
L233:
	.dlab LBE209
	.dlab LBE208
	.dlab LBE207
	.dlab LBE206
	.dlab LBB214
	.dlab LBB215
	.line 192
	ld   r0,[d3]
	ld   r14,i1
	sub  r14,r0
	sra  r14,#0x3
	.dlab LBE215
	.dlab LBE214
	ld   r1,[fr,8]
	jc   lt,r14,r1,#L234
	ld   r2,#0xffffffff
	jc   eq,r1,r2,#L234
L254:
	.stabs	"/Users/brzeszczot/workspace/mosync_engine2/Alg.cpp",132,0,0,Ltext48
Ltext48:
	.line 182
	ld   r14,[fr,-48]
	ld   r15,[d6,4]
	ld   r0,r14
	ld   r1,r15
	.dlab LBE204
	.dlab LBE203
	.line 183
	add  sp,#0x28
	pop  rt,d7
	ret
L234:
	.dlab LBB216
	.dlab LBB217
	.line 125
	jc   le,d7,d1,#L236
	.line 127
	ld   d4,d1
	sub  d4,d7
	add  d4,d4
	.line 128
	add  d1,d1
	ld   [fr,-64],d1
	.line 129
	sub  d1,d7
	.line 150
	ld   d5,[fr,-56]
	ld   r14,[fr]
	sub  d5,r14
L283:
	jc   lt,d5,d0,#L286
L279:
	.line 134
	ld   r2,#0x0
	jc   lt,d1,r2,#L240
L291:
	.line 136
	ld   r14,[fr,-68]
	add  d0,r14
	.line 137
	ld   r1,[fr,-72]
	add  d2,r1
	.line 138
	add  d1,d4
	.line 146
	ld   [fr,-48],d0
	.line 147
	ld   [d6,4],d2
	.dlab LBB218
	.dlab LBB219
	.dlab LBB220
	.dlab LBB221
	.stabs	"/Applications/MoSync/include/newlib/stlport/stl/_vector.h",132,0,0,Ltext49
Ltext49:
	.line 380
	ld   r1,[d3,8]
	jc   eq,i1,r1,#L242
L292:
	.dlab LBB222
	.dlab LBB223
	.dlab LBB224
	.dlab LBB225
	.stabs	"/Applications/MoSync/include/newlib/stlport/../new",132,0,0,Ltext50
Ltext50:
	.line 83
	ld   [i1],d0
	ld   r2,[d6,4]
	ld   [i1,4],r2
	.dlab LBE225
	.dlab LBE224
	.dlab LBE223
	.dlab LBE222
	.stabs	"/Applications/MoSync/include/newlib/stlport/stl/_vector.h",132,0,0,Ltext51
Ltext51:
	.line 382
	add  i1,#0x8
	ld   [d3,4],i1
L250:
	.dlab LBE221
	.dlab LBE220
	.dlab LBE219
	.dlab LBE218
	.dlab LBB226
	.dlab LBB227
	.line 192
	ld   r14,i1
	sub  r14,r0
	sra  r14,#0x3
	.dlab LBE227
	.dlab LBE226
	ld   r2,[fr,8]
	jc   lt,r14,r2,#L283
	ld   r14,#0xffffffff
	jc   ne,r2,r14,#L254
	.stabs	"/Users/brzeszczot/workspace/mosync_engine2/Alg.cpp",132,0,0,Ltext52
Ltext52:
	.line 150
	jc   ge,d5,d0,#L279
	jp   #L286
L223:
	.line 114
	ld   r14,[fr]
	neg r14,r14
	ld   [fr,-72],r14
	.line 115
	ld   d1,d5
	ld   r1,[fr,-60]
	sub  d1,r1
	.line 119
	ld   [fr,-48],d0
	.line 120
	ld   [d6,4],d5
	.dlab LBB228
	.dlab LBB229
	.dlab LBB230
	.dlab LBB231
	.stabs	"/Applications/MoSync/include/newlib/stlport/stl/_vector.h",132,0,0,Ltext53
Ltext53:
	.line 380
	ld   i1,[d3,4]
	ld   r2,[d3,8]
	jc   ne,i1,r2,#L287
L225:
	.dlab LBB232
	.dlab LBB233
	.dlab LBB234
	.dlab LBB235
	.line 162
	ld   r1,#0x1
	ld   [sp],r1
	ld   r2,#0x1
	ld.b [sp,4],r2
	ld   i0,d3
	ld   i2,d6
	ld   i3,fr
	add  i3,#0xffffffcf
	call &__ZN11stlpmtx_std6vectorI6VertexNS_9allocatorIS1_EEE22_M_insert_overflow_auxEPS1_RKS1_RKNS_12__false_typeEmb ; call non-native
	ld   i1,[d3,4]
	jp   #L233
L221:
	.dlab LBE235
	.dlab LBE234
	.dlab LBE233
	.dlab LBE232
	.dlab LBE231
	.dlab LBE230
	.dlab LBE229
	.dlab LBE228
	.stabs	"/Users/brzeszczot/workspace/mosync_engine2/Alg.cpp",132,0,0,Ltext54
Ltext54:
	.line 103
	ld   r2,[fr]
	neg r2,r2
	ld   [fr,-68],r2
	.line 104
	ld   d7,i0
	ld   r14,[fr,-56]
	sub  d7,r14
	jp   #L222
L236:
	.line 156
	ld   d4,d7
	sub  d4,d1
	add  d4,d4
	.line 157
	add  d7,d7
	ld   [fr,-64],d7
	.line 158
	ld   r2,d7
	sub  r2,d1
	ld   d1,r2
	.line 179
	ld   d7,[fr,-60]
	ld   r14,[fr]
	sub  d7,r14
	jc   lt,d7,d5,#L288
L284:
	.line 163
	ld   r2,#0x0
	jc   lt,d1,r2,#L258
L289:
	.line 165
	ld   r14,[fr,-68]
	add  d0,r14
	.line 166
	ld   r1,[fr,-72]
	add  d2,r1
	.line 167
	add  d1,d4
	.line 175
	ld   [fr,-48],d0
	.line 176
	ld   [d6,4],d2
	.dlab LBB236
	.dlab LBB237
	.dlab LBB238
	.dlab LBB239
	.stabs	"/Applications/MoSync/include/newlib/stlport/stl/_vector.h",132,0,0,Ltext55
Ltext55:
	.line 380
	ld   r1,[d3,8]
	jc   eq,i1,r1,#L260
L290:
	.dlab LBB240
	.dlab LBB241
	.dlab LBB242
	.dlab LBB243
	.stabs	"/Applications/MoSync/include/newlib/stlport/../new",132,0,0,Ltext56
Ltext56:
	.line 83
	ld   [i1],d0
	ld   r2,[d6,4]
	ld   [i1,4],r2
	.dlab LBE243
	.dlab LBE242
	.dlab LBE241
	.dlab LBE240
	.stabs	"/Applications/MoSync/include/newlib/stlport/stl/_vector.h",132,0,0,Ltext57
Ltext57:
	.line 382
	add  i1,#0x8
	ld   [d3,4],i1
L268:
	.dlab LBE239
	.dlab LBE238
	.dlab LBE237
	.dlab LBE236
	.dlab LBB244
	.dlab LBB245
	.line 192
	ld   r14,i1
	sub  r14,r0
	sra  r14,#0x3
	.dlab LBE245
	.dlab LBE244
	ld   r2,[fr,8]
	jc   lt,r14,r2,#L255
	ld   r14,#0xffffffff
	jc   ne,r2,r14,#L254
L255:
	.stabs	"/Users/brzeszczot/workspace/mosync_engine2/Alg.cpp",132,0,0,Ltext58
Ltext58:
	.line 179
	jc   ge,d7,d2,#L284
	ld   r14,[fr,-60]
	ld   r1,[fr]
	add  r14,r1
	jc   ge,r14,d2,#L254
	.line 163
	ld   r2,#0x0
	jc   ge,d1,r2,#L289
L258:
	.line 171
	ld   r2,[fr,-64]
	add  d1,r2
	.line 172
	ld   r14,[fr,-72]
	add  d2,r14
	.line 175
	ld   [fr,-48],d0
	.line 176
	ld   [d6,4],d2
	.dlab LBB246
	.dlab LBB247
	.dlab LBB248
	.dlab LBB249
	.stabs	"/Applications/MoSync/include/newlib/stlport/stl/_vector.h",132,0,0,Ltext59
Ltext59:
	.line 380
	ld   r1,[d3,8]
	jc   ne,i1,r1,#L290
L260:
	.dlab LBB250
	.dlab LBB251
	.dlab LBB252
	.dlab LBB253
	.line 162
	ld   r14,#0x1
	ld   [sp],r14
	ld   r1,#0x1
	ld.b [sp,4],r1
	ld   i0,d3
	ld   i2,d6
	ld   i3,fr
	add  i3,#0xffffffcd
	call &__ZN11stlpmtx_std6vectorI6VertexNS_9allocatorIS1_EEE22_M_insert_overflow_auxEPS1_RKS1_RKNS_12__false_typeEmb ; call non-native
	ld   i1,[d3,4]
	ld   r0,[d3]
	jp   #L268
L286:
	.dlab LBE253
	.dlab LBE252
	.dlab LBE251
	.dlab LBE250
	.dlab LBE249
	.dlab LBE248
	.dlab LBE247
	.dlab LBE246
	.stabs	"/Users/brzeszczot/workspace/mosync_engine2/Alg.cpp",132,0,0,Ltext60
Ltext60:
	.line 150
	ld   r14,[fr,-56]
	ld   r1,[fr]
	add  r14,r1
	jc   ge,r14,d0,#L254
	.line 134
	ld   r2,#0x0
	jc   ge,d1,r2,#L291
L240:
	.line 142
	ld   r2,[fr,-64]
	add  d1,r2
	.line 143
	ld   r14,[fr,-68]
	add  d0,r14
	.line 146
	ld   [fr,-48],d0
	.line 147
	ld   [d6,4],d2
	.dlab LBB254
	.dlab LBB255
	.dlab LBB256
	.dlab LBB257
	.stabs	"/Applications/MoSync/include/newlib/stlport/stl/_vector.h",132,0,0,Ltext61
Ltext61:
	.line 380
	ld   r1,[d3,8]
	jc   ne,i1,r1,#L292
L242:
	.dlab LBB258
	.dlab LBB259
	.dlab LBB260
	.dlab LBB261
	.line 162
	ld   r14,#0x1
	ld   [sp],r14
	ld   r1,#0x1
	ld.b [sp,4],r1
	ld   i0,d3
	ld   i2,d6
	ld   i3,fr
	add  i3,#0xffffffce
	call &__ZN11stlpmtx_std6vectorI6VertexNS_9allocatorIS1_EEE22_M_insert_overflow_auxEPS1_RKS1_RKNS_12__false_typeEmb ; call non-native
	ld   i1,[d3,4]
	ld   r0,[d3]
	jp   #L250
L288:
	.dlab LBE261
	.dlab LBE260
	.dlab LBE259
	.dlab LBE258
	.dlab LBE257
	.dlab LBE256
	.dlab LBE255
	.dlab LBE254
	.stabs	"/Users/brzeszczot/workspace/mosync_engine2/Alg.cpp",132,0,0,Ltext62
Ltext62:
	.line 179
	ld   r14,[fr,-60]
	ld   r1,[fr]
	add  r14,r1
	jc   lt,r14,d5,#L284
	jp   #L254
	.dlab LBE217
	.dlab LBE216
	.stabs	"v:r(0,94)",64,0,86,7
	.stabs	"y1:r(0,3)",64,0,88,9
	.stabs	"x2:(0,3)",128,0,89,-56
	.stabs	"y2:(0,3)",128,0,90,-60
	.stabs	"vtemp:(43,1)",128,0,92,-48
	.stabs	"d:r(0,3)",64,0,93,5
	.stabs	"dx:r(0,3)",64,0,93,11
	.stabs	"dy:r(0,3)",64,0,93,5
	.stabs	"ai:r(0,3)",64,0,93,8
	.stabs	"bi:(0,3)",128,0,93,-64
	.stabs	"xi:(0,3)",128,0,93,-68
	.stabs	"yi:(0,3)",128,0,93,-72
	.stabs	"x:r(0,3)",64,0,94,4
	.stabs	"y:r(0,3)",64,0,94,6
	.stabn	192,0,0,LBB204-__ZN10Algorithms11SectionCalcE6VertexS0_iPN11stlpmtx_std6vectorIS0_NS1_9allocatorIS0_EEEEi
	.stabn	224,0,0,LBE204-__ZN10Algorithms11SectionCalcE6VertexS0_iPN11stlpmtx_std6vectorIS0_NS1_9allocatorIS0_EEEEi
	.stabs	"y1:r(0,3)",64,0,88,9
	.stabs	"x2:(0,3)",128,0,89,-56
	.stabs	"y2:(0,3)",128,0,90,-60
	.stabs	"vtemp:(43,1)",128,0,92,-48
	.stabs	"d:r(0,3)",64,0,93,5
	.stabs	"dx:r(0,3)",64,0,93,11
	.stabs	"dy:r(0,3)",64,0,93,5
	.stabs	"ai:r(0,3)",64,0,93,8
	.stabs	"bi:(0,3)",128,0,93,-64
	.stabs	"xi:(0,3)",128,0,93,-68
	.stabs	"yi:(0,3)",128,0,93,-72
	.stabs	"x:r(0,3)",64,0,94,4
	.stabs	"y:r(0,3)",64,0,94,6
	.stabn	192,0,0,LBB217-__ZN10Algorithms11SectionCalcE6VertexS0_iPN11stlpmtx_std6vectorIS0_NS1_9allocatorIS0_EEEEi
	.stabn	224,0,0,LBE217-__ZN10Algorithms11SectionCalcE6VertexS0_iPN11stlpmtx_std6vectorIS0_NS1_9allocatorIS0_EEEEi
Lscope8:
	.stabs	"_ZN11stlpmtx_std6vectorI7VertexFNS_9allocatorIS1_EEE22_M_insert_overflow_auxEPS1_RKS1_RKNS_12__false_typeEmb:f(0,6)",36,0,82,__ZN11stlpmtx_std6vectorI7VertexFNS_9allocatorIS1_EEE22_M_insert_overflow_auxEPS1_RKS1_RKNS_12__false_typeEmb
	.stabs	"this:P(0,455)=k(0,207)",64,0,82,6
	.stabs	"__pos:P(44,3)",64,0,82,10
	.stabs	"__x:P(44,10)",64,0,82,5
	.stabs	"__fill_len:p(12,2)",160,0,82,0
	.stabs	"__atend:p(0,4)",160,0,82,4

.func __ZN11stlpmtx_std6vectorI7VertexFNS_9allocatorIS1_EEE22_M_insert_overflow_auxEPS1_RKS1_RKNS_12__false_typeEmb, 6, void
	.stabs	"/Applications/MoSync/include/newlib/stlport/stl/_vector.c",132,0,0,Ltext63
Ltext63:
	.line 82
	push rt,d6
	sub  sp,#0x20
	ld   fr,sp
	add  fr,#0x44
	ld   d2,i0
	ld   d6,i1
	ld   d1,i2
	ld   d4,[fr]
	.dlab LBB262
	.dlab LBB263
	.dlab LBB264
	.stabs	"/Applications/MoSync/include/newlib/stlport/stl/_vector.h",132,0,0,Ltext64
Ltext64:
	.line 171
	ld   r1,d4
	ld   [fr,-64],d4
	.dlab LBB265
	.dlab LBB266
	.dlab LBB267
	.dlab LBB268
	.line 192
	ld   r0,[i0,4]
	ld   r2,[i0]
	sub  r0,r2
	sra  r0,#0x3
	.dlab LBE268
	.dlab LBE267
	ld   [fr,-68],r0
	.dlab LBB269
	.dlab LBB270
	.dlab LBB271
	.line 194
	ld   r14,#0x1fffffff
	.dlab LBE271
	.dlab LBE270
	.dlab LBE269
	.line 193
	sub  r14,r0
	jc   ltu,r14,d4,#L412
L295:
	.dlab LBB272
	.dlab LBB273
	.stabs	"/Applications/MoSync/include/newlib/stlport/stl/_algobase.h",132,0,0,Ltext65
Ltext65:
	.line 141
	ld   r14,fr
	add  r14,#0xffffffbc
	jc   ltu,r1,r0,#L301
	add  r14,#0x4
L301:
	.dlab LBE273
	.dlab LBE272
	ld   i0,[r14]
	add  i0,r0
	.stabs	"/Applications/MoSync/include/newlib/stlport/stl/_vector.h",132,0,0,Ltext66
Ltext66:
	.line 193
	ld   r14,#0x1fffffff
	jc   gtu,i0,r14,#L303
	jc   geu,i0,r0,#L302
L303:
	ld   i0,#0x1fffffff
L407:
	.dlab LBE266
	.dlab LBE265
	.dlab LBE264
	.dlab LBB274
	.dlab LBB275
	.dlab LBB276
	.dlab LBB277
	.dlab LBB278
	.dlab LBB279
	.dlab LBB280
	.dlab LBB281
	.dlab LBB282
	.dlab LBB283
	.stabs	"/Applications/MoSync/include/newlib/stlport/stl/_alloc.h",132,0,0,Ltext67
Ltext67:
	.line 347
	ld   d0,i0
	sll  d0,#0x3
	.dlab LBB284
	.dlab LBB285
	.dlab LBB286
	.dlab LBB287
	.dlab LBB288
	.stabs	"/Applications/MoSync/include/newlib/stlport/stl/_new.h",132,0,0,Ltext68
Ltext68:
	.line 113
	ld   i0,d0
	call &__Znwm ; call non-native
	ld   r0,#0x0
	jc   eq,r14,r0,#L411
	.dlab LBE288
	.dlab LBE287
	.dlab LBE286
	.dlab LBE285
	.dlab LBE284
	.stabs	"/Applications/MoSync/include/newlib/stlport/stl/_alloc.h",132,0,0,Ltext69
Ltext69:
	.line 352
	ld   d3,d0
	srl  d3,#0x3
	ld   d5,r14
L317:
	.dlab LBE283
	.dlab LBE282
	.dlab LBE281
	.dlab LBE280
	.dlab LBE279
	.dlab LBE278
	.dlab LBE277
	.dlab LBE276
	.dlab LBE275
	.dlab LBE274
	.dlab LBB289
	.stabs	"/Applications/MoSync/include/newlib/stlport/stl/_uninitialized.h",132,0,0,Ltext70
Ltext70:
	.line 420
	ld   i0,[d2]
	.dlab LBB290
	.dlab LBB291
	.dlab LBB292
	.dlab LBB293
	.line 83
	ld   r14,i0
	.dlab LBB294
	.dlab LBB295
	.line 84
	ld   r0,d5
	.dlab LBB296
	.dlab LBB297
	.line 86
	ld   r1,d6
	sub  r1,i0
	sra  r1,#0x3
	ld   r2,#0x0
	jc   le,r1,r2,#L401
L413:
	.dlab LBB298
	.dlab LBB299
	.dlab LBB300
	.dlab LBB301
	.stabs	"/Applications/MoSync/include/newlib/stlport/../new",132,0,0,Ltext71
Ltext71:
	.line 83
	ld   r2,[r14]
	ld   [r0],r2
	ld   r2,[r14,4]
	ld   [r0,4],r2
	.dlab LBE301
	.dlab LBE300
	.dlab LBE299
	.dlab LBE298
	.stabs	"/Applications/MoSync/include/newlib/stlport/stl/_uninitialized.h",132,0,0,Ltext72
Ltext72:
	.line 88
	add  r14,#0x8
	.line 89
	add  r0,#0x8
	.line 86
	add  r1,#0xffffffff
	ld   r2,#0x0
	jc   gt,r1,r2,#L413
L401:
	.dlab LBE297
	.dlab LBE296
	.dlab LBE295
	.dlab LBE294
	.dlab LBE293
	.dlab LBE292
	.dlab LBE291
	.dlab LBE290
	.dlab LBE289
	.stabs	"/Applications/MoSync/include/newlib/stlport/stl/_vector.c",132,0,0,Ltext73
Ltext73:
	.line 93
	ld   r14,#0x1
	jc   eq,d4,r14,#L414
	.dlab LBB302
	.dlab LBB303
	.dlab LBB304
	.stabs	"/Applications/MoSync/include/newlib/stlport/stl/_uninitialized.h",132,0,0,Ltext74
Ltext74:
	.line 314
	ld   r14,d4
	sll  r14,#0x3
	.dlab LBB305
	.dlab LBB306
	.dlab LBB307
	.dlab LBB308
	.dlab LBB309
	.line 249
	ld   r1,r14
	add  r1,r0
	sra  r14,#0x3
	ld   r2,#0x0
	jc   le,r14,r2,#L403
L415:
	.dlab LBB310
	.dlab LBB311
	.dlab LBB312
	.dlab LBB313
	.stabs	"/Applications/MoSync/include/newlib/stlport/../new",132,0,0,Ltext75
Ltext75:
	.line 83
	ld   r2,[d1]
	ld   [r0],r2
	ld   r2,[d1,4]
	ld   [r0,4],r2
	.dlab LBE313
	.dlab LBE312
	.dlab LBE311
	.dlab LBE310
	.stabs	"/Applications/MoSync/include/newlib/stlport/stl/_uninitialized.h",132,0,0,Ltext76
Ltext76:
	.line 249
	add  r14,#0xffffffff
	add  r0,#0x8
	ld   r2,#0x0
	jc   gt,r14,r2,#L415
L403:
	.dlab LBE309
	.dlab LBE308
	.dlab LBE307
	.dlab LBE306
	.dlab LBE305
	.dlab LBE304
	.dlab LBE303
	.dlab LBE302
	.line 313
	ld   d0,r1
	.stabs	"/Applications/MoSync/include/newlib/stlport/stl/_vector.c",132,0,0,Ltext77
Ltext77:
	.line 98
	ld.b r2,[fr,4]
	and  r2,#0xff  ; zero extend
	ld   r14,#0x0
	jc   eq,r2,r14,#L416
L406:
	ld   r1,[d2,4]
L350:
	.dlab LBB314
	.dlab LBB315
	.dlab LBB316
	.dlab LBB317
	.dlab LBB318
	.dlab LBB319
	.dlab LBB320
	.stabs	"/Applications/MoSync/include/newlib/stlport/stl/_iterator.h",132,0,0,Ltext78
Ltext78:
	.line 64
	ld   [fr,-40],r1
	.dlab LBE320
	.dlab LBE319
	.dlab LBE318
	.dlab LBE317
	.dlab LBB321
	.dlab LBB322
	.dlab LBB323
	.dlab LBB324
	ld   [fr,-44],i0
	.dlab LBE324
	.dlab LBE323
	.dlab LBE322
	.dlab LBE321
	.dlab LBB325
	.dlab LBB326
	.dlab LBB327
	.dlab LBB328
	.line 65
	ld   [fr,-48],r1
	.dlab LBE328
	.dlab LBE327
	.dlab LBB329
	.dlab LBB330
	ld   [fr,-52],i0
	.dlab LBE330
	.dlab LBE329
	.dlab LBB331
	.dlab LBB332
	.dlab LBB333
	.dlab LBB334
	.dlab LBB335
	ld   r2,r1
	.dlab LBE335
	.dlab LBE334
	.dlab LBB336
	.dlab LBB337
	ld   [fr,-60],i0
	jp   #L379
L390:
	.dlab LBE337
	.dlab LBE336
	.dlab LBB338
	.dlab LBB339
	.dlab LBB340
	.dlab LBB341
	.dlab LBB342
	.line 76
	ld   r2,r1
	add  r2,#0xfffffff8
	.dlab LBE342
	.dlab LBE341
	.dlab LBE340
	.dlab LBE339
	.dlab LBB343
	.dlab LBB344
	.line 81
	ld   r1,r2
L379:
	.dlab LBE344
	.dlab LBE343
	.dlab LBB345
	.dlab LBB346
	.dlab LBB347
	.dlab LBB348
	.line 74
	ld   r14,r1
	xor  r14,i0
	neg r0,r14
	or   r0,r14
	srl  r0,#0x1f
	ld   r14,#0x1
	sub  r14,r0
	.dlab LBE348
	.dlab LBE347
	.dlab LBE346
	.dlab LBE345
	.line 126
	xor  r14,#0x1
	and  r14,#0xff  ; zero extend
	ld   r0,#0x0
	jc   ne,r14,r0,#L390
	ld   [fr,-56],r2
	.dlab LBE338
	.dlab LBE333
	.dlab LBE332
	.dlab LBE331
	.dlab LBE326
	.dlab LBE325
	.dlab LBE316
	.dlab LBB349
	.dlab LBB350
	.stabs	"/Applications/MoSync/include/newlib/stlport/stl/_alloc.h",132,0,0,Ltext79
Ltext79:
	.line 319
	jc   ne,i0,r0,#L417
	.dlab LBE350
	.dlab LBE349
	.dlab LBE315
	.dlab LBE314
	.dlab LBB351
	.stabs	"/Applications/MoSync/include/newlib/stlport/stl/_vector.h",132,0,0,Ltext80
Ltext80:
	.line 665
	sll  d3,#0x3
	add  d3,d5
	.dlab LBB352
	.line 666
	ld   [d2],d5
	.line 667
	ld   [d2,4],d0
	.line 668
	ld   [d2,8],d3
	.dlab LBE352
	.dlab LBE351
	.dlab LBE263
	.dlab LBE262
	add  sp,#0x20
	pop  rt,d6
	ret
L302:
	.dlab LBB353
	.dlab LBB354
	.line 171
	ld   d3,i0
	.dlab LBB355
	.dlab LBB356
	.dlab LBB357
	.dlab LBB358
	.dlab LBB359
	.dlab LBB360
	.dlab LBB361
	.dlab LBB362
	.stabs	"/Applications/MoSync/include/newlib/stlport/stl/_alloc.h",132,0,0,Ltext81
Ltext81:
	.line 330
	ld   r0,#0x1fffffff
	jc   gtu,i0,r0,#L411
	.line 353
	ld   d5,i0
	.dlab LBB363
	.line 346
	ld   r2,#0x0
	jc   eq,i0,r2,#L317
	jp   #L407
L412:
	.dlab LBE363
	.dlab LBE362
	.dlab LBE361
	.dlab LBE360
	.dlab LBE359
	.dlab LBE358
	.dlab LBE357
	.dlab LBE356
	.dlab LBE355
	.dlab LBB364
	.dlab LBB365
	.dlab LBB366
	.stabs	"/Applications/MoSync/include/newlib/stlport/stl/_vector.h",132,0,0,Ltext82
Ltext82:
	.line 174
	call &__ZNK11stlpmtx_std4priv12_Vector_baseI7VertexFNS_9allocatorIS2_EEE21_M_throw_length_errorEv ; call non-native
	ld   r1,[fr,-64]
	ld   r0,[fr,-68]
	jp   #L295
L414:
	.dlab LBE366
	.dlab LBE365
	.dlab LBE364
	.dlab LBB367
	.dlab LBB368
	.dlab LBB369
	.dlab LBB370
	.stabs	"/Applications/MoSync/include/newlib/stlport/../new",132,0,0,Ltext83
Ltext83:
	.line 83
	ld   r2,[d1]
	ld   [r0],r2
	ld   d1,[d1,4]
	ld   [r0,4],d1
	.dlab LBE370
	.dlab LBE369
	.dlab LBE368
	.dlab LBE367
	.stabs	"/Applications/MoSync/include/newlib/stlport/stl/_vector.c",132,0,0,Ltext84
Ltext84:
	.line 95
	ld   d0,r0
	add  d0,#0x8
	.line 98
	ld.b r2,[fr,4]
	and  r2,#0xff  ; zero extend
	ld   r14,#0x0
	jc   ne,r2,r14,#L406
L416:
	.dlab LBB371
	.stabs	"/Applications/MoSync/include/newlib/stlport/stl/_uninitialized.h",132,0,0,Ltext85
Ltext85:
	.line 420
	ld   r1,[d2,4]
	.dlab LBB372
	.dlab LBB373
	.dlab LBB374
	.dlab LBB375
	.line 83
	ld   i1,d6
	.dlab LBB376
	.dlab LBB377
	.line 84
	ld   r14,d0
	.dlab LBB378
	.dlab LBB379
	.line 86
	ld   r0,r1
	sub  r0,d6
	sra  r0,#0x3
	jc   le,r0,r2,#L405
L418:
	.dlab LBB380
	.dlab LBB381
	.dlab LBB382
	.dlab LBB383
	.stabs	"/Applications/MoSync/include/newlib/stlport/../new",132,0,0,Ltext86
Ltext86:
	.line 83
	ld   r2,[i1]
	ld   [r14],r2
	ld   r2,[i1,4]
	ld   [r14,4],r2
	.dlab LBE383
	.dlab LBE382
	.dlab LBE381
	.dlab LBE380
	.stabs	"/Applications/MoSync/include/newlib/stlport/stl/_uninitialized.h",132,0,0,Ltext87
Ltext87:
	.line 88
	add  i1,#0x8
	.line 89
	add  r14,#0x8
	.line 86
	add  r0,#0xffffffff
	ld   r2,#0x0
	jc   gt,r0,r2,#L418
L405:
	.dlab LBE379
	.dlab LBE378
	.dlab LBE377
	.dlab LBE376
	.dlab LBE375
	.dlab LBE374
	.dlab LBE373
	.dlab LBE372
	.dlab LBE371
	.line 420
	ld   d0,r14
	jp   #L350
L417:
	.dlab LBB384
	.dlab LBB385
	.dlab LBB386
	.dlab LBB387
	.dlab LBB388
	.dlab LBB389
	.dlab LBB390
	.dlab LBB391
	.stabs	"/Applications/MoSync/include/newlib/stlport/stl/_new.h",132,0,0,Ltext88
Ltext88:
	.line 114
	call &__ZdlPv ; call non-native
	.dlab LBE391
	.dlab LBE390
	.dlab LBE389
	.dlab LBE388
	.dlab LBE387
	.dlab LBE386
	.dlab LBE385
	.dlab LBE384
	.dlab LBB392
	.stabs	"/Applications/MoSync/include/newlib/stlport/stl/_vector.h",132,0,0,Ltext89
Ltext89:
	.line 665
	sll  d3,#0x3
	add  d3,d5
	.dlab LBB393
	.line 666
	ld   [d2],d5
	.line 667
	ld   [d2,4],d0
	.line 668
	ld   [d2,8],d3
	.dlab LBE393
	.dlab LBE392
	.dlab LBE354
	.dlab LBE353
	add  sp,#0x20
	pop  rt,d6
	ret
L411:
	.dlab LBB394
	.dlab LBB395
	.dlab LBB396
	.dlab LBB397
	.dlab LBB398
	.dlab LBB399
	.dlab LBB400
	.dlab LBB401
	.dlab LBB402
	.dlab LBB403
	.dlab LBB404
	.dlab LBB405
	.dlab LBB406
	.dlab LBB407
	.dlab LBB408
	.dlab LBB409
	.dlab LBB410
	.stabs	"/Applications/MoSync/include/newlib/stlport/stl/_new.h",132,0,0,Ltext90
Ltext90:
	.line 113
	ld   i0,#LC1
	call &_puts ; call non-native
	ld   i0,#0x1
	call &_exit ; call non-native
	.dlab LBE410
	.dlab LBE409
	.dlab LBE408
	.dlab LBE407
	.dlab LBE406
	.dlab LBE405
	.dlab LBE404
	.dlab LBE403
	.dlab LBE402
	.dlab LBE401
	.dlab LBE400
	.dlab LBE399
	.dlab LBE398
	.dlab LBE397
	.dlab LBE396
	.dlab LBE395
	.dlab LBE394
	.stabs	"__fill_len:r(12,2)",64,0,82,8
	.stabs	"__len:r(12,2)",64,0,87,7
	.stabs	"__new_finish:r(44,3)",64,0,89,4
	.stabn	192,0,0,LBB263-__ZN11stlpmtx_std6vectorI7VertexFNS_9allocatorIS1_EEE22_M_insert_overflow_auxEPS1_RKS1_RKNS_12__false_typeEmb
	.stabs	"__n:(12,2)",128,0,171,-64
	.stabn	192,0,0,LBB264-__ZN11stlpmtx_std6vectorI7VertexFNS_9allocatorIS1_EEE22_M_insert_overflow_auxEPS1_RKS1_RKNS_12__false_typeEmb
	.stabs	"__size:(0,454)",128,0,172,-68
	.stabs	"__len:r(12,2)",64,0,175,12
	.stabn	192,0,0,LBB266-__ZN11stlpmtx_std6vectorI7VertexFNS_9allocatorIS1_EEE22_M_insert_overflow_auxEPS1_RKS1_RKNS_12__false_typeEmb
	.stabn	224,0,0,LBE266-__ZN11stlpmtx_std6vectorI7VertexFNS_9allocatorIS1_EEE22_M_insert_overflow_auxEPS1_RKS1_RKNS_12__false_typeEmb
	.stabn	224,0,0,LBE264-__ZN11stlpmtx_std6vectorI7VertexFNS_9allocatorIS1_EEE22_M_insert_overflow_auxEPS1_RKS1_RKNS_12__false_typeEmb
	.stabs	"__buf_size:r(12,2)",64,0,347,4
	.stabn	192,0,0,LBB283-__ZN11stlpmtx_std6vectorI7VertexFNS_9allocatorIS1_EEE22_M_insert_overflow_auxEPS1_RKS1_RKNS_12__false_typeEmb
	.stabs	"__y:r(7,28)",64,0,113,30
	.stabn	192,0,0,LBB288-__ZN11stlpmtx_std6vectorI7VertexFNS_9allocatorIS1_EEE22_M_insert_overflow_auxEPS1_RKS1_RKNS_12__false_typeEmb
	.stabn	224,0,0,LBE288-__ZN11stlpmtx_std6vectorI7VertexFNS_9allocatorIS1_EEE22_M_insert_overflow_auxEPS1_RKS1_RKNS_12__false_typeEmb
	.stabn	224,0,0,LBE283-__ZN11stlpmtx_std6vectorI7VertexFNS_9allocatorIS1_EEE22_M_insert_overflow_auxEPS1_RKS1_RKNS_12__false_typeEmb
	.stabs	"__first:r(44,3)",64,0,83,30
	.stabn	192,0,0,LBB293-__ZN11stlpmtx_std6vectorI7VertexFNS_9allocatorIS1_EEE22_M_insert_overflow_auxEPS1_RKS1_RKNS_12__false_typeEmb
	.stabs	"__cur:r(44,3)",64,0,84,16
	.stabn	192,0,0,LBB295-__ZN11stlpmtx_std6vectorI7VertexFNS_9allocatorIS1_EEE22_M_insert_overflow_auxEPS1_RKS1_RKNS_12__false_typeEmb
	.stabs	"__n:r(12,3)",64,0,86,17
	.stabn	192,0,0,LBB297-__ZN11stlpmtx_std6vectorI7VertexFNS_9allocatorIS1_EEE22_M_insert_overflow_auxEPS1_RKS1_RKNS_12__false_typeEmb
	.stabn	224,0,0,LBE297-__ZN11stlpmtx_std6vectorI7VertexFNS_9allocatorIS1_EEE22_M_insert_overflow_auxEPS1_RKS1_RKNS_12__false_typeEmb
	.stabn	224,0,0,LBE295-__ZN11stlpmtx_std6vectorI7VertexFNS_9allocatorIS1_EEE22_M_insert_overflow_auxEPS1_RKS1_RKNS_12__false_typeEmb
	.stabn	224,0,0,LBE293-__ZN11stlpmtx_std6vectorI7VertexFNS_9allocatorIS1_EEE22_M_insert_overflow_auxEPS1_RKS1_RKNS_12__false_typeEmb
	.stabs	"__last:r(44,3)",64,0,314,17
	.stabn	192,0,0,LBB304-__ZN11stlpmtx_std6vectorI7VertexFNS_9allocatorIS1_EEE22_M_insert_overflow_auxEPS1_RKS1_RKNS_12__false_typeEmb
	.stabs	"__cur:r(44,3)",64,0,247,16
	.stabn	192,0,0,LBB307-__ZN11stlpmtx_std6vectorI7VertexFNS_9allocatorIS1_EEE22_M_insert_overflow_auxEPS1_RKS1_RKNS_12__false_typeEmb
	.stabs	"__n:r(12,3)",64,0,249,30
	.stabn	192,0,0,LBB309-__ZN11stlpmtx_std6vectorI7VertexFNS_9allocatorIS1_EEE22_M_insert_overflow_auxEPS1_RKS1_RKNS_12__false_typeEmb
	.stabn	224,0,0,LBE309-__ZN11stlpmtx_std6vectorI7VertexFNS_9allocatorIS1_EEE22_M_insert_overflow_auxEPS1_RKS1_RKNS_12__false_typeEmb
	.stabn	224,0,0,LBE307-__ZN11stlpmtx_std6vectorI7VertexFNS_9allocatorIS1_EEE22_M_insert_overflow_auxEPS1_RKS1_RKNS_12__false_typeEmb
	.stabn	224,0,0,LBE304-__ZN11stlpmtx_std6vectorI7VertexFNS_9allocatorIS1_EEE22_M_insert_overflow_auxEPS1_RKS1_RKNS_12__false_typeEmb
	.stabn	224,0,0,LBE263-__ZN11stlpmtx_std6vectorI7VertexFNS_9allocatorIS1_EEE22_M_insert_overflow_auxEPS1_RKS1_RKNS_12__false_typeEmb
	.stabs	"__len:r(12,2)",64,0,87,7
	.stabs	"__new_finish:r(44,3)",64,0,89,4
	.stabn	192,0,0,LBB354-__ZN11stlpmtx_std6vectorI7VertexFNS_9allocatorIS1_EEE22_M_insert_overflow_auxEPS1_RKS1_RKNS_12__false_typeEmb
	.stabs	"__n:(12,2)",128,0,171,-64
	.stabn	192,0,0,LBB364-__ZN11stlpmtx_std6vectorI7VertexFNS_9allocatorIS1_EEE22_M_insert_overflow_auxEPS1_RKS1_RKNS_12__false_typeEmb
	.stabs	"__size:(0,454)",128,0,172,-68
	.stabs	"__len:r(12,2)",64,0,175,12
	.stabn	192,0,0,LBB366-__ZN11stlpmtx_std6vectorI7VertexFNS_9allocatorIS1_EEE22_M_insert_overflow_auxEPS1_RKS1_RKNS_12__false_typeEmb
	.stabn	224,0,0,LBE366-__ZN11stlpmtx_std6vectorI7VertexFNS_9allocatorIS1_EEE22_M_insert_overflow_auxEPS1_RKS1_RKNS_12__false_typeEmb
	.stabn	224,0,0,LBE364-__ZN11stlpmtx_std6vectorI7VertexFNS_9allocatorIS1_EEE22_M_insert_overflow_auxEPS1_RKS1_RKNS_12__false_typeEmb
	.stabs	"__first:r(44,3)",64,0,83,13
	.stabn	192,0,0,LBB375-__ZN11stlpmtx_std6vectorI7VertexFNS_9allocatorIS1_EEE22_M_insert_overflow_auxEPS1_RKS1_RKNS_12__false_typeEmb
	.stabs	"__cur:r(44,3)",64,0,84,30
	.stabn	192,0,0,LBB377-__ZN11stlpmtx_std6vectorI7VertexFNS_9allocatorIS1_EEE22_M_insert_overflow_auxEPS1_RKS1_RKNS_12__false_typeEmb
	.stabs	"__n:r(12,3)",64,0,86,16
	.stabn	192,0,0,LBB379-__ZN11stlpmtx_std6vectorI7VertexFNS_9allocatorIS1_EEE22_M_insert_overflow_auxEPS1_RKS1_RKNS_12__false_typeEmb
	.stabn	224,0,0,LBE379-__ZN11stlpmtx_std6vectorI7VertexFNS_9allocatorIS1_EEE22_M_insert_overflow_auxEPS1_RKS1_RKNS_12__false_typeEmb
	.stabn	224,0,0,LBE377-__ZN11stlpmtx_std6vectorI7VertexFNS_9allocatorIS1_EEE22_M_insert_overflow_auxEPS1_RKS1_RKNS_12__false_typeEmb
	.stabn	224,0,0,LBE375-__ZN11stlpmtx_std6vectorI7VertexFNS_9allocatorIS1_EEE22_M_insert_overflow_auxEPS1_RKS1_RKNS_12__false_typeEmb
	.stabn	224,0,0,LBE354-__ZN11stlpmtx_std6vectorI7VertexFNS_9allocatorIS1_EEE22_M_insert_overflow_auxEPS1_RKS1_RKNS_12__false_typeEmb
	.stabs	"__len:r(12,2)",64,0,87,7
	.stabs	"__new_finish:r(44,3)",64,0,89,4
	.stabn	192,0,0,LBB395-__ZN11stlpmtx_std6vectorI7VertexFNS_9allocatorIS1_EEE22_M_insert_overflow_auxEPS1_RKS1_RKNS_12__false_typeEmb
	.stabs	"__buf_size:r(12,2)",64,0,347,4
	.stabn	192,0,0,LBB405-__ZN11stlpmtx_std6vectorI7VertexFNS_9allocatorIS1_EEE22_M_insert_overflow_auxEPS1_RKS1_RKNS_12__false_typeEmb
	.stabs	"__y:r(7,28)",64,0,113,30
	.stabn	192,0,0,LBB410-__ZN11stlpmtx_std6vectorI7VertexFNS_9allocatorIS1_EEE22_M_insert_overflow_auxEPS1_RKS1_RKNS_12__false_typeEmb
	.stabn	224,0,0,LBE410-__ZN11stlpmtx_std6vectorI7VertexFNS_9allocatorIS1_EEE22_M_insert_overflow_auxEPS1_RKS1_RKNS_12__false_typeEmb
	.stabn	224,0,0,LBE405-__ZN11stlpmtx_std6vectorI7VertexFNS_9allocatorIS1_EEE22_M_insert_overflow_auxEPS1_RKS1_RKNS_12__false_typeEmb
	.stabn	224,0,0,LBE395-__ZN11stlpmtx_std6vectorI7VertexFNS_9allocatorIS1_EEE22_M_insert_overflow_auxEPS1_RKS1_RKNS_12__false_typeEmb
Lscope9:
	.stabs	"_ZN10Algorithms6BezierEN11stlpmtx_std6vectorI7VertexFNS0_9allocatorIS2_EEEERS5_:F(0,6)",36,0,204,__ZN10Algorithms6BezierEN11stlpmtx_std6vectorI7VertexFNS0_9allocatorIS2_EEEERS5_
	.stabs	"points:a(0,202)",64,0,204,7
	.stabs	"bezier:P(0,235)",64,0,204,4
	.global	__ZN10Algorithms6BezierEN11stlpmtx_std6vectorI7VertexFNS0_9allocatorIS2_EEEERS5_

.func __ZN10Algorithms6BezierEN11stlpmtx_std6vectorI7VertexFNS0_9allocatorIS2_EEEERS5_, 2, void
	.stabs	"/Users/brzeszczot/workspace/mosync_engine2/Alg.cpp",132,0,0,Ltext91
Ltext91:
	.line 204
	push rt,d3
	sub  sp,#0x14
	ld   fr,sp
	add  fr,#0x2c
	ld   d3,i0
	ld   d0,i1
	.dlab LBB411
	.dlab LBB412
	.dlab LBB413
	.line 205
	ld   d1,#0x0
	ld   d2,fr
	add  d2,#0xffffffe0
	jp   #L441
L445:
	.dlab LBB414
	.dlab LBB415
	.dlab LBB416
	.dlab LBB417
	.dlab LBB418
	.dlab LBB419
	.dlab LBB420
	.dlab LBB421
	.dlab LBB422
	.dlab LBB423
	.stabs	"/Applications/MoSync/include/newlib/stlport/../new",132,0,0,Ltext92
Ltext92:
	.line 83
	ld   r14,[fr,-32]
	ld   [i1],r14
	ld   r14,[fr,-28]
	ld   [i1,4],r14
	.dlab LBE423
	.dlab LBE422
	.dlab LBE421
	.dlab LBE420
	.stabs	"/Applications/MoSync/include/newlib/stlport/stl/_vector.h",132,0,0,Ltext93
Ltext93:
	.line 382
	add  i1,#0x8
	ld   [d0,4],i1
	.dlab LBE419
	.dlab LBE418
	.dlab LBE417
	.dlab LBE416
	.dlab LBE415
	.dlab LBE414
	.stabs	"/Users/brzeszczot/workspace/mosync_engine2/Alg.cpp",132,0,0,Ltext94
Ltext94:
	.line 205
	add  d1,#0x1
	ld   r14,#0x3e7
	jc   gt,d1,r14,#L444
L441:
	.dlab LBB424
	.dlab LBB425
	.dlab LBB426
	.dlab LBB427
	.stabs	"/Users/brzeszczot/workspace/mosync_engine2/VertexF.hpp",132,0,0,Ltext95
Ltext95:
	.line 16
	ld r14,#0x0		; 0
	ld  [fr,-32],r14
	ld  [d2,4],r14
	.dlab LBE427
	.dlab LBE426
	.stabs	"/Users/brzeszczot/workspace/mosync_engine2/Alg.cpp",132,0,0,Ltext96
Ltext96:
	.line 208
	ld   i0,d1
	call &___floatsisf ; call non-native
	ld i0,r14
	ld i1,#0x4479c000		; 1.58595072315e-321
	call &___divsf3 ; call non-native
	.dlab LBB428
	.dlab LBB429
	.dlab LBB430
	.dlab LBB431
	.stabs	"/Applications/MoSync/include/newlib/stlport/stl/_vector.h",132,0,0,Ltext97
Ltext97:
	.line 182
	ld   i1,[d3]
	.dlab LBE431
	.dlab LBE430
	.dlab LBE429
	.dlab LBE428
	.dlab LBB432
	.dlab LBB433
	add  i1,#0x18
	.dlab LBE433
	.dlab LBE432
	.line 202
	ld   [sp],i1
	add  i1,#0xffffffe8
	ld  [sp,4],r14
	ld   i0,d2
	ld   i2,i1
	add  i2,#0x8
	ld   i3,i1
	add  i3,#0x10
	call &__ZN10Algorithms13bezier_pointsER7VertexFRKS0_S3_S3_S3_f ; call non-native
	.dlab LBB434
	.dlab LBB435
	.dlab LBB436
	.dlab LBB437
	.line 380
	ld   i1,[d0,4]
	ld   r14,[d0,8]
	jc   ne,i1,r14,#L445
	.dlab LBB438
	.dlab LBB439
	.dlab LBB440
	.dlab LBB441
	.line 162
	ld   r14,#0x1
	ld   [sp],r14
	ld.b [sp,4],r14
	ld   i0,d0
	ld   i2,d2
	ld   i3,fr
	add  i3,#0xffffffdf
	call &__ZN11stlpmtx_std6vectorI7VertexFNS_9allocatorIS1_EEE22_M_insert_overflow_auxEPS1_RKS1_RKNS_12__false_typeEmb ; call non-native
	.dlab LBE441
	.dlab LBE440
	.dlab LBE439
	.dlab LBE438
	.dlab LBE437
	.dlab LBE436
	.dlab LBE435
	.dlab LBE434
	.dlab LBE425
	.dlab LBE424
	.stabs	"/Users/brzeszczot/workspace/mosync_engine2/Alg.cpp",132,0,0,Ltext98
Ltext98:
	.line 205
	add  d1,#0x1
	ld   r14,#0x3e7
	jc   le,d1,r14,#L441
L444:
	.dlab LBE413
	.dlab LBE412
	.dlab LBE411
	add  sp,#0x14
	pop  rt,d3
	ret
	.stabs	"i:r(0,3)",64,0,205,5
	.stabn	192,0,0,LBB413-__ZN10Algorithms6BezierEN11stlpmtx_std6vectorI7VertexFNS0_9allocatorIS2_EEEERS5_
	.stabs	"p:(44,1)",128,0,207,-32
	.stabn	192,0,0,LBB415-__ZN10Algorithms6BezierEN11stlpmtx_std6vectorI7VertexFNS0_9allocatorIS2_EEEERS5_
	.stabn	224,0,0,LBE415-__ZN10Algorithms6BezierEN11stlpmtx_std6vectorI7VertexFNS0_9allocatorIS2_EEEERS5_
	.stabs	"p:(44,1)",128,0,207,-32
	.stabn	192,0,0,LBB425-__ZN10Algorithms6BezierEN11stlpmtx_std6vectorI7VertexFNS0_9allocatorIS2_EEEERS5_
	.stabn	224,0,0,LBE425-__ZN10Algorithms6BezierEN11stlpmtx_std6vectorI7VertexFNS0_9allocatorIS2_EEEERS5_
	.stabn	224,0,0,LBE413-__ZN10Algorithms6BezierEN11stlpmtx_std6vectorI7VertexFNS0_9allocatorIS2_EEEERS5_
Lscope10:
	.text
	.stabs "",100,0,0,Letext
Letext:
