.model full
	.sourcedir '/Users/brzeszczot/workspace/mosync_engine2/'
	.sourcefile '/Users/brzeszczot/workspace/mosync_engine2/Game.cpp'
	.stabs	"gcc2_compiled.",60,0,0,0
	.stabs	"__vtbl_ptr_type:t(0,1)=*(0,2)=f(0,3)=r(0,3);-2147483648;2147483647;",128,0,0,0
	.stabs	"bool:t(0,4)=@s8;-16;",128,0,0,0
	.stabs	"wchar_t:t(0,5)=@s16;r(0,5);0;65535;",128,0,0,0
	.stabs	"void:t(0,6)=(0,6)",128,0,0,0
	.stabs	"long double:t(0,7)=r(0,3);8;0;",128,0,0,0
	.stabs	"double:t(0,8)=r(0,3);8;0;",128,0,0,0
	.stabs	"float:t(0,9)=r(0,3);4;0;",128,0,0,0
	.stabs	"unsigned char:t(0,10)=@s8;r(0,10);0;255;",128,0,0,0
	.stabs	"signed char:t(0,11)=@s8;r(0,11);-128;127;",128,0,0,0
	.stabs	"short unsigned int:t(0,12)=@s16;r(0,12);0;65535;",128,0,0,0
	.stabs	"short int:t(0,13)=@s16;r(0,13);-32768;32767;",128,0,0,0
	.stabs	"long long unsigned int:t(0,14)=@s64;r(0,14);0000000000000;01777777777777777777777;",128,0,0,0
	.stabs	"long long int:t(0,15)=@s64;r(0,15);01000000000000000000000;0777777777777777777777;",128,0,0,0
	.stabs	"long unsigned int:t(0,16)=r(0,16);0000000000000;0037777777777;",128,0,0,0
	.stabs	"unsigned int:t(0,17)=r(0,17);0000000000000;0037777777777;",128,0,0,0
	.stabs	"long int:t(0,18)=r(0,18);-2147483648;2147483647;",128,0,0,0
	.stabs	"int:t(0,3)",128,0,0,0
	.stabs	"char:t(0,19)=r(0,19);0;127;",128,0,0,0
	.stabs	"__builtin_va_list:t(0,20)=*(0,6)",128,0,0,0
	.stabs	"complex long double:t(0,21)=R3;16;0;",128,0,0,0
	.stabs	"complex double:t(0,22)=R3;16;0;",128,0,0,0
	.stabs	"complex float:t(0,23)=R3;8;0;",128,0,0,0
	.stabs	"complex int:t(0,24)=s8real:(0,3),0,32;imag:(0,3),32,32;;",128,0,0,0
	.stabs	"/Users/brzeszczot/workspace/mosync_engine2/Game.hpp",130,0,0,0
	.stabs	"/Users/brzeszczot/workspace/mosync_engine2/Vertex.hpp",130,0,0,0
	.stabs	"Vertex:Tt(2,1)=s8x:(0,3),0,32;y:(0,3),32,32;__base_ctor::(2,2)=#(2,1),(0,6),(2,3)=*(2,1),(0,6);:_ZN6VertexC2Ev;2A.;__comp_ctor::(2,2):_ZN6VertexC1Ev;2A.;__base_ctor::(2,4)=#(2,1),(0,6),(2,3),(0,3),(0,3),(0,6);:_ZN6VertexC2Eii;2A.;__comp_ctor::(2,4):_ZN6VertexC1Eii;2A.;__base_ctor::(2,5)=#(2,1),(0,6),(2,3),(0,3),(0,6);:_ZN6VertexC2Ei;2A.;__comp_ctor::(2,5):_ZN6VertexC1Ei;2A.;operator+::(2,6)=#(2,1),(2,1),(2,3),(2,1),(0,6);:_ZN6VertexplES_;2A.;operator-::(2,6):_ZN6VertexmiES_;2A.;operator*::(2,6):_ZN6VertexmlES_;2A.;operator/::(2,6):_ZN6VertexdvES_;2A.;operator==::(2,7)=#(2,1),(0,4),(2,3),(2,1),(0,6);:_ZN6VertexeqES_;2A.;operator!=::(2,7):_ZN6VertexneES_;2A.;operator++::(2,8)=#(2,1),(2,1),(2,3),(0,3),(0,6);:_ZN6VertexppEi;2A.;operator--::(2,8):_ZN6VertexmmEi;2A.;operator=::(2,6):_ZN6VertexaSES_;2A.;operator+=::(2,6):_ZN6VertexpLES_;2A.;operator-=::(2,6):_ZN6VertexmIES_;2A.;operator*=::(2,6):_ZN6VertexmLES_;2A.;operator/=::(2,6):_ZN6VertexdVES_;2A.;__base_ctor::(2,9)=#(2,1),(0,6),(2,3),(2,10)=&(2,11)=k(2,1),(0,6);:_ZN6VertexC2ERKS_;2A.;__comp_ctor::(2,9):_ZN6VertexC1ERKS_;2A.;;",128,0,13,0
	.stabn	162,0,0,0
	.stabs	"/Users/brzeszczot/workspace/mosync_engine2/Object.hpp",130,0,0,0
	.stabs	"/Users/brzeszczot/workspace/mosync_engine2/ObjBase.hpp",130,0,0,0
	.stabs	"/Users/brzeszczot/workspace/mosync_engine2/IObjBase.hpp",130,0,0,0
	.stabs	"IObjBase::s_properties:Tt(5,1)=s20visible:(0,4),0,8;is_wall:(0,4),8,8;border:(0,4),16,8;enabled:(0,4),24,8;size:(2,1),32,64;coords:(2,1),96,64;operator=::(5,2)=#(5,1),(5,3)=&(5,1),(5,4)=*(5,1),(5,5)=&(5,6)=k(5,1),(0,6);:_ZN8IObjBase12s_propertiesaSERKS0_;2A.;__base_ctor::(5,7)=#(5,1),(0,6),(5,4),(5,5),(0,6);:_ZN8IObjBase12s_propertiesC2ERKS0_;2A.;__comp_ctor::(5,7):_ZN8IObjBase12s_propertiesC1ERKS0_;2A.;__base_ctor::(5,8)=#(5,1),(0,6),(5,4),(0,6);:_ZN8IObjBase12s_propertiesC2Ev;2A.;__comp_ctor::(5,8):_ZN8IObjBase12s_propertiesC1Ev;2A.;;",128,0,12,0
	.stabn	162,0,0,0
	.stabn	162,0,0,0
	.stabs	"/Users/brzeszczot/workspace/mosync_engine2/ObjMove.hpp",130,0,0,0
	.stabs	"/Users/brzeszczot/workspace/mosync_engine2/IObjMove.hpp",130,0,0,0
	.stabs	"IObjMove::e_stat:t(7,1)=eSTOP:0,MOVE:1,HOLD:2,RESUME:3,;",128,0,11,0
	.stabs	"IObjMove::e_directions:t(7,2)=eNONE:-1,UP:0,DOWN:1,LEFT:2,RIGHT:3,;",128,0,12,0
	.stabs	"IObjMove::s_moveparam:Tt(7,3)=s24destination:(2,1),0,64;move_speed:(0,3),64,32;destination_current:(0,3),96,32;status:(7,1),128,32;direction:(7,2),160,32;operator=::(7,4)=#(7,3),(7,5)=&(7,3),(7,6)=*(7,3),(7,7)=&(7,8)=k(7,3),(0,6);:_ZN8IObjMove11s_moveparamaSERKS0_;2A.;__base_ctor::(7,9)=#(7,3),(0,6),(7,6),(7,7),(0,6);:_ZN8IObjMove11s_moveparamC2ERKS0_;2A.;__comp_ctor::(7,9):_ZN8IObjMove11s_moveparamC1ERKS0_;2A.;__base_ctor::(7,10)=#(7,3),(0,6),(7,6),(0,6);:_ZN8IObjMove11s_moveparamC2Ev;2A.;__comp_ctor::(7,10):_ZN8IObjMove11s_moveparamC1Ev;2A.;;",128,0,14,0
	.stabn	162,0,0,0
	.stabs	"/Users/brzeszczot/workspace/mosync_engine2/Alg.hpp",130,0,0,0
	.stabs	"/Applications/MoSync/include/newlib/stlport/cmath",130,0,0,0
	.stabs	"/Applications/MoSync/include/newlib/stlport/stl/_cmath.h",130,0,0,0
	.stabs	"/Applications/MoSync/include/newlib/stlport/math.h",130,0,0,0
	.stabs	"/Applications/MoSync/include/newlib/stlport/../math.h",130,0,0,0
	.stabs	"/Applications/MoSync/include/newlib/sys/reent.h",130,0,0,0
	.stabs	"/Applications/MoSync/include/newlib/sys/_types.h",130,0,0,0
	.stabs	"/Applications/MoSync/include/newlib/machine/_types.h",130,0,0,0
	.stabs	"/Applications/MoSync/include/newlib/machine/_default_types.h",130,0,0,0
	.stabs	"__int8_t:t(16,1)=(0,11)",128,0,26,0
	.stabs	"__uint8_t:t(16,2)=(0,10)",128,0,27,0
	.stabs	"__int16_t:t(16,3)=(0,13)",128,0,36,0
	.stabs	"__uint16_t:t(16,4)=(0,12)",128,0,37,0
	.stabs	"__int_least16_t:t(16,5)=(16,3)",128,0,46,0
	.stabs	"__uint_least16_t:t(16,6)=(16,4)",128,0,47,0
	.stabs	"__int32_t:t(16,7)=(0,3)",128,0,58,0
	.stabs	"__uint32_t:t(16,8)=(0,17)",128,0,59,0
	.stabs	"__int_least32_t:t(16,9)=(16,7)",128,0,76,0
	.stabs	"__uint_least32_t:t(16,10)=(16,8)",128,0,77,0
	.stabs	"__int64_t:t(16,11)=(0,15)",128,0,99,0
	.stabs	"__uint64_t:t(16,12)=(0,14)",128,0,100,0
	.stabn	162,0,0,0
	.stabn	162,0,0,0
	.stabs	"/Applications/MoSync/include/newlib/sys/lock.h",130,0,0,0
	.stabs	"_LOCK_T:t(17,1)=(0,3)",128,0,6,0
	.stabs	"_LOCK_RECURSIVE_T:t(17,2)=(0,3)",128,0,7,0
	.stabn	162,0,0,0
	.stabs	"_off_t:t(14,1)=(0,18)",128,0,16,0
	.stabs	"__dev_t:t(14,2)=(0,13)",128,0,24,0
	.stabs	"__uid_t:t(14,3)=(0,12)",128,0,29,0
	.stabs	"__gid_t:t(14,4)=(0,12)",128,0,32,0
	.stabs	"_off64_t:t(14,5)=(0,15)",128,0,36,0
	.stabs	"_fpos_t:t(14,6)=(0,18)",128,0,44,0
	.stabs	"_ssize_t:t(14,7)=(0,3)",128,0,56,0
	.stabs	"/Applications/MoSync/include/newlib/stlport/stddef.h",130,0,0,0
	.stabs	"/Applications/MoSync/include/newlib/stlport/../stddef.h",130,0,0,0
	.stabs	"wint_t:t(19,1)=(0,3)",128,0,6,0
	.stabs	"size_t:t(19,2)=(0,16)",128,0,7,0
	.stabs	"ptrdiff_t:t(19,3)=(0,3)",128,0,8,0
	.stabs	"wchar:t(19,4)=(0,5)",128,0,13,0
	.stabn	162,0,0,0
	.stabn	162,0,0,0
	.stabs	"_mbstate_t:t(14,8)=s8__count:(0,3),0,32;__value:(14,9)=u4__wch:(19,1),0,32;__wchb:(14,10)=ar(14,11)=r(14,11);0000000000000;0037777777777;;0;3;(0,10),0,32;operator=::(14,12)=#(14,9),(14,13)=&(14,9),(14,14)=*(14,9),(14,15)=&(14,16)=k(14,9),(0,6);:_ZN10_mbstate_t3$_1aSERKS0_;2A.;__base_ctor::(14,17)=#(14,9),(0,6),(14,14),(14,15),(0,6);:_ZN10_mbstate_t3$_1C2ERKS0_;2A.;__comp_ctor::(14,17):_ZN10_mbstate_t3$_1C1ERKS0_;2A.;__base_ctor::(14,18)=#(14,9),(0,6),(14,14),(0,6);:_ZN10_mbstate_t3$_1C2Ev;2A.;__comp_ctor::(14,18):_ZN10_mbstate_t3$_1C1Ev;2A.;;,32,32;operator=::(14,19)=#(14,8),(14,20)=&(14,8),(14,21)=*(14,8),(14,22)=&(14,23)=k(14,8),(0,6);:_ZN10_mbstate_taSERKS_;2A.;__base_ctor::(14,24)=#(14,8),(0,6),(14,21),(14,22),(0,6);:_ZN10_mbstate_tC2ERKS_;2A.;__comp_ctor::(14,24):_ZN10_mbstate_tC1ERKS_;2A.;__base_ctor::(14,25)=#(14,8),(0,6),(14,21),(0,6);:_ZN10_mbstate_tC2Ev;2A.;__comp_ctor::(14,25):_ZN10_mbstate_tC1Ev;2A.;;",128,0,75,0
	.stabs	"_flock_t:t(14,26)=(17,2)",128,0,79,0
	.stabs	"_iconv_t:t(14,27)=(14,28)=*(0,6)",128,0,84,0
	.stabn	162,0,0,0
	.stabs	"__ULong:t(13,1)=(0,16)",128,0,21,0
	.stabs	"_Bigint:Tt(13,2)=s24_next:(13,3)=*(13,2),0,32;_k:(0,3),32,32;_maxwds:(0,3),64,32;_sign:(0,3),96,32;_wds:(0,3),128,32;_x:(13,4)=ar(14,11);0;0;(13,1),160,32;operator=::(13,5)=#(13,2),(13,6)=&(13,2),(13,3),(13,7)=&(13,8)=k(13,2),(0,6);:_ZN7_BigintaSERKS_;2A.;__base_ctor::(13,9)=#(13,2),(0,6),(13,3),(13,7),(0,6);:_ZN7_BigintC2ERKS_;2A.;__comp_ctor::(13,9):_ZN7_BigintC1ERKS_;2A.;__base_ctor::(13,10)=#(13,2),(0,6),(13,3),(0,6);:_ZN7_BigintC2Ev;2A.;__comp_ctor::(13,10):_ZN7_BigintC1Ev;2A.;;",128,0,45,0
	.stabs	"__tm:Tt(13,11)=s36__tm_sec:(0,3),0,32;__tm_min:(0,3),32,32;__tm_hour:(0,3),64,32;__tm_mday:(0,3),96,32;__tm_mon:(0,3),128,32;__tm_year:(0,3),160,32;__tm_wday:(0,3),192,32;__tm_yday:(0,3),224,32;__tm_isdst:(0,3),256,32;operator=::(13,12)=#(13,11),(13,13)=&(13,11),(13,14)=*(13,11),(13,15)=&(13,16)=k(13,11),(0,6);:_ZN4__tmaSERKS_;2A.;__base_ctor::(13,17)=#(13,11),(0,6),(13,14),(13,15),(0,6);:_ZN4__tmC2ERKS_;2A.;__comp_ctor::(13,17):_ZN4__tmC1ERKS_;2A.;__base_ctor::(13,18)=#(13,11),(0,6),(13,14),(0,6);:_ZN4__tmC2Ev;2A.;__comp_ctor::(13,18):_ZN4__tmC1Ev;2A.;;",128,0,53,0
	.stabs	"_on_exit_args:Tt(13,19)=s264_fnargs:(13,20)=ar(14,11);0;31;(14,28),0,1024;_dso_handle:(13,20),1024,1024;_fntypes:(13,1),2048,32;_is_cxa:(13,1),2080,32;operator=::(13,21)=#(13,19),(13,22)=&(13,19),(13,23)=*(13,19),(13,24)=&(13,25)=k(13,19),(0,6);:_ZN13_on_exit_argsaSERKS_;2A.;__base_ctor::(13,26)=#(13,19),(0,6),(13,23),(13,24),(0,6);:_ZN13_on_exit_argsC2ERKS_;2A.;__comp_ctor::(13,26):_ZN13_on_exit_argsC1ERKS_;2A.;__base_ctor::(13,27)=#(13,19),(0,6),(13,23),(0,6);:_ZN13_on_exit_argsC2Ev;2A.;__comp_ctor::(13,27):_ZN13_on_exit_argsC1Ev;2A.;;",128,0,71,0
	.stabs	"_atexit:Tt(13,28)=s400_next:(13,29)=*(13,28),0,32;_ind:(0,3),32,32;_fns:(13,30)=ar(14,11);0;31;(13,31)=*(13,32)=f(0,6),64,1024;_on_exit_args:(13,19),1088,2112;operator=::(13,33)=#(13,28),(13,34)=&(13,28),(13,29),(13,35)=&(13,36)=k(13,28),(0,6);:_ZN7_atexitaSERKS_;2A.;__base_ctor::(13,37)=#(13,28),(0,6),(13,29),(13,35),(0,6);:_ZN7_atexitC2ERKS_;2A.;__comp_ctor::(13,37):_ZN7_atexitC1ERKS_;2A.;__base_ctor::(13,38)=#(13,28),(0,6),(13,29),(0,6);:_ZN7_atexitC2Ev;2A.;__comp_ctor::(13,38):_ZN7_atexitC1Ev;2A.;;",128,0,89,0
	.stabs	"__sbuf:Tt(13,39)=s8_base:(13,40)=*(0,10),0,32;_size:(0,3),32,32;operator=::(13,41)=#(13,39),(13,42)=&(13,39),(13,43)=*(13,39),(13,44)=&(13,45)=k(13,39),(0,6);:_ZN6__sbufaSERKS_;2A.;__base_ctor::(13,46)=#(13,39),(0,6),(13,43),(13,44),(0,6);:_ZN6__sbufC2ERKS_;2A.;__comp_ctor::(13,46):_ZN6__sbufC1ERKS_;2A.;__base_ctor::(13,47)=#(13,39),(0,6),(13,43),(0,6);:_ZN6__sbufC2Ev;2A.;__comp_ctor::(13,47):_ZN6__sbufC1Ev;2A.;;",128,0,105,0
	.stabs	"__sFILE:Tt(13,48)=s100_p:(13,40),0,32;_r:(0,3),32,32;_w:(0,3),64,32;_flags:(0,13),96,16;_file:(0,13),112,16;_bf:(13,39),128,64;_lbfsize:(0,3),192,32;_cookie:(14,28),224,32;_read:(13,49)=*(13,50)=f(0,3),256,32;_write:(13,51)=*(13,52)=f(0,3),288,32;_seek:(13,53)=*(13,54)=f(14,6),320,32;_close:(13,55)=*(13,56)=f(0,3),352,32;_ub:(13,39),384,64;_up:(13,40),448,32;_ur:(0,3),480,32;_ubuf:(13,57)=ar(14,11);0;2;(0,10),512,24;_nbuf:(13,58)=ar(14,11);0;0;(0,10),536,8;_lb:(13,39),544,64;_blksize:(0,3),608,32;_offset:(0,3),640,32;_data:(13,59)=*(13,60)=xs_reent:,672,32;_mbstate:(14,8),704,64;_flags2:(0,3),768,32;operator=::(13,61)=#(13,48),(13,62)=&(13,48),(13,63)=*(13,48),(13,64)=&(13,65)=k(13,48),(0,6);:_ZN7__sFILEaSERKS_;2A.;__base_ctor::(13,66)=#(13,48),(0,6),(13,63),(13,64),(0,6);:_ZN7__sFILEC2ERKS_;2A.;__comp_ctor::(13,66):_ZN7__sFILEC1ERKS_;2A.;__base_ctor::(13,67)=#(13,48),(0,6),(13,63),(0,6);:_ZN7__sFILEC2Ev;2A.;__comp_ctor::(13,67):_ZN7__sFILEC1Ev;2A.;;",128,0,169,0
	.stabs	"__FILE:t(13,68)=(13,48)",128,0,273,0
	.stabs	"_glue:Tt(13,69)=s12_next:(13,70)=*(13,69),0,32;_niobs:(0,3),32,32;_iobs:(13,71)=*(13,68),64,32;operator=::(13,72)=#(13,69),(13,73)=&(13,69),(13,70),(13,74)=&(13,75)=k(13,69),(0,6);:_ZN5_glueaSERKS_;2A.;__base_ctor::(13,76)=#(13,69),(0,6),(13,70),(13,74),(0,6);:_ZN5_glueC2ERKS_;2A.;__comp_ctor::(13,76):_ZN5_glueC1ERKS_;2A.;__base_ctor::(13,77)=#(13,69),(0,6),(13,70),(0,6);:_ZN5_glueC2Ev;2A.;__comp_ctor::(13,77):_ZN5_glueC1Ev;2A.;;",128,0,278,0
	.stabs	"_rand48:Tt(13,78)=s14_seed:(13,79)=ar(14,11);0;2;(0,12),0,48;_mult:(13,79),48,48;_add:(0,12),96,16;operator=::(13,80)=#(13,78),(13,81)=&(13,78),(13,82)=*(13,78),(13,83)=&(13,84)=k(13,78),(0,6);:_ZN7_rand48aSERKS_;2A.;__base_ctor::(13,85)=#(13,78),(0,6),(13,82),(13,83),(0,6);:_ZN7_rand48C2ERKS_;2A.;__comp_ctor::(13,85):_ZN7_rand48C1ERKS_;2A.;__base_ctor::(13,86)=#(13,78),(0,6),(13,82),(0,6);:_ZN7_rand48C2Ev;2A.;__comp_ctor::(13,86):_ZN7_rand48C1Ev;2A.;;",128,0,305,0
	.stabs	"_reent:Tt(13,60)=s1048_errno:(0,3),0,32;_stdin:(13,71),32,32;_stdout:(13,71),64,32;_stderr:(13,71),96,32;_inc:(0,3),128,32;_emergency:(13,87)=ar(14,11);0;24;(0,19),160,200;_current_category:(0,3),384,32;_current_locale:(13,88)=*(13,89)=k(0,19),416,32;__sdidinit:(0,3),448,32;__cleanup:(13,90)=*(13,91)=f(0,6),480,32;_result:(13,3),512,32;_result_k:(0,3),544,32;_p5s:(13,3),576,32;_freelist:(13,92)=*(13,3),608,32;_cvtlen:(0,3),640,32;_cvtbuf:(13,93)=*(0,19),672,32;_new:(13,94)=u240_reent:(13,95)=s204_unused_rand:(0,17),0,32;_strtok_last:(13,93),32,32;_asctime_buf:(13,96)=ar(14,11);0;25;(0,19),64,208;_localtime_buf:(13,11),288,288;_gamma_signgam:(0,3),576,32;_rand_next:(0,14),608,64;_r48:(13,78),672,112;_mblen_state:(14,8),800,64;_mbtowc_state:(14,8),864,64;_wctomb_state:(14,8),928,64;_l64a_buf:(13,97)=ar(14,11);0;7;(0,19),992,64;_signal_buf:(13,98)=ar(14,11);0;23;(0,19),1056,192;_getdate_err:(0,3),1248,32;_mbrlen_state:(14,8),1280,64;_mbrtowc_state:(14,8),1344,64;_mbsrtowcs_state:(14,8),1408,64;_wcrtomb_state:(14,8),1472,64;_wcsrtombs_state:(14,8),1536,64;_h_errno:(0,3),1600,32;operator=::(13,99)=#(13,95),(13,100)=&(13,95),(13,101)=*(13,95),(13,102)=&(13,103)=k(13,95),(0,6);:_ZN6_reent3$_23$_3aSERKS1_;2A.;__base_ctor::(13,104)=#(13,95),(0,6),(13,101),(13,102),(0,6);:_ZN6_reent3$_23$_3C2ERKS1_;2A.;__comp_ctor::(13,104):_ZN6_reent3$_23$_3C1ERKS1_;2A.;__base_ctor::(13,105)=#(13,95),(0,6),(13,101),(0,6);:_ZN6_reent3$_23$_3C2Ev;2A.;__comp_ctor::(13,105):_ZN6_reent3$_23$_3C1Ev;2A.;;,0,1632;_unused:(13,106)=s240_nextf:(13,107)=ar(14,11);0;29;(13,40),0,960;_nmalloc:(13,108)=ar(14,11);0;29;(0,17),960,960;operator=::(13,109)=#(13,106),(13,110)=&(13,106),(13,111)=*(13,106),(13,112)=&(13,113)=k(13,106),(0,6);:_ZN6_reent3$_23$_4aSERKS1_;2A.;__base_ctor::(13,114)=#(13,106),(0,6),(13,111),(13,112),(0,6);:_ZN6_reent3$_23$_4C2ERKS1_;2A.;__comp_ctor::(13,114):_ZN6_reent3$_23$_4C1ERKS1_;2A.;__base_ctor::(13,115)=#(13,106),(0,6),(13,111),(0,6);:_ZN6_reent3$_23$_4C2Ev;2A.;__comp_ctor::(13,115):_ZN6_reent3$_23$_4C1Ev;2A.;;,0,1920;operator=::(13,116)=#(13,94),(13,117)=&(13,94),(13,118)=*(13,94),(13,119)=&(13,120)=k(13,94),(0,6);:_ZN6_reent3$_2aSERKS0_;2A.;__base_ctor::(13,121)=#(13,94),(0,6),(13,118),(13,119),(0,6);:_ZN6_reent3$_2C2ERKS0_;2A.;__comp_ctor::(13,121):_ZN6_reent3$_2C1ERKS0_;2A.;__base_ctor::(13,122)=#(13,94),(0,6),(13,118),(0,6);:_ZN6_reent3$_2C2Ev;2A.;__comp_ctor::(13,122):_ZN6_reent3$_2C1Ev;2A.;;,704,1920;_atexit:(13,29),2624,32;_atexit0:(13,28),2656,3200;_sig_func:(13,123)=*(13,124)=*(13,125)=f(0,6),5856,32;__sglue:(13,69),5888,96;__sf:(13,126)=ar(14,11);0;2;(13,68),5984,2400;operator=::(13,127)=#(13,60),(13,128)=&(13,60),(13,59),(13,129)=&(13,130)=k(13,60),(0,6);:_ZN6_reentaSERKS_;2A.;__base_ctor::(13,131)=#(13,60),(0,6),(13,59),(13,129),(0,6);:_ZN6_reentC2ERKS_;2A.;__comp_ctor::(13,131):_ZN6_reentC1ERKS_;2A.;__base_ctor::(13,132)=#(13,60),(0,6),(13,59),(0,6);:_ZN6_reentC2Ev;2A.;__comp_ctor::(13,132):_ZN6_reentC1Ev;2A.;;",128,0,581,0
	.stabn	162,0,0,0
	.stabs	"__dmath:Tt(12,1)=u8d:(0,8),0,64;i:(12,2)=ar(14,11);0;1;(13,1),0,64;operator=::(12,3)=#(12,1),(12,4)=&(12,1),(12,5)=*(12,1),(12,6)=&(12,7)=k(12,1),(0,6);:_ZN7__dmathaSERKS_;2A.;__base_ctor::(12,8)=#(12,1),(0,6),(12,5),(12,6),(0,6);:_ZN7__dmathC2ERKS_;2A.;__comp_ctor::(12,8):_ZN7__dmathC1ERKS_;2A.;__base_ctor::(12,9)=#(12,1),(0,6),(12,5),(0,6);:_ZN7__dmathC2Ev;2A.;__comp_ctor::(12,9):_ZN7__dmathC1Ev;2A.;;",128,0,15,0
	.stabs	"__fmath:Tt(12,10)=u4f:(0,9),0,32;i:(13,4),0,32;operator=::(12,11)=#(12,10),(12,12)=&(12,10),(12,13)=*(12,10),(12,14)=&(12,15)=k(12,10),(0,6);:_ZN7__fmathaSERKS_;2A.;__base_ctor::(12,16)=#(12,10),(0,6),(12,13),(12,14),(0,6);:_ZN7__fmathC2ERKS_;2A.;__comp_ctor::(12,16):_ZN7__fmathC1ERKS_;2A.;__base_ctor::(12,17)=#(12,10),(0,6),(12,13),(0,6);:_ZN7__fmathC2Ev;2A.;__comp_ctor::(12,17):_ZN7__fmathC1Ev;2A.;;",128,0,21,0
	.stabs	"float_t:t(12,18)=(0,9)",128,0,148,0
	.stabs	"double_t:t(12,19)=(0,8)",128,0,149,0
	.stabs	"__exception:Tt(12,20)=s36type:(0,3),0,32;name:(13,88),32,32;arg1:(0,8),64,64;arg2:(0,8),128,64;retval:(0,8),192,64;err:(0,3),256,32;operator=::(12,21)=#(12,20),(12,22)=&(12,20),(12,23)=*(12,20),(12,24)=&(12,25)=k(12,20),(0,6);:_ZN11__exceptionaSERKS_;2A.;__base_ctor::(12,26)=#(12,20),(0,6),(12,23),(12,24),(0,6);:_ZN11__exceptionC2ERKS_;2A.;__comp_ctor::(12,26):_ZN11__exceptionC1ERKS_;2A.;__base_ctor::(12,27)=#(12,20),(0,6),(12,23),(0,6);:_ZN11__exceptionC2Ev;2A.;__comp_ctor::(12,27):_ZN11__exceptionC1Ev;2A.;;",128,0,501,0
	.stabs	"__fdlibm_version:t(12,28)=e__fdlibm_ieee:-1,__fdlibm_svid:0,__fdlibm_xopen:1,__fdlibm_posix:2,;",128,0,555,0
	.stabn	162,0,0,0
	.stabn	162,0,0,0
	.stabs	"/Applications/MoSync/include/newlib/stlport/stl/_cstdlib.h",130,0,0,0
	.stabs	"/Applications/MoSync/include/newlib/stlport/stdlib.h",130,0,0,0
	.stabs	"/Applications/MoSync/include/newlib/stlport/../stdlib.h",130,0,0,0
	.stabs	"/Applications/MoSync/include/newlib/malloc.h",130,0,0,0
	.stabs	"mallinfo:Tt(23,1)=s40arena:(0,3),0,32;ordblks:(0,3),32,32;smblks:(0,3),64,32;hblks:(0,3),96,32;hblkhd:(0,3),128,32;usmblks:(0,3),160,32;fsmblks:(0,3),192,32;uordblks:(0,3),224,32;fordblks:(0,3),256,32;keepcost:(0,3),288,32;operator=::(23,2)=#(23,1),(23,3)=&(23,1),(23,4)=*(23,1),(23,5)=&(23,6)=k(23,1),(0,6);:_ZN8mallinfoaSERKS_;2A.;__base_ctor::(23,7)=#(23,1),(0,6),(23,4),(23,5),(0,6);:_ZN8mallinfoC2ERKS_;2A.;__comp_ctor::(23,7):_ZN8mallinfoC1ERKS_;2A.;__base_ctor::(23,8)=#(23,1),(0,6),(23,4),(0,6);:_ZN8mallinfoC2Ev;2A.;__comp_ctor::(23,8):_ZN8mallinfoC1Ev;2A.;;",128,0,24,0
	.stabn	162,0,0,0
	.stabs	"div_t:t(22,1)=s8quot:(0,3),0,32;rem:(0,3),32,32;operator=::(22,2)=#(22,1),(22,3)=&(22,1),(22,4)=*(22,1),(22,5)=&(22,6)=k(22,1),(0,6);:_ZN5div_taSERKS_;2A.;__base_ctor::(22,7)=#(22,1),(0,6),(22,4),(22,5),(0,6);:_ZN5div_tC2ERKS_;2A.;__comp_ctor::(22,7):_ZN5div_tC1ERKS_;2A.;__base_ctor::(22,8)=#(22,1),(0,6),(22,4),(0,6);:_ZN5div_tC2Ev;2A.;__comp_ctor::(22,8):_ZN5div_tC1Ev;2A.;;",128,0,35,0
	.stabs	"ldiv_t:t(22,9)=s8quot:(0,18),0,32;rem:(0,18),32,32;operator=::(22,10)=#(22,9),(22,11)=&(22,9),(22,12)=*(22,9),(22,13)=&(22,14)=k(22,9),(0,6);:_ZN6ldiv_taSERKS_;2A.;__base_ctor::(22,15)=#(22,9),(0,6),(22,12),(22,13),(0,6);:_ZN6ldiv_tC2ERKS_;2A.;__comp_ctor::(22,15):_ZN6ldiv_tC1ERKS_;2A.;__base_ctor::(22,16)=#(22,9),(0,6),(22,12),(0,6);:_ZN6ldiv_tC2Ev;2A.;__comp_ctor::(22,16):_ZN6ldiv_tC1Ev;2A.;;",128,0,41,0
	.stabs	"lldiv_t:t(22,17)=s16quot:(0,15),0,64;rem:(0,15),64,64;operator=::(22,18)=#(22,17),(22,19)=&(22,17),(22,20)=*(22,17),(22,21)=&(22,22)=k(22,17),(0,6);:_ZN7lldiv_taSERKS_;2A.;__base_ctor::(22,23)=#(22,17),(0,6),(22,20),(22,21),(0,6);:_ZN7lldiv_tC2ERKS_;2A.;__comp_ctor::(22,23):_ZN7lldiv_tC1ERKS_;2A.;__base_ctor::(22,24)=#(22,17),(0,6),(22,20),(0,6);:_ZN7lldiv_tC2Ev;2A.;__comp_ctor::(22,24):_ZN7lldiv_tC1Ev;2A.;;",128,0,48,0
	.stabn	162,0,0,0
	.stabn	162,0,0,0
	.stabn	162,0,0,0
	.stabn	162,0,0,0
	.stabn	162,0,0,0
	.stabs	"/Applications/MoSync/include/newlib/stlport/algorithm",130,0,0,0
	.stabs	"/Applications/MoSync/include/newlib/stlport/stl/_cstdio.h",130,0,0,0
	.stabs	"/Applications/MoSync/include/newlib/stlport/stdio.h",130,0,0,0
	.stabs	"/Applications/MoSync/include/newlib/stlport/../stdio.h",130,0,0,0
	.stabs	"/Applications/MoSync/include/newlib/stlport/stdarg.h",130,0,0,0
	.stabs	"/Applications/MoSync/include/newlib/stlport/../stdarg.h",130,0,0,0
	.stabs	"__gnuc_va_list:t(29,1)=(0,20)",128,0,34,0
	.stabs	"va_list:t(29,2)=(29,1)",128,0,35,0
	.stabn	162,0,0,0
	.stabn	162,0,0,0
	.stabs	"/Applications/MoSync/include/newlib/sys/types.h",130,0,0,0
	.stabs	"u_int8_t:t(30,1)=(16,2)",128,0,36,0
	.stabs	"u_int16_t:t(30,2)=(16,4)",128,0,39,0
	.stabs	"u_int32_t:t(30,3)=(16,8)",128,0,42,0
	.stabs	"u_int64_t:t(30,4)=(16,12)",128,0,46,0
	.stabs	"u_quad_t:t(30,5)=(16,12)",128,0,49,0
	.stabs	"quad_t:t(30,6)=(16,11)",128,0,50,0
	.stabs	"qaddr_t:t(30,7)=(30,8)=*(30,6)",128,0,51,0
	.stabs	"/Applications/MoSync/include/newlib/machine/types.h",130,0,0,0
	.stabs	"__off_t:t(31,1)=(0,18)",128,0,19,0
	.stabs	"__pid_t:t(31,2)=(0,3)",128,0,20,0
	.stabs	"__loff_t:t(31,3)=(0,15)",128,0,22,0
	.stabn	162,0,0,0
	.stabs	"u_char:t(30,9)=(0,10)",128,0,92,0
	.stabs	"u_short:t(30,10)=(0,12)",128,0,93,0
	.stabs	"u_int:t(30,11)=(0,17)",128,0,94,0
	.stabs	"u_long:t(30,12)=(0,16)",128,0,95,0
	.stabs	"ushort:t(30,13)=(0,12)",128,0,101,0
	.stabs	"uint:t(30,14)=(0,17)",128,0,102,0
	.stabs	"clock_t:t(30,15)=(0,16)",128,0,107,0
	.stabs	"time_t:t(30,16)=(0,18)",128,0,112,0
	.stabs	"timespec:Tt(30,17)=s8tv_sec:(30,16),0,32;tv_nsec:(0,18),32,32;operator=::(30,18)=#(30,17),(30,19)=&(30,17),(30,20)=*(30,17),(30,21)=&(30,22)=k(30,17),(0,6);:_ZN8timespecaSERKS_;2A.;__base_ctor::(30,23)=#(30,17),(0,6),(30,20),(30,21),(0,6);:_ZN8timespecC2ERKS_;2A.;__comp_ctor::(30,23):_ZN8timespecC1ERKS_;2A.;__base_ctor::(30,24)=#(30,17),(0,6),(30,20),(0,6);:_ZN8timespecC2Ev;2A.;__comp_ctor::(30,24):_ZN8timespecC1Ev;2A.;;",128,0,117,0
	.stabs	"itimerspec:Tt(30,25)=s16it_interval:(30,17),0,64;it_value:(30,17),64,64;operator=::(30,26)=#(30,25),(30,27)=&(30,25),(30,28)=*(30,25),(30,29)=&(30,30)=k(30,25),(0,6);:_ZN10itimerspecaSERKS_;2A.;__base_ctor::(30,31)=#(30,25),(0,6),(30,28),(30,29),(0,6);:_ZN10itimerspecC2ERKS_;2A.;__comp_ctor::(30,31):_ZN10itimerspecC1ERKS_;2A.;__base_ctor::(30,32)=#(30,25),(0,6),(30,28),(0,6);:_ZN10itimerspecC2Ev;2A.;__comp_ctor::(30,32):_ZN10itimerspecC1Ev;2A.;;",128,0,122,0
	.stabs	"daddr_t:t(30,33)=(0,18)",128,0,128,0
	.stabs	"caddr_t:t(30,34)=(13,93)",128,0,129,0
	.stabs	"ino_t:t(30,35)=(0,12)",128,0,136,0
	.stabs	"off_t:t(30,36)=(14,1)",128,0,165,0
	.stabs	"dev_t:t(30,37)=(14,2)",128,0,166,0
	.stabs	"uid_t:t(30,38)=(14,3)",128,0,167,0
	.stabs	"gid_t:t(30,39)=(14,4)",128,0,168,0
	.stabs	"pid_t:t(30,40)=(0,3)",128,0,174,0
	.stabs	"key_t:t(30,41)=(0,18)",128,0,182,0
	.stabs	"ssize_t:t(30,42)=(14,7)",128,0,184,0
	.stabs	"mode_t:t(30,43)=(0,17)",128,0,198,0
	.stabs	"nlink_t:t(30,44)=(0,12)",128,0,203,0
	.stabs	"fd_mask:t(30,45)=(0,18)",128,0,225,0
	.stabs	"_types_fd_set:Tt(30,46)=s8fds_bits:(30,47)=ar(14,11);0;1;(30,45),0,64;operator=::(30,48)=#(30,46),(30,49)=&(30,46),(30,50)=*(30,46),(30,51)=&(30,52)=k(30,46),(0,6);:_ZN13_types_fd_setaSERKS_;2A.;__base_ctor::(30,53)=#(30,46),(0,6),(30,50),(30,51),(0,6);:_ZN13_types_fd_setC2ERKS_;2A.;__comp_ctor::(30,53):_ZN13_types_fd_setC1ERKS_;2A.;__base_ctor::(30,54)=#(30,46),(0,6),(30,50),(0,6);:_ZN13_types_fd_setC2Ev;2A.;__comp_ctor::(30,54):_ZN13_types_fd_setC1Ev;2A.;;",128,0,233,0
	.stabs	"_types_fd_set:t(30,55)=(30,46)",128,0,235,0
	.stabs	"clockid_t:t(30,56)=(0,16)",128,0,256,0
	.stabs	"timer_t:t(30,57)=(0,16)",128,0,261,0
	.stabs	"useconds_t:t(30,58)=(0,16)",128,0,265,0
	.stabs	"suseconds_t:t(30,59)=(0,18)",128,0,266,0
	.stabn	162,0,0,0
	.stabs	"FILE:t(27,1)=(13,68)",128,0,50,0
	.stabs	"fpos_t:t(27,2)=(14,6)",128,0,55,0
	.stabs	"cookie_read_function_t:t(27,3)=(27,4)=f(30,42)",128,0,552,0
	.stabs	"cookie_write_function_t:t(27,5)=(27,6)=f(30,42)",128,0,554,0
	.stabs	"cookie_seek_function_t:t(27,7)=(27,8)=f(0,3)",128,0,559,0
	.stabs	"cookie_close_function_t:t(27,9)=(27,10)=f(0,3)",128,0,561,0
	.stabs	"cookie_io_functions_t:t(27,11)=s16read:(27,12)=*(27,3),0,32;write:(27,13)=*(27,5),32,32;seek:(27,14)=*(27,7),64,32;close:(27,15)=*(27,9),96,32;operator=::(27,16)=#(27,11),(27,17)=&(27,11),(27,18)=*(27,11),(27,19)=&(27,20)=k(27,11),(0,6);:_ZN21cookie_io_functions_taSERKS_;2A.;__base_ctor::(27,21)=#(27,11),(0,6),(27,18),(27,19),(0,6);:_ZN21cookie_io_functions_tC2ERKS_;2A.;__comp_ctor::(27,21):_ZN21cookie_io_functions_tC1ERKS_;2A.;__base_ctor::(27,22)=#(27,11),(0,6),(27,18),(0,6);:_ZN21cookie_io_functions_tC2Ev;2A.;__comp_ctor::(27,22):_ZN21cookie_io_functions_tC1Ev;2A.;;",128,0,570,0
	.stabn	162,0,0,0
	.stabn	162,0,0,0
	.stabn	162,0,0,0
	.stabs	"/Applications/MoSync/include/newlib/stlport/stl/_algo.h",130,0,0,0
	.stabs	"/Applications/MoSync/include/newlib/stlport/stl/_algobase.h",130,0,0,0
	.stabs	"/Applications/MoSync/include/newlib/stlport/stl/_pair.h",130,0,0,0
	.stabs	"/Applications/MoSync/include/newlib/stlport/stl/type_traits.h",130,0,0,0
	.stabs	"/Applications/MoSync/include/newlib/stlport/stl/type_manips.h",130,0,0,0
	.stabs	"__true_type:Tt(36,1)=s1operator=::(36,2)=#(36,1),(36,3)=&(36,1),(36,4)=*(36,1),(36,5)=&(36,6)=k(36,1),(0,6);:_ZN11stlpmtx_std11__true_typeaSERKS0_;2A.;__base_ctor::(36,7)=#(36,1),(0,6),(36,4),(36,5),(0,6);:_ZN11stlpmtx_std11__true_typeC2ERKS0_;2A.;__comp_ctor::(36,7):_ZN11stlpmtx_std11__true_typeC1ERKS0_;2A.;__base_ctor::(36,8)=#(36,1),(0,6),(36,4),(0,6);:_ZN11stlpmtx_std11__true_typeC2Ev;2A.;__comp_ctor::(36,8):_ZN11stlpmtx_std11__true_typeC1Ev;2A.;;",128,0,23,0
	.stabs	"__false_type:Tt(36,9)=s1operator=::(36,10)=#(36,9),(36,11)=&(36,9),(36,12)=*(36,9),(36,13)=&(36,14)=k(36,9),(0,6);:_ZN11stlpmtx_std12__false_typeaSERKS0_;2A.;__base_ctor::(36,15)=#(36,9),(0,6),(36,12),(36,13),(0,6);:_ZN11stlpmtx_std12__false_typeC2ERKS0_;2A.;__comp_ctor::(36,15):_ZN11stlpmtx_std12__false_typeC1ERKS0_;2A.;__base_ctor::(36,16)=#(36,9),(0,6),(36,12),(0,6);:_ZN11stlpmtx_std12__false_typeC2Ev;2A.;__comp_ctor::(36,16):_ZN11stlpmtx_std12__false_typeC1Ev;2A.;;",128,0,24,0
	.stabs	"__bool2type<1>:Tt(36,17)=s1operator=::(36,18)=#(36,17),(36,19)=&(36,17),(36,20)=*(36,17),(36,21)=&(36,22)=k(36,17),(0,6);:_ZN11stlpmtx_std11__bool2typeILi1EEaSERKS1_;2A.;__base_ctor::(36,23)=#(36,17),(0,6),(36,20),(36,21),(0,6);:_ZN11stlpmtx_std11__bool2typeILi1EEC2ERKS1_;2A.;__comp_ctor::(36,23):_ZN11stlpmtx_std11__bool2typeILi1EEC1ERKS1_;2A.;__base_ctor::(36,24)=#(36,17),(0,6),(36,20),(0,6);:_ZN11stlpmtx_std11__bool2typeILi1EEC2Ev;2A.;__comp_ctor::(36,24):_ZN11stlpmtx_std11__bool2typeILi1EEC1Ev;2A.;;",128,0,39,0
	.stabs	"__bool2type<0>:Tt(36,25)=s1operator=::(36,26)=#(36,25),(36,27)=&(36,25),(36,28)=*(36,25),(36,29)=&(36,30)=k(36,25),(0,6);:_ZN11stlpmtx_std11__bool2typeILi0EEaSERKS1_;2A.;__base_ctor::(36,31)=#(36,25),(0,6),(36,28),(36,29),(0,6);:_ZN11stlpmtx_std11__bool2typeILi0EEC2ERKS1_;2A.;__comp_ctor::(36,31):_ZN11stlpmtx_std11__bool2typeILi0EEC1ERKS1_;2A.;__base_ctor::(36,32)=#(36,25),(0,6),(36,28),(0,6);:_ZN11stlpmtx_std11__bool2typeILi0EEC2Ev;2A.;__comp_ctor::(36,32):_ZN11stlpmtx_std11__bool2typeILi0EEC1Ev;2A.;;",128,0,42,0
	.stabs	"__type2bool<stlpmtx_std::__true_type>:Tt(36,33)=s1operator=::(36,34)=#(36,33),(36,35)=&(36,33),(36,36)=*(36,33),(36,37)=&(36,38)=k(36,33),(0,6);:_ZN11stlpmtx_std11__type2boolINS_11__true_typeEEaSERKS2_;2A.;__base_ctor::(36,39)=#(36,33),(0,6),(36,36),(36,37),(0,6);:_ZN11stlpmtx_std11__type2boolINS_11__true_typeEEC2ERKS2_;2A.;__comp_ctor::(36,39):_ZN11stlpmtx_std11__type2boolINS_11__true_typeEEC1ERKS2_;2A.;__base_ctor::(36,40)=#(36,33),(0,6),(36,36),(0,6);:_ZN11stlpmtx_std11__type2boolINS_11__true_typeEEC2Ev;2A.;__comp_ctor::(36,40):_ZN11stlpmtx_std11__type2boolINS_11__true_typeEEC1Ev;2A.;;",128,0,49,0
	.stabs	"__type2bool<stlpmtx_std::__false_type>:Tt(36,41)=s1operator=::(36,42)=#(36,41),(36,43)=&(36,41),(36,44)=*(36,41),(36,45)=&(36,46)=k(36,41),(0,6);:_ZN11stlpmtx_std11__type2boolINS_12__false_typeEEaSERKS2_;2A.;__base_ctor::(36,47)=#(36,41),(0,6),(36,44),(36,45),(0,6);:_ZN11stlpmtx_std11__type2boolINS_12__false_typeEEC2ERKS2_;2A.;__comp_ctor::(36,47):_ZN11stlpmtx_std11__type2boolINS_12__false_typeEEC1ERKS2_;2A.;__base_ctor::(36,48)=#(36,41),(0,6),(36,44),(0,6);:_ZN11stlpmtx_std11__type2boolINS_12__false_typeEEC2Ev;2A.;__comp_ctor::(36,48):_ZN11stlpmtx_std11__type2boolINS_12__false_typeEEC1Ev;2A.;;",128,0,52,0
	.stabs	"_Not<stlpmtx_std::__false_type>:Tt(36,49)=s1operator=::(36,50)=#(36,49),(36,51)=&(36,49),(36,52)=*(36,49),(36,53)=&(36,54)=k(36,49),(0,6);:_ZN11stlpmtx_std4_NotINS_12__false_typeEEaSERKS2_;2A.;__base_ctor::(36,55)=#(36,49),(0,6),(36,52),(36,53),(0,6);:_ZN11stlpmtx_std4_NotINS_12__false_typeEEC2ERKS2_;2A.;__comp_ctor::(36,55):_ZN11stlpmtx_std4_NotINS_12__false_typeEEC1ERKS2_;2A.;__base_ctor::(36,56)=#(36,49),(0,6),(36,52),(0,6);:_ZN11stlpmtx_std4_NotINS_12__false_typeEEC2Ev;2A.;__comp_ctor::(36,56):_ZN11stlpmtx_std4_NotINS_12__false_typeEEC1Ev;2A.;;",128,0,59,0
	.stabs	"_Land2<stlpmtx_std::__true_type,stlpmtx_std::__true_type>:Tt(36,57)=s1operator=::(36,58)=#(36,57),(36,59)=&(36,57),(36,60)=*(36,57),(36,61)=&(36,62)=k(36,57),(0,6);:_ZN11stlpmtx_std6_Land2INS_11__true_typeES1_EaSERKS2_;2A.;__base_ctor::(36,63)=#(36,57),(0,6),(36,60),(36,61),(0,6);:_ZN11stlpmtx_std6_Land2INS_11__true_typeES1_EC2ERKS2_;2A.;__comp_ctor::(36,63):_ZN11stlpmtx_std6_Land2INS_11__true_typeES1_EC1ERKS2_;2A.;__base_ctor::(36,64)=#(36,57),(0,6),(36,60),(0,6);:_ZN11stlpmtx_std6_Land2INS_11__true_typeES1_EC2Ev;2A.;__comp_ctor::(36,64):_ZN11stlpmtx_std6_Land2INS_11__true_typeES1_EC1Ev;2A.;;",128,0,66,0
	.stabs	"_Land3<stlpmtx_std::__true_type,stlpmtx_std::__true_type,stlpmtx_std::__true_type>:Tt(36,65)=s1operator=::(36,66)=#(36,65),(36,67)=&(36,65),(36,68)=*(36,65),(36,69)=&(36,70)=k(36,65),(0,6);:_ZN11stlpmtx_std6_Land3INS_11__true_typeES1_S1_EaSERKS2_;2A.;__base_ctor::(36,71)=#(36,65),(0,6),(36,68),(36,69),(0,6);:_ZN11stlpmtx_std6_Land3INS_11__true_typeES1_S1_EC2ERKS2_;2A.;__comp_ctor::(36,71):_ZN11stlpmtx_std6_Land3INS_11__true_typeES1_S1_EC1ERKS2_;2A.;__base_ctor::(36,72)=#(36,65),(0,6),(36,68),(0,6);:_ZN11stlpmtx_std6_Land3INS_11__true_typeES1_S1_EC2Ev;2A.;__comp_ctor::(36,72):_ZN11stlpmtx_std6_Land3INS_11__true_typeES1_S1_EC1Ev;2A.;;",128,0,73,0
	.stabs	"_Lor2<stlpmtx_std::__false_type,stlpmtx_std::__false_type>:Tt(36,73)=s1operator=::(36,74)=#(36,73),(36,75)=&(36,73),(36,76)=*(36,73),(36,77)=&(36,78)=k(36,73),(0,6);:_ZN11stlpmtx_std5_Lor2INS_12__false_typeES1_EaSERKS2_;2A.;__base_ctor::(36,79)=#(36,73),(0,6),(36,76),(36,77),(0,6);:_ZN11stlpmtx_std5_Lor2INS_12__false_typeES1_EC2ERKS2_;2A.;__comp_ctor::(36,79):_ZN11stlpmtx_std5_Lor2INS_12__false_typeES1_EC1ERKS2_;2A.;__base_ctor::(36,80)=#(36,73),(0,6),(36,76),(0,6);:_ZN11stlpmtx_std5_Lor2INS_12__false_typeES1_EC2Ev;2A.;__comp_ctor::(36,80):_ZN11stlpmtx_std5_Lor2INS_12__false_typeES1_EC1Ev;2A.;;",128,0,80,0
	.stabs	"_Lor3<stlpmtx_std::__false_type,stlpmtx_std::__false_type,stlpmtx_std::__false_type>:Tt(36,81)=s1operator=::(36,82)=#(36,81),(36,83)=&(36,81),(36,84)=*(36,81),(36,85)=&(36,86)=k(36,81),(0,6);:_ZN11stlpmtx_std5_Lor3INS_12__false_typeES1_S1_EaSERKS2_;2A.;__base_ctor::(36,87)=#(36,81),(0,6),(36,84),(36,85),(0,6);:_ZN11stlpmtx_std5_Lor3INS_12__false_typeES1_S1_EC2ERKS2_;2A.;__comp_ctor::(36,87):_ZN11stlpmtx_std5_Lor3INS_12__false_typeES1_S1_EC1ERKS2_;2A.;__base_ctor::(36,88)=#(36,81),(0,6),(36,84),(0,6);:_ZN11stlpmtx_std5_Lor3INS_12__false_typeES1_S1_EC2Ev;2A.;__comp_ctor::(36,88):_ZN11stlpmtx_std5_Lor3INS_12__false_typeES1_S1_EC1Ev;2A.;;",128,0,87,0
	.stabs	"_NoVolatilePointerShim:Tt(36,89)=s1__base_ctor::(36,90)=#(36,89),(0,6),(36,91)=*(36,89),(36,92)=*(36,93)=k(0,6),(0,6);:_ZN11stlpmtx_std22_NoVolatilePointerShimC2EPKv;2A.;__comp_ctor::(36,90):_ZN11stlpmtx_std22_NoVolatilePointerShimC1EPKv;2A.;operator=::(36,94)=#(36,89),(36,95)=&(36,89),(36,91),(36,96)=&(36,97)=k(36,89),(0,6);:_ZN11stlpmtx_std22_NoVolatilePointerShimaSERKS0_;2A.;__base_ctor::(36,98)=#(36,89),(0,6),(36,91),(36,96),(0,6);:_ZN11stlpmtx_std22_NoVolatilePointerShimC2ERKS0_;2A.;__comp_ctor::(36,98):_ZN11stlpmtx_std22_NoVolatilePointerShimC1ERKS0_;2A.;;",128,0,164,0
	.stabn	162,0,0,0
	.stabs	"_IsIntegral<bool>:Tt(35,1)=s1operator=::(35,2)=#(35,1),(35,3)=&(35,1),(35,4)=*(35,1),(35,5)=&(35,6)=k(35,1),(0,6);:_ZN11stlpmtx_std11_IsIntegralIbEaSERKS1_;2A.;__base_ctor::(35,7)=#(35,1),(0,6),(35,4),(35,5),(0,6);:_ZN11stlpmtx_std11_IsIntegralIbEC2ERKS1_;2A.;__comp_ctor::(35,7):_ZN11stlpmtx_std11_IsIntegralIbEC1ERKS1_;2A.;__base_ctor::(35,8)=#(35,1),(0,6),(35,4),(0,6);:_ZN11stlpmtx_std11_IsIntegralIbEC2Ev;2A.;__comp_ctor::(35,8):_ZN11stlpmtx_std11_IsIntegralIbEC1Ev;2A.;;",128,0,84,0
	.stabs	"_IsIntegral<char>:Tt(35,9)=s1operator=::(35,10)=#(35,9),(35,11)=&(35,9),(35,12)=*(35,9),(35,13)=&(35,14)=k(35,9),(0,6);:_ZN11stlpmtx_std11_IsIntegralIcEaSERKS1_;2A.;__base_ctor::(35,15)=#(35,9),(0,6),(35,12),(35,13),(0,6);:_ZN11stlpmtx_std11_IsIntegralIcEC2ERKS1_;2A.;__comp_ctor::(35,15):_ZN11stlpmtx_std11_IsIntegralIcEC1ERKS1_;2A.;__base_ctor::(35,16)=#(35,9),(0,6),(35,12),(0,6);:_ZN11stlpmtx_std11_IsIntegralIcEC2Ev;2A.;__comp_ctor::(35,16):_ZN11stlpmtx_std11_IsIntegralIcEC1Ev;2A.;;",128,0,88,0
	.stabs	"_IsIntegral<signed char>:Tt(35,17)=s1operator=::(35,18)=#(35,17),(35,19)=&(35,17),(35,20)=*(35,17),(35,21)=&(35,22)=k(35,17),(0,6);:_ZN11stlpmtx_std11_IsIntegralIaEaSERKS1_;2A.;__base_ctor::(35,23)=#(35,17),(0,6),(35,20),(35,21),(0,6);:_ZN11stlpmtx_std11_IsIntegralIaEC2ERKS1_;2A.;__comp_ctor::(35,23):_ZN11stlpmtx_std11_IsIntegralIaEC1ERKS1_;2A.;__base_ctor::(35,24)=#(35,17),(0,6),(35,20),(0,6);:_ZN11stlpmtx_std11_IsIntegralIaEC2Ev;2A.;__comp_ctor::(35,24):_ZN11stlpmtx_std11_IsIntegralIaEC1Ev;2A.;;",128,0,92,0
	.stabs	"_IsIntegral<unsigned char>:Tt(35,25)=s1operator=::(35,26)=#(35,25),(35,27)=&(35,25),(35,28)=*(35,25),(35,29)=&(35,30)=k(35,25),(0,6);:_ZN11stlpmtx_std11_IsIntegralIhEaSERKS1_;2A.;__base_ctor::(35,31)=#(35,25),(0,6),(35,28),(35,29),(0,6);:_ZN11stlpmtx_std11_IsIntegralIhEC2ERKS1_;2A.;__comp_ctor::(35,31):_ZN11stlpmtx_std11_IsIntegralIhEC1ERKS1_;2A.;__base_ctor::(35,32)=#(35,25),(0,6),(35,28),(0,6);:_ZN11stlpmtx_std11_IsIntegralIhEC2Ev;2A.;__comp_ctor::(35,32):_ZN11stlpmtx_std11_IsIntegralIhEC1Ev;2A.;;",128,0,96,0
	.stabs	"_IsIntegral<short int>:Tt(35,33)=s1operator=::(35,34)=#(35,33),(35,35)=&(35,33),(35,36)=*(35,33),(35,37)=&(35,38)=k(35,33),(0,6);:_ZN11stlpmtx_std11_IsIntegralIsEaSERKS1_;2A.;__base_ctor::(35,39)=#(35,33),(0,6),(35,36),(35,37),(0,6);:_ZN11stlpmtx_std11_IsIntegralIsEC2ERKS1_;2A.;__comp_ctor::(35,39):_ZN11stlpmtx_std11_IsIntegralIsEC1ERKS1_;2A.;__base_ctor::(35,40)=#(35,33),(0,6),(35,36),(0,6);:_ZN11stlpmtx_std11_IsIntegralIsEC2Ev;2A.;__comp_ctor::(35,40):_ZN11stlpmtx_std11_IsIntegralIsEC1Ev;2A.;;",128,0,104,0
	.stabs	"_IsIntegral<short unsigned int>:Tt(35,41)=s1operator=::(35,42)=#(35,41),(35,43)=&(35,41),(35,44)=*(35,41),(35,45)=&(35,46)=k(35,41),(0,6);:_ZN11stlpmtx_std11_IsIntegralItEaSERKS1_;2A.;__base_ctor::(35,47)=#(35,41),(0,6),(35,44),(35,45),(0,6);:_ZN11stlpmtx_std11_IsIntegralItEC2ERKS1_;2A.;__comp_ctor::(35,47):_ZN11stlpmtx_std11_IsIntegralItEC1ERKS1_;2A.;__base_ctor::(35,48)=#(35,41),(0,6),(35,44),(0,6);:_ZN11stlpmtx_std11_IsIntegralItEC2Ev;2A.;__comp_ctor::(35,48):_ZN11stlpmtx_std11_IsIntegralItEC1Ev;2A.;;",128,0,107,0
	.stabs	"_IsIntegral<int>:Tt(35,49)=s1operator=::(35,50)=#(35,49),(35,51)=&(35,49),(35,52)=*(35,49),(35,53)=&(35,54)=k(35,49),(0,6);:_ZN11stlpmtx_std11_IsIntegralIiEaSERKS1_;2A.;__base_ctor::(35,55)=#(35,49),(0,6),(35,52),(35,53),(0,6);:_ZN11stlpmtx_std11_IsIntegralIiEC2ERKS1_;2A.;__comp_ctor::(35,55):_ZN11stlpmtx_std11_IsIntegralIiEC1ERKS1_;2A.;__base_ctor::(35,56)=#(35,49),(0,6),(35,52),(0,6);:_ZN11stlpmtx_std11_IsIntegralIiEC2Ev;2A.;__comp_ctor::(35,56):_ZN11stlpmtx_std11_IsIntegralIiEC1Ev;2A.;;",128,0,110,0
	.stabs	"_IsIntegral<unsigned int>:Tt(35,57)=s1operator=::(35,58)=#(35,57),(35,59)=&(35,57),(35,60)=*(35,57),(35,61)=&(35,62)=k(35,57),(0,6);:_ZN11stlpmtx_std11_IsIntegralIjEaSERKS1_;2A.;__base_ctor::(35,63)=#(35,57),(0,6),(35,60),(35,61),(0,6);:_ZN11stlpmtx_std11_IsIntegralIjEC2ERKS1_;2A.;__comp_ctor::(35,63):_ZN11stlpmtx_std11_IsIntegralIjEC1ERKS1_;2A.;__base_ctor::(35,64)=#(35,57),(0,6),(35,60),(0,6);:_ZN11stlpmtx_std11_IsIntegralIjEC2Ev;2A.;__comp_ctor::(35,64):_ZN11stlpmtx_std11_IsIntegralIjEC1Ev;2A.;;",128,0,113,0
	.stabs	"_IsIntegral<long int>:Tt(35,65)=s1operator=::(35,66)=#(35,65),(35,67)=&(35,65),(35,68)=*(35,65),(35,69)=&(35,70)=k(35,65),(0,6);:_ZN11stlpmtx_std11_IsIntegralIlEaSERKS1_;2A.;__base_ctor::(35,71)=#(35,65),(0,6),(35,68),(35,69),(0,6);:_ZN11stlpmtx_std11_IsIntegralIlEC2ERKS1_;2A.;__comp_ctor::(35,71):_ZN11stlpmtx_std11_IsIntegralIlEC1ERKS1_;2A.;__base_ctor::(35,72)=#(35,65),(0,6),(35,68),(0,6);:_ZN11stlpmtx_std11_IsIntegralIlEC2Ev;2A.;__comp_ctor::(35,72):_ZN11stlpmtx_std11_IsIntegralIlEC1Ev;2A.;;",128,0,116,0
	.stabs	"_IsIntegral<long unsigned int>:Tt(35,73)=s1operator=::(35,74)=#(35,73),(35,75)=&(35,73),(35,76)=*(35,73),(35,77)=&(35,78)=k(35,73),(0,6);:_ZN11stlpmtx_std11_IsIntegralImEaSERKS1_;2A.;__base_ctor::(35,79)=#(35,73),(0,6),(35,76),(35,77),(0,6);:_ZN11stlpmtx_std11_IsIntegralImEC2ERKS1_;2A.;__comp_ctor::(35,79):_ZN11stlpmtx_std11_IsIntegralImEC1ERKS1_;2A.;__base_ctor::(35,80)=#(35,73),(0,6),(35,76),(0,6);:_ZN11stlpmtx_std11_IsIntegralImEC2Ev;2A.;__comp_ctor::(35,80):_ZN11stlpmtx_std11_IsIntegralImEC1Ev;2A.;;",128,0,119,0
	.stabs	"_IsIntegral<long long int>:Tt(35,81)=s1operator=::(35,82)=#(35,81),(35,83)=&(35,81),(35,84)=*(35,81),(35,85)=&(35,86)=k(35,81),(0,6);:_ZN11stlpmtx_std11_IsIntegralIxEaSERKS1_;2A.;__base_ctor::(35,87)=#(35,81),(0,6),(35,84),(35,85),(0,6);:_ZN11stlpmtx_std11_IsIntegralIxEC2ERKS1_;2A.;__comp_ctor::(35,87):_ZN11stlpmtx_std11_IsIntegralIxEC1ERKS1_;2A.;__base_ctor::(35,88)=#(35,81),(0,6),(35,84),(0,6);:_ZN11stlpmtx_std11_IsIntegralIxEC2Ev;2A.;__comp_ctor::(35,88):_ZN11stlpmtx_std11_IsIntegralIxEC1Ev;2A.;;",128,0,123,0
	.stabs	"_IsIntegral<long long unsigned int>:Tt(35,89)=s1operator=::(35,90)=#(35,89),(35,91)=&(35,89),(35,92)=*(35,89),(35,93)=&(35,94)=k(35,89),(0,6);:_ZN11stlpmtx_std11_IsIntegralIyEaSERKS1_;2A.;__base_ctor::(35,95)=#(35,89),(0,6),(35,92),(35,93),(0,6);:_ZN11stlpmtx_std11_IsIntegralIyEC2ERKS1_;2A.;__comp_ctor::(35,95):_ZN11stlpmtx_std11_IsIntegralIyEC1ERKS1_;2A.;__base_ctor::(35,96)=#(35,89),(0,6),(35,92),(0,6);:_ZN11stlpmtx_std11_IsIntegralIyEC2Ev;2A.;__comp_ctor::(35,96):_ZN11stlpmtx_std11_IsIntegralIyEC1Ev;2A.;;",128,0,126,0
	.stabs	"_IsRational<float>:Tt(35,97)=s1operator=::(35,98)=#(35,97),(35,99)=&(35,97),(35,100)=*(35,97),(35,101)=&(35,102)=k(35,97),(0,6);:_ZN11stlpmtx_std11_IsRationalIfEaSERKS1_;2A.;__base_ctor::(35,103)=#(35,97),(0,6),(35,100),(35,101),(0,6);:_ZN11stlpmtx_std11_IsRationalIfEC2ERKS1_;2A.;__comp_ctor::(35,103):_ZN11stlpmtx_std11_IsRationalIfEC1ERKS1_;2A.;__base_ctor::(35,104)=#(35,97),(0,6),(35,100),(0,6);:_ZN11stlpmtx_std11_IsRationalIfEC2Ev;2A.;__comp_ctor::(35,104):_ZN11stlpmtx_std11_IsRationalIfEC1Ev;2A.;;",128,0,133,0
	.stabs	"_IsRational<double>:Tt(35,105)=s1operator=::(35,106)=#(35,105),(35,107)=&(35,105),(35,108)=*(35,105),(35,109)=&(35,110)=k(35,105),(0,6);:_ZN11stlpmtx_std11_IsRationalIdEaSERKS1_;2A.;__base_ctor::(35,111)=#(35,105),(0,6),(35,108),(35,109),(0,6);:_ZN11stlpmtx_std11_IsRationalIdEC2ERKS1_;2A.;__comp_ctor::(35,111):_ZN11stlpmtx_std11_IsRationalIdEC1ERKS1_;2A.;__base_ctor::(35,112)=#(35,105),(0,6),(35,108),(0,6);:_ZN11stlpmtx_std11_IsRationalIdEC2Ev;2A.;__comp_ctor::(35,112):_ZN11stlpmtx_std11_IsRationalIdEC1Ev;2A.;;",128,0,136,0
	.stabs	"__type_traits_aux<stlpmtx_std::__false_type>:Tt(35,113)=s1operator=::(35,114)=#(35,113),(35,115)=&(35,113),(35,116)=*(35,113),(35,117)=&(35,118)=k(35,113),(0,6);:_ZN11stlpmtx_std17__type_traits_auxINS_12__false_typeEEaSERKS2_;2A.;__base_ctor::(35,119)=#(35,113),(0,6),(35,116),(35,117),(0,6);:_ZN11stlpmtx_std17__type_traits_auxINS_12__false_typeEEC2ERKS2_;2A.;__comp_ctor::(35,119):_ZN11stlpmtx_std17__type_traits_auxINS_12__false_typeEEC1ERKS2_;2A.;__base_ctor::(35,120)=#(35,113),(0,6),(35,116),(0,6);:_ZN11stlpmtx_std17__type_traits_auxINS_12__false_typeEEC2Ev;2A.;__comp_ctor::(35,120):_ZN11stlpmtx_std17__type_traits_auxINS_12__false_typeEEC1Ev;2A.;;",128,0,154,0
	.stabs	"__type_traits_aux<stlpmtx_std::__true_type>:Tt(35,121)=s1operator=::(35,122)=#(35,121),(35,123)=&(35,121),(35,124)=*(35,121),(35,125)=&(35,126)=k(35,121),(0,6);:_ZN11stlpmtx_std17__type_traits_auxINS_11__true_typeEEaSERKS2_;2A.;__base_ctor::(35,127)=#(35,121),(0,6),(35,124),(35,125),(0,6);:_ZN11stlpmtx_std17__type_traits_auxINS_11__true_typeEEC2ERKS2_;2A.;__comp_ctor::(35,127):_ZN11stlpmtx_std17__type_traits_auxINS_11__true_typeEEC1ERKS2_;2A.;__base_ctor::(35,128)=#(35,121),(0,6),(35,124),(0,6);:_ZN11stlpmtx_std17__type_traits_auxINS_11__true_typeEEC2Ev;2A.;__comp_ctor::(35,128):_ZN11stlpmtx_std17__type_traits_auxINS_11__true_typeEEC1Ev;2A.;;",128,0,163,0
	.stabs	"__type_traits<bool>:Tt(35,129)=s1!1,020,(35,121);operator=::(35,130)=#(35,129),(35,131)=&(35,129),(35,132)=*(35,129),(35,133)=&(35,134)=k(35,129),(0,6);:_ZN11stlpmtx_std13__type_traitsIbEaSERKS1_;2A.;__base_ctor::(35,135)=#(35,129),(0,6),(35,132),(35,133),(0,6);:_ZN11stlpmtx_std13__type_traitsIbEC2ERKS1_;2A.;__comp_ctor::(35,135):_ZN11stlpmtx_std13__type_traitsIbEC1ERKS1_;2A.;__base_ctor::(35,136)=#(35,129),(0,6),(35,132),(0,6);:_ZN11stlpmtx_std13__type_traitsIbEC2Ev;2A.;__comp_ctor::(35,136):_ZN11stlpmtx_std13__type_traitsIbEC1Ev;2A.;;",128,0,284,0
	.stabs	"__type_traits<const bool>:Tt(35,137)=s1!1,020,(35,121);operator=::(35,138)=#(35,137),(35,139)=&(35,137),(35,140)=*(35,137),(35,141)=&(35,142)=k(35,137),(0,6);:_ZN11stlpmtx_std13__type_traitsIKbEaSERKS2_;2A.;__base_ctor::(35,143)=#(35,137),(0,6),(35,140),(35,141),(0,6);:_ZN11stlpmtx_std13__type_traitsIKbEC2ERKS2_;2A.;__comp_ctor::(35,143):_ZN11stlpmtx_std13__type_traitsIKbEC1ERKS2_;2A.;__base_ctor::(35,144)=#(35,137),(0,6),(35,140),(0,6);:_ZN11stlpmtx_std13__type_traitsIKbEC2Ev;2A.;__comp_ctor::(35,144):_ZN11stlpmtx_std13__type_traitsIKbEC1Ev;2A.;;",128,0,284,0
	.stabs	"__type_traits<volatile bool>:Tt(35,145)=s1!1,020,(35,121);operator=::(35,146)=#(35,145),(35,147)=&(35,145),(35,148)=*(35,145),(35,149)=&(35,150)=k(35,145),(0,6);:_ZN11stlpmtx_std13__type_traitsIVbEaSERKS2_;2A.;__base_ctor::(35,151)=#(35,145),(0,6),(35,148),(35,149),(0,6);:_ZN11stlpmtx_std13__type_traitsIVbEC2ERKS2_;2A.;__comp_ctor::(35,151):_ZN11stlpmtx_std13__type_traitsIVbEC1ERKS2_;2A.;__base_ctor::(35,152)=#(35,145),(0,6),(35,148),(0,6);:_ZN11stlpmtx_std13__type_traitsIVbEC2Ev;2A.;__comp_ctor::(35,152):_ZN11stlpmtx_std13__type_traitsIVbEC1Ev;2A.;;",128,0,284,0
	.stabs	"__type_traits<const volatile bool>:Tt(35,153)=s1!1,020,(35,121);operator=::(35,154)=#(35,153),(35,155)=&(35,153),(35,156)=*(35,153),(35,157)=&(35,158)=k(35,153),(0,6);:_ZN11stlpmtx_std13__type_traitsIVKbEaSERKS2_;2A.;__base_ctor::(35,159)=#(35,153),(0,6),(35,156),(35,157),(0,6);:_ZN11stlpmtx_std13__type_traitsIVKbEC2ERKS2_;2A.;__comp_ctor::(35,159):_ZN11stlpmtx_std13__type_traitsIVKbEC1ERKS2_;2A.;__base_ctor::(35,160)=#(35,153),(0,6),(35,156),(0,6);:_ZN11stlpmtx_std13__type_traitsIVKbEC2Ev;2A.;__comp_ctor::(35,160):_ZN11stlpmtx_std13__type_traitsIVKbEC1Ev;2A.;;",128,0,284,0
	.stabs	"__type_traits<char>:Tt(35,161)=s1!1,020,(35,121);operator=::(35,162)=#(35,161),(35,163)=&(35,161),(35,164)=*(35,161),(35,165)=&(35,166)=k(35,161),(0,6);:_ZN11stlpmtx_std13__type_traitsIcEaSERKS1_;2A.;__base_ctor::(35,167)=#(35,161),(0,6),(35,164),(35,165),(0,6);:_ZN11stlpmtx_std13__type_traitsIcEC2ERKS1_;2A.;__comp_ctor::(35,167):_ZN11stlpmtx_std13__type_traitsIcEC1ERKS1_;2A.;__base_ctor::(35,168)=#(35,161),(0,6),(35,164),(0,6);:_ZN11stlpmtx_std13__type_traitsIcEC2Ev;2A.;__comp_ctor::(35,168):_ZN11stlpmtx_std13__type_traitsIcEC1Ev;2A.;;",128,0,286,0
	.stabs	"__type_traits<const char>:Tt(35,169)=s1!1,020,(35,121);operator=::(35,170)=#(35,169),(35,171)=&(35,169),(35,172)=*(35,169),(35,173)=&(35,174)=k(35,169),(0,6);:_ZN11stlpmtx_std13__type_traitsIKcEaSERKS2_;2A.;__base_ctor::(35,175)=#(35,169),(0,6),(35,172),(35,173),(0,6);:_ZN11stlpmtx_std13__type_traitsIKcEC2ERKS2_;2A.;__comp_ctor::(35,175):_ZN11stlpmtx_std13__type_traitsIKcEC1ERKS2_;2A.;__base_ctor::(35,176)=#(35,169),(0,6),(35,172),(0,6);:_ZN11stlpmtx_std13__type_traitsIKcEC2Ev;2A.;__comp_ctor::(35,176):_ZN11stlpmtx_std13__type_traitsIKcEC1Ev;2A.;;",128,0,286,0
	.stabs	"__type_traits<volatile char>:Tt(35,177)=s1!1,020,(35,121);operator=::(35,178)=#(35,177),(35,179)=&(35,177),(35,180)=*(35,177),(35,181)=&(35,182)=k(35,177),(0,6);:_ZN11stlpmtx_std13__type_traitsIVcEaSERKS2_;2A.;__base_ctor::(35,183)=#(35,177),(0,6),(35,180),(35,181),(0,6);:_ZN11stlpmtx_std13__type_traitsIVcEC2ERKS2_;2A.;__comp_ctor::(35,183):_ZN11stlpmtx_std13__type_traitsIVcEC1ERKS2_;2A.;__base_ctor::(35,184)=#(35,177),(0,6),(35,180),(0,6);:_ZN11stlpmtx_std13__type_traitsIVcEC2Ev;2A.;__comp_ctor::(35,184):_ZN11stlpmtx_std13__type_traitsIVcEC1Ev;2A.;;",128,0,286,0
	.stabs	"__type_traits<const volatile char>:Tt(35,185)=s1!1,020,(35,121);operator=::(35,186)=#(35,185),(35,187)=&(35,185),(35,188)=*(35,185),(35,189)=&(35,190)=k(35,185),(0,6);:_ZN11stlpmtx_std13__type_traitsIVKcEaSERKS2_;2A.;__base_ctor::(35,191)=#(35,185),(0,6),(35,188),(35,189),(0,6);:_ZN11stlpmtx_std13__type_traitsIVKcEC2ERKS2_;2A.;__comp_ctor::(35,191):_ZN11stlpmtx_std13__type_traitsIVKcEC1ERKS2_;2A.;__base_ctor::(35,192)=#(35,185),(0,6),(35,188),(0,6);:_ZN11stlpmtx_std13__type_traitsIVKcEC2Ev;2A.;__comp_ctor::(35,192):_ZN11stlpmtx_std13__type_traitsIVKcEC1Ev;2A.;;",128,0,286,0
	.stabs	"__type_traits<signed char>:Tt(35,193)=s1!1,020,(35,121);operator=::(35,194)=#(35,193),(35,195)=&(35,193),(35,196)=*(35,193),(35,197)=&(35,198)=k(35,193),(0,6);:_ZN11stlpmtx_std13__type_traitsIaEaSERKS1_;2A.;__base_ctor::(35,199)=#(35,193),(0,6),(35,196),(35,197),(0,6);:_ZN11stlpmtx_std13__type_traitsIaEC2ERKS1_;2A.;__comp_ctor::(35,199):_ZN11stlpmtx_std13__type_traitsIaEC1ERKS1_;2A.;__base_ctor::(35,200)=#(35,193),(0,6),(35,196),(0,6);:_ZN11stlpmtx_std13__type_traitsIaEC2Ev;2A.;__comp_ctor::(35,200):_ZN11stlpmtx_std13__type_traitsIaEC1Ev;2A.;;",128,0,288,0
	.stabs	"__type_traits<const signed char>:Tt(35,201)=s1!1,020,(35,121);operator=::(35,202)=#(35,201),(35,203)=&(35,201),(35,204)=*(35,201),(35,205)=&(35,206)=k(35,201),(0,6);:_ZN11stlpmtx_std13__type_traitsIKaEaSERKS2_;2A.;__base_ctor::(35,207)=#(35,201),(0,6),(35,204),(35,205),(0,6);:_ZN11stlpmtx_std13__type_traitsIKaEC2ERKS2_;2A.;__comp_ctor::(35,207):_ZN11stlpmtx_std13__type_traitsIKaEC1ERKS2_;2A.;__base_ctor::(35,208)=#(35,201),(0,6),(35,204),(0,6);:_ZN11stlpmtx_std13__type_traitsIKaEC2Ev;2A.;__comp_ctor::(35,208):_ZN11stlpmtx_std13__type_traitsIKaEC1Ev;2A.;;",128,0,288,0
	.stabs	"__type_traits<volatile signed char>:Tt(35,209)=s1!1,020,(35,121);operator=::(35,210)=#(35,209),(35,211)=&(35,209),(35,212)=*(35,209),(35,213)=&(35,214)=k(35,209),(0,6);:_ZN11stlpmtx_std13__type_traitsIVaEaSERKS2_;2A.;__base_ctor::(35,215)=#(35,209),(0,6),(35,212),(35,213),(0,6);:_ZN11stlpmtx_std13__type_traitsIVaEC2ERKS2_;2A.;__comp_ctor::(35,215):_ZN11stlpmtx_std13__type_traitsIVaEC1ERKS2_;2A.;__base_ctor::(35,216)=#(35,209),(0,6),(35,212),(0,6);:_ZN11stlpmtx_std13__type_traitsIVaEC2Ev;2A.;__comp_ctor::(35,216):_ZN11stlpmtx_std13__type_traitsIVaEC1Ev;2A.;;",128,0,288,0
	.stabs	"__type_traits<const volatile signed char>:Tt(35,217)=s1!1,020,(35,121);operator=::(35,218)=#(35,217),(35,219)=&(35,217),(35,220)=*(35,217),(35,221)=&(35,222)=k(35,217),(0,6);:_ZN11stlpmtx_std13__type_traitsIVKaEaSERKS2_;2A.;__base_ctor::(35,223)=#(35,217),(0,6),(35,220),(35,221),(0,6);:_ZN11stlpmtx_std13__type_traitsIVKaEC2ERKS2_;2A.;__comp_ctor::(35,223):_ZN11stlpmtx_std13__type_traitsIVKaEC1ERKS2_;2A.;__base_ctor::(35,224)=#(35,217),(0,6),(35,220),(0,6);:_ZN11stlpmtx_std13__type_traitsIVKaEC2Ev;2A.;__comp_ctor::(35,224):_ZN11stlpmtx_std13__type_traitsIVKaEC1Ev;2A.;;",128,0,288,0
	.stabs	"__type_traits<unsigned char>:Tt(35,225)=s1!1,020,(35,121);operator=::(35,226)=#(35,225),(35,227)=&(35,225),(35,228)=*(35,225),(35,229)=&(35,230)=k(35,225),(0,6);:_ZN11stlpmtx_std13__type_traitsIhEaSERKS1_;2A.;__base_ctor::(35,231)=#(35,225),(0,6),(35,228),(35,229),(0,6);:_ZN11stlpmtx_std13__type_traitsIhEC2ERKS1_;2A.;__comp_ctor::(35,231):_ZN11stlpmtx_std13__type_traitsIhEC1ERKS1_;2A.;__base_ctor::(35,232)=#(35,225),(0,6),(35,228),(0,6);:_ZN11stlpmtx_std13__type_traitsIhEC2Ev;2A.;__comp_ctor::(35,232):_ZN11stlpmtx_std13__type_traitsIhEC1Ev;2A.;;",128,0,290,0
	.stabs	"__type_traits<const unsigned char>:Tt(35,233)=s1!1,020,(35,121);operator=::(35,234)=#(35,233),(35,235)=&(35,233),(35,236)=*(35,233),(35,237)=&(35,238)=k(35,233),(0,6);:_ZN11stlpmtx_std13__type_traitsIKhEaSERKS2_;2A.;__base_ctor::(35,239)=#(35,233),(0,6),(35,236),(35,237),(0,6);:_ZN11stlpmtx_std13__type_traitsIKhEC2ERKS2_;2A.;__comp_ctor::(35,239):_ZN11stlpmtx_std13__type_traitsIKhEC1ERKS2_;2A.;__base_ctor::(35,240)=#(35,233),(0,6),(35,236),(0,6);:_ZN11stlpmtx_std13__type_traitsIKhEC2Ev;2A.;__comp_ctor::(35,240):_ZN11stlpmtx_std13__type_traitsIKhEC1Ev;2A.;;",128,0,290,0
	.stabs	"__type_traits<volatile unsigned char>:Tt(35,241)=s1!1,020,(35,121);operator=::(35,242)=#(35,241),(35,243)=&(35,241),(35,244)=*(35,241),(35,245)=&(35,246)=k(35,241),(0,6);:_ZN11stlpmtx_std13__type_traitsIVhEaSERKS2_;2A.;__base_ctor::(35,247)=#(35,241),(0,6),(35,244),(35,245),(0,6);:_ZN11stlpmtx_std13__type_traitsIVhEC2ERKS2_;2A.;__comp_ctor::(35,247):_ZN11stlpmtx_std13__type_traitsIVhEC1ERKS2_;2A.;__base_ctor::(35,248)=#(35,241),(0,6),(35,244),(0,6);:_ZN11stlpmtx_std13__type_traitsIVhEC2Ev;2A.;__comp_ctor::(35,248):_ZN11stlpmtx_std13__type_traitsIVhEC1Ev;2A.;;",128,0,290,0
	.stabs	"__type_traits<const volatile unsigned char>:Tt(35,249)=s1!1,020,(35,121);operator=::(35,250)=#(35,249),(35,251)=&(35,249),(35,252)=*(35,249),(35,253)=&(35,254)=k(35,249),(0,6);:_ZN11stlpmtx_std13__type_traitsIVKhEaSERKS2_;2A.;__base_ctor::(35,255)=#(35,249),(0,6),(35,252),(35,253),(0,6);:_ZN11stlpmtx_std13__type_traitsIVKhEC2ERKS2_;2A.;__comp_ctor::(35,255):_ZN11stlpmtx_std13__type_traitsIVKhEC1ERKS2_;2A.;__base_ctor::(35,256)=#(35,249),(0,6),(35,252),(0,6);:_ZN11stlpmtx_std13__type_traitsIVKhEC2Ev;2A.;__comp_ctor::(35,256):_ZN11stlpmtx_std13__type_traitsIVKhEC1Ev;2A.;;",128,0,290,0
	.stabs	"__type_traits<short int>:Tt(35,257)=s1!1,020,(35,121);operator=::(35,258)=#(35,257),(35,259)=&(35,257),(35,260)=*(35,257),(35,261)=&(35,262)=k(35,257),(0,6);:_ZN11stlpmtx_std13__type_traitsIsEaSERKS1_;2A.;__base_ctor::(35,263)=#(35,257),(0,6),(35,260),(35,261),(0,6);:_ZN11stlpmtx_std13__type_traitsIsEC2ERKS1_;2A.;__comp_ctor::(35,263):_ZN11stlpmtx_std13__type_traitsIsEC1ERKS1_;2A.;__base_ctor::(35,264)=#(35,257),(0,6),(35,260),(0,6);:_ZN11stlpmtx_std13__type_traitsIsEC2Ev;2A.;__comp_ctor::(35,264):_ZN11stlpmtx_std13__type_traitsIsEC1Ev;2A.;;",128,0,295,0
	.stabs	"__type_traits<const short int>:Tt(35,265)=s1!1,020,(35,121);operator=::(35,266)=#(35,265),(35,267)=&(35,265),(35,268)=*(35,265),(35,269)=&(35,270)=k(35,265),(0,6);:_ZN11stlpmtx_std13__type_traitsIKsEaSERKS2_;2A.;__base_ctor::(35,271)=#(35,265),(0,6),(35,268),(35,269),(0,6);:_ZN11stlpmtx_std13__type_traitsIKsEC2ERKS2_;2A.;__comp_ctor::(35,271):_ZN11stlpmtx_std13__type_traitsIKsEC1ERKS2_;2A.;__base_ctor::(35,272)=#(35,265),(0,6),(35,268),(0,6);:_ZN11stlpmtx_std13__type_traitsIKsEC2Ev;2A.;__comp_ctor::(35,272):_ZN11stlpmtx_std13__type_traitsIKsEC1Ev;2A.;;",128,0,295,0
	.stabs	"__type_traits<volatile short int>:Tt(35,273)=s1!1,020,(35,121);operator=::(35,274)=#(35,273),(35,275)=&(35,273),(35,276)=*(35,273),(35,277)=&(35,278)=k(35,273),(0,6);:_ZN11stlpmtx_std13__type_traitsIVsEaSERKS2_;2A.;__base_ctor::(35,279)=#(35,273),(0,6),(35,276),(35,277),(0,6);:_ZN11stlpmtx_std13__type_traitsIVsEC2ERKS2_;2A.;__comp_ctor::(35,279):_ZN11stlpmtx_std13__type_traitsIVsEC1ERKS2_;2A.;__base_ctor::(35,280)=#(35,273),(0,6),(35,276),(0,6);:_ZN11stlpmtx_std13__type_traitsIVsEC2Ev;2A.;__comp_ctor::(35,280):_ZN11stlpmtx_std13__type_traitsIVsEC1Ev;2A.;;",128,0,295,0
	.stabs	"__type_traits<const volatile short int>:Tt(35,281)=s1!1,020,(35,121);operator=::(35,282)=#(35,281),(35,283)=&(35,281),(35,284)=*(35,281),(35,285)=&(35,286)=k(35,281),(0,6);:_ZN11stlpmtx_std13__type_traitsIVKsEaSERKS2_;2A.;__base_ctor::(35,287)=#(35,281),(0,6),(35,284),(35,285),(0,6);:_ZN11stlpmtx_std13__type_traitsIVKsEC2ERKS2_;2A.;__comp_ctor::(35,287):_ZN11stlpmtx_std13__type_traitsIVKsEC1ERKS2_;2A.;__base_ctor::(35,288)=#(35,281),(0,6),(35,284),(0,6);:_ZN11stlpmtx_std13__type_traitsIVKsEC2Ev;2A.;__comp_ctor::(35,288):_ZN11stlpmtx_std13__type_traitsIVKsEC1Ev;2A.;;",128,0,295,0
	.stabs	"__type_traits<short unsigned int>:Tt(35,289)=s1!1,020,(35,121);operator=::(35,290)=#(35,289),(35,291)=&(35,289),(35,292)=*(35,289),(35,293)=&(35,294)=k(35,289),(0,6);:_ZN11stlpmtx_std13__type_traitsItEaSERKS1_;2A.;__base_ctor::(35,295)=#(35,289),(0,6),(35,292),(35,293),(0,6);:_ZN11stlpmtx_std13__type_traitsItEC2ERKS1_;2A.;__comp_ctor::(35,295):_ZN11stlpmtx_std13__type_traitsItEC1ERKS1_;2A.;__base_ctor::(35,296)=#(35,289),(0,6),(35,292),(0,6);:_ZN11stlpmtx_std13__type_traitsItEC2Ev;2A.;__comp_ctor::(35,296):_ZN11stlpmtx_std13__type_traitsItEC1Ev;2A.;;",128,0,296,0
	.stabs	"__type_traits<const short unsigned int>:Tt(35,297)=s1!1,020,(35,121);operator=::(35,298)=#(35,297),(35,299)=&(35,297),(35,300)=*(35,297),(35,301)=&(35,302)=k(35,297),(0,6);:_ZN11stlpmtx_std13__type_traitsIKtEaSERKS2_;2A.;__base_ctor::(35,303)=#(35,297),(0,6),(35,300),(35,301),(0,6);:_ZN11stlpmtx_std13__type_traitsIKtEC2ERKS2_;2A.;__comp_ctor::(35,303):_ZN11stlpmtx_std13__type_traitsIKtEC1ERKS2_;2A.;__base_ctor::(35,304)=#(35,297),(0,6),(35,300),(0,6);:_ZN11stlpmtx_std13__type_traitsIKtEC2Ev;2A.;__comp_ctor::(35,304):_ZN11stlpmtx_std13__type_traitsIKtEC1Ev;2A.;;",128,0,296,0
	.stabs	"__type_traits<volatile short unsigned int>:Tt(35,305)=s1!1,020,(35,121);operator=::(35,306)=#(35,305),(35,307)=&(35,305),(35,308)=*(35,305),(35,309)=&(35,310)=k(35,305),(0,6);:_ZN11stlpmtx_std13__type_traitsIVtEaSERKS2_;2A.;__base_ctor::(35,311)=#(35,305),(0,6),(35,308),(35,309),(0,6);:_ZN11stlpmtx_std13__type_traitsIVtEC2ERKS2_;2A.;__comp_ctor::(35,311):_ZN11stlpmtx_std13__type_traitsIVtEC1ERKS2_;2A.;__base_ctor::(35,312)=#(35,305),(0,6),(35,308),(0,6);:_ZN11stlpmtx_std13__type_traitsIVtEC2Ev;2A.;__comp_ctor::(35,312):_ZN11stlpmtx_std13__type_traitsIVtEC1Ev;2A.;;",128,0,296,0
	.stabs	"__type_traits<const volatile short unsigned int>:Tt(35,313)=s1!1,020,(35,121);operator=::(35,314)=#(35,313),(35,315)=&(35,313),(35,316)=*(35,313),(35,317)=&(35,318)=k(35,313),(0,6);:_ZN11stlpmtx_std13__type_traitsIVKtEaSERKS2_;2A.;__base_ctor::(35,319)=#(35,313),(0,6),(35,316),(35,317),(0,6);:_ZN11stlpmtx_std13__type_traitsIVKtEC2ERKS2_;2A.;__comp_ctor::(35,319):_ZN11stlpmtx_std13__type_traitsIVKtEC1ERKS2_;2A.;__base_ctor::(35,320)=#(35,313),(0,6),(35,316),(0,6);:_ZN11stlpmtx_std13__type_traitsIVKtEC2Ev;2A.;__comp_ctor::(35,320):_ZN11stlpmtx_std13__type_traitsIVKtEC1Ev;2A.;;",128,0,296,0
	.stabs	"__type_traits<int>:Tt(35,321)=s1!1,020,(35,121);operator=::(35,322)=#(35,321),(35,323)=&(35,321),(35,324)=*(35,321),(35,325)=&(35,326)=k(35,321),(0,6);:_ZN11stlpmtx_std13__type_traitsIiEaSERKS1_;2A.;__base_ctor::(35,327)=#(35,321),(0,6),(35,324),(35,325),(0,6);:_ZN11stlpmtx_std13__type_traitsIiEC2ERKS1_;2A.;__comp_ctor::(35,327):_ZN11stlpmtx_std13__type_traitsIiEC1ERKS1_;2A.;__base_ctor::(35,328)=#(35,321),(0,6),(35,324),(0,6);:_ZN11stlpmtx_std13__type_traitsIiEC2Ev;2A.;__comp_ctor::(35,328):_ZN11stlpmtx_std13__type_traitsIiEC1Ev;2A.;;",128,0,297,0
	.stabs	"__type_traits<const int>:Tt(35,329)=s1!1,020,(35,121);operator=::(35,330)=#(35,329),(35,331)=&(35,329),(35,332)=*(35,329),(35,333)=&(35,334)=k(35,329),(0,6);:_ZN11stlpmtx_std13__type_traitsIKiEaSERKS2_;2A.;__base_ctor::(35,335)=#(35,329),(0,6),(35,332),(35,333),(0,6);:_ZN11stlpmtx_std13__type_traitsIKiEC2ERKS2_;2A.;__comp_ctor::(35,335):_ZN11stlpmtx_std13__type_traitsIKiEC1ERKS2_;2A.;__base_ctor::(35,336)=#(35,329),(0,6),(35,332),(0,6);:_ZN11stlpmtx_std13__type_traitsIKiEC2Ev;2A.;__comp_ctor::(35,336):_ZN11stlpmtx_std13__type_traitsIKiEC1Ev;2A.;;",128,0,297,0
	.stabs	"__type_traits<volatile int>:Tt(35,337)=s1!1,020,(35,121);operator=::(35,338)=#(35,337),(35,339)=&(35,337),(35,340)=*(35,337),(35,341)=&(35,342)=k(35,337),(0,6);:_ZN11stlpmtx_std13__type_traitsIViEaSERKS2_;2A.;__base_ctor::(35,343)=#(35,337),(0,6),(35,340),(35,341),(0,6);:_ZN11stlpmtx_std13__type_traitsIViEC2ERKS2_;2A.;__comp_ctor::(35,343):_ZN11stlpmtx_std13__type_traitsIViEC1ERKS2_;2A.;__base_ctor::(35,344)=#(35,337),(0,6),(35,340),(0,6);:_ZN11stlpmtx_std13__type_traitsIViEC2Ev;2A.;__comp_ctor::(35,344):_ZN11stlpmtx_std13__type_traitsIViEC1Ev;2A.;;",128,0,297,0
	.stabs	"__type_traits<const volatile int>:Tt(35,345)=s1!1,020,(35,121);operator=::(35,346)=#(35,345),(35,347)=&(35,345),(35,348)=*(35,345),(35,349)=&(35,350)=k(35,345),(0,6);:_ZN11stlpmtx_std13__type_traitsIVKiEaSERKS2_;2A.;__base_ctor::(35,351)=#(35,345),(0,6),(35,348),(35,349),(0,6);:_ZN11stlpmtx_std13__type_traitsIVKiEC2ERKS2_;2A.;__comp_ctor::(35,351):_ZN11stlpmtx_std13__type_traitsIVKiEC1ERKS2_;2A.;__base_ctor::(35,352)=#(35,345),(0,6),(35,348),(0,6);:_ZN11stlpmtx_std13__type_traitsIVKiEC2Ev;2A.;__comp_ctor::(35,352):_ZN11stlpmtx_std13__type_traitsIVKiEC1Ev;2A.;;",128,0,297,0
	.stabs	"__type_traits<unsigned int>:Tt(35,353)=s1!1,020,(35,121);operator=::(35,354)=#(35,353),(35,355)=&(35,353),(35,356)=*(35,353),(35,357)=&(35,358)=k(35,353),(0,6);:_ZN11stlpmtx_std13__type_traitsIjEaSERKS1_;2A.;__base_ctor::(35,359)=#(35,353),(0,6),(35,356),(35,357),(0,6);:_ZN11stlpmtx_std13__type_traitsIjEC2ERKS1_;2A.;__comp_ctor::(35,359):_ZN11stlpmtx_std13__type_traitsIjEC1ERKS1_;2A.;__base_ctor::(35,360)=#(35,353),(0,6),(35,356),(0,6);:_ZN11stlpmtx_std13__type_traitsIjEC2Ev;2A.;__comp_ctor::(35,360):_ZN11stlpmtx_std13__type_traitsIjEC1Ev;2A.;;",128,0,298,0
	.stabs	"__type_traits<const unsigned int>:Tt(35,361)=s1!1,020,(35,121);operator=::(35,362)=#(35,361),(35,363)=&(35,361),(35,364)=*(35,361),(35,365)=&(35,366)=k(35,361),(0,6);:_ZN11stlpmtx_std13__type_traitsIKjEaSERKS2_;2A.;__base_ctor::(35,367)=#(35,361),(0,6),(35,364),(35,365),(0,6);:_ZN11stlpmtx_std13__type_traitsIKjEC2ERKS2_;2A.;__comp_ctor::(35,367):_ZN11stlpmtx_std13__type_traitsIKjEC1ERKS2_;2A.;__base_ctor::(35,368)=#(35,361),(0,6),(35,364),(0,6);:_ZN11stlpmtx_std13__type_traitsIKjEC2Ev;2A.;__comp_ctor::(35,368):_ZN11stlpmtx_std13__type_traitsIKjEC1Ev;2A.;;",128,0,298,0
	.stabs	"__type_traits<volatile unsigned int>:Tt(35,369)=s1!1,020,(35,121);operator=::(35,370)=#(35,369),(35,371)=&(35,369),(35,372)=*(35,369),(35,373)=&(35,374)=k(35,369),(0,6);:_ZN11stlpmtx_std13__type_traitsIVjEaSERKS2_;2A.;__base_ctor::(35,375)=#(35,369),(0,6),(35,372),(35,373),(0,6);:_ZN11stlpmtx_std13__type_traitsIVjEC2ERKS2_;2A.;__comp_ctor::(35,375):_ZN11stlpmtx_std13__type_traitsIVjEC1ERKS2_;2A.;__base_ctor::(35,376)=#(35,369),(0,6),(35,372),(0,6);:_ZN11stlpmtx_std13__type_traitsIVjEC2Ev;2A.;__comp_ctor::(35,376):_ZN11stlpmtx_std13__type_traitsIVjEC1Ev;2A.;;",128,0,298,0
	.stabs	"__type_traits<const volatile unsigned int>:Tt(35,377)=s1!1,020,(35,121);operator=::(35,378)=#(35,377),(35,379)=&(35,377),(35,380)=*(35,377),(35,381)=&(35,382)=k(35,377),(0,6);:_ZN11stlpmtx_std13__type_traitsIVKjEaSERKS2_;2A.;__base_ctor::(35,383)=#(35,377),(0,6),(35,380),(35,381),(0,6);:_ZN11stlpmtx_std13__type_traitsIVKjEC2ERKS2_;2A.;__comp_ctor::(35,383):_ZN11stlpmtx_std13__type_traitsIVKjEC1ERKS2_;2A.;__base_ctor::(35,384)=#(35,377),(0,6),(35,380),(0,6);:_ZN11stlpmtx_std13__type_traitsIVKjEC2Ev;2A.;__comp_ctor::(35,384):_ZN11stlpmtx_std13__type_traitsIVKjEC1Ev;2A.;;",128,0,298,0
	.stabs	"__type_traits<long int>:Tt(35,385)=s1!1,020,(35,121);operator=::(35,386)=#(35,385),(35,387)=&(35,385),(35,388)=*(35,385),(35,389)=&(35,390)=k(35,385),(0,6);:_ZN11stlpmtx_std13__type_traitsIlEaSERKS1_;2A.;__base_ctor::(35,391)=#(35,385),(0,6),(35,388),(35,389),(0,6);:_ZN11stlpmtx_std13__type_traitsIlEC2ERKS1_;2A.;__comp_ctor::(35,391):_ZN11stlpmtx_std13__type_traitsIlEC1ERKS1_;2A.;__base_ctor::(35,392)=#(35,385),(0,6),(35,388),(0,6);:_ZN11stlpmtx_std13__type_traitsIlEC2Ev;2A.;__comp_ctor::(35,392):_ZN11stlpmtx_std13__type_traitsIlEC1Ev;2A.;;",128,0,299,0
	.stabs	"__type_traits<const long int>:Tt(35,393)=s1!1,020,(35,121);operator=::(35,394)=#(35,393),(35,395)=&(35,393),(35,396)=*(35,393),(35,397)=&(35,398)=k(35,393),(0,6);:_ZN11stlpmtx_std13__type_traitsIKlEaSERKS2_;2A.;__base_ctor::(35,399)=#(35,393),(0,6),(35,396),(35,397),(0,6);:_ZN11stlpmtx_std13__type_traitsIKlEC2ERKS2_;2A.;__comp_ctor::(35,399):_ZN11stlpmtx_std13__type_traitsIKlEC1ERKS2_;2A.;__base_ctor::(35,400)=#(35,393),(0,6),(35,396),(0,6);:_ZN11stlpmtx_std13__type_traitsIKlEC2Ev;2A.;__comp_ctor::(35,400):_ZN11stlpmtx_std13__type_traitsIKlEC1Ev;2A.;;",128,0,299,0
	.stabs	"__type_traits<volatile long int>:Tt(35,401)=s1!1,020,(35,121);operator=::(35,402)=#(35,401),(35,403)=&(35,401),(35,404)=*(35,401),(35,405)=&(35,406)=k(35,401),(0,6);:_ZN11stlpmtx_std13__type_traitsIVlEaSERKS2_;2A.;__base_ctor::(35,407)=#(35,401),(0,6),(35,404),(35,405),(0,6);:_ZN11stlpmtx_std13__type_traitsIVlEC2ERKS2_;2A.;__comp_ctor::(35,407):_ZN11stlpmtx_std13__type_traitsIVlEC1ERKS2_;2A.;__base_ctor::(35,408)=#(35,401),(0,6),(35,404),(0,6);:_ZN11stlpmtx_std13__type_traitsIVlEC2Ev;2A.;__comp_ctor::(35,408):_ZN11stlpmtx_std13__type_traitsIVlEC1Ev;2A.;;",128,0,299,0
	.stabs	"__type_traits<const volatile long int>:Tt(35,409)=s1!1,020,(35,121);operator=::(35,410)=#(35,409),(35,411)=&(35,409),(35,412)=*(35,409),(35,413)=&(35,414)=k(35,409),(0,6);:_ZN11stlpmtx_std13__type_traitsIVKlEaSERKS2_;2A.;__base_ctor::(35,415)=#(35,409),(0,6),(35,412),(35,413),(0,6);:_ZN11stlpmtx_std13__type_traitsIVKlEC2ERKS2_;2A.;__comp_ctor::(35,415):_ZN11stlpmtx_std13__type_traitsIVKlEC1ERKS2_;2A.;__base_ctor::(35,416)=#(35,409),(0,6),(35,412),(0,6);:_ZN11stlpmtx_std13__type_traitsIVKlEC2Ev;2A.;__comp_ctor::(35,416):_ZN11stlpmtx_std13__type_traitsIVKlEC1Ev;2A.;;",128,0,299,0
	.stabs	"__type_traits<long unsigned int>:Tt(35,417)=s1!1,020,(35,121);operator=::(35,418)=#(35,417),(35,419)=&(35,417),(35,420)=*(35,417),(35,421)=&(35,422)=k(35,417),(0,6);:_ZN11stlpmtx_std13__type_traitsImEaSERKS1_;2A.;__base_ctor::(35,423)=#(35,417),(0,6),(35,420),(35,421),(0,6);:_ZN11stlpmtx_std13__type_traitsImEC2ERKS1_;2A.;__comp_ctor::(35,423):_ZN11stlpmtx_std13__type_traitsImEC1ERKS1_;2A.;__base_ctor::(35,424)=#(35,417),(0,6),(35,420),(0,6);:_ZN11stlpmtx_std13__type_traitsImEC2Ev;2A.;__comp_ctor::(35,424):_ZN11stlpmtx_std13__type_traitsImEC1Ev;2A.;;",128,0,300,0
	.stabs	"__type_traits<const long unsigned int>:Tt(35,425)=s1!1,020,(35,121);operator=::(35,426)=#(35,425),(35,427)=&(35,425),(35,428)=*(35,425),(35,429)=&(35,430)=k(35,425),(0,6);:_ZN11stlpmtx_std13__type_traitsIKmEaSERKS2_;2A.;__base_ctor::(35,431)=#(35,425),(0,6),(35,428),(35,429),(0,6);:_ZN11stlpmtx_std13__type_traitsIKmEC2ERKS2_;2A.;__comp_ctor::(35,431):_ZN11stlpmtx_std13__type_traitsIKmEC1ERKS2_;2A.;__base_ctor::(35,432)=#(35,425),(0,6),(35,428),(0,6);:_ZN11stlpmtx_std13__type_traitsIKmEC2Ev;2A.;__comp_ctor::(35,432):_ZN11stlpmtx_std13__type_traitsIKmEC1Ev;2A.;;",128,0,300,0
	.stabs	"__type_traits<volatile long unsigned int>:Tt(35,433)=s1!1,020,(35,121);operator=::(35,434)=#(35,433),(35,435)=&(35,433),(35,436)=*(35,433),(35,437)=&(35,438)=k(35,433),(0,6);:_ZN11stlpmtx_std13__type_traitsIVmEaSERKS2_;2A.;__base_ctor::(35,439)=#(35,433),(0,6),(35,436),(35,437),(0,6);:_ZN11stlpmtx_std13__type_traitsIVmEC2ERKS2_;2A.;__comp_ctor::(35,439):_ZN11stlpmtx_std13__type_traitsIVmEC1ERKS2_;2A.;__base_ctor::(35,440)=#(35,433),(0,6),(35,436),(0,6);:_ZN11stlpmtx_std13__type_traitsIVmEC2Ev;2A.;__comp_ctor::(35,440):_ZN11stlpmtx_std13__type_traitsIVmEC1Ev;2A.;;",128,0,300,0
	.stabs	"__type_traits<const volatile long unsigned int>:Tt(35,441)=s1!1,020,(35,121);operator=::(35,442)=#(35,441),(35,443)=&(35,441),(35,444)=*(35,441),(35,445)=&(35,446)=k(35,441),(0,6);:_ZN11stlpmtx_std13__type_traitsIVKmEaSERKS2_;2A.;__base_ctor::(35,447)=#(35,441),(0,6),(35,444),(35,445),(0,6);:_ZN11stlpmtx_std13__type_traitsIVKmEC2ERKS2_;2A.;__comp_ctor::(35,447):_ZN11stlpmtx_std13__type_traitsIVKmEC1ERKS2_;2A.;__base_ctor::(35,448)=#(35,441),(0,6),(35,444),(0,6);:_ZN11stlpmtx_std13__type_traitsIVKmEC2Ev;2A.;__comp_ctor::(35,448):_ZN11stlpmtx_std13__type_traitsIVKmEC1Ev;2A.;;",128,0,300,0
	.stabs	"__type_traits<long long int>:Tt(35,449)=s1!1,020,(35,121);operator=::(35,450)=#(35,449),(35,451)=&(35,449),(35,452)=*(35,449),(35,453)=&(35,454)=k(35,449),(0,6);:_ZN11stlpmtx_std13__type_traitsIxEaSERKS1_;2A.;__base_ctor::(35,455)=#(35,449),(0,6),(35,452),(35,453),(0,6);:_ZN11stlpmtx_std13__type_traitsIxEC2ERKS1_;2A.;__comp_ctor::(35,455):_ZN11stlpmtx_std13__type_traitsIxEC1ERKS1_;2A.;__base_ctor::(35,456)=#(35,449),(0,6),(35,452),(0,6);:_ZN11stlpmtx_std13__type_traitsIxEC2Ev;2A.;__comp_ctor::(35,456):_ZN11stlpmtx_std13__type_traitsIxEC1Ev;2A.;;",128,0,303,0
	.stabs	"__type_traits<const long long int>:Tt(35,457)=s1!1,020,(35,121);operator=::(35,458)=#(35,457),(35,459)=&(35,457),(35,460)=*(35,457),(35,461)=&(35,462)=k(35,457),(0,6);:_ZN11stlpmtx_std13__type_traitsIKxEaSERKS2_;2A.;__base_ctor::(35,463)=#(35,457),(0,6),(35,460),(35,461),(0,6);:_ZN11stlpmtx_std13__type_traitsIKxEC2ERKS2_;2A.;__comp_ctor::(35,463):_ZN11stlpmtx_std13__type_traitsIKxEC1ERKS2_;2A.;__base_ctor::(35,464)=#(35,457),(0,6),(35,460),(0,6);:_ZN11stlpmtx_std13__type_traitsIKxEC2Ev;2A.;__comp_ctor::(35,464):_ZN11stlpmtx_std13__type_traitsIKxEC1Ev;2A.;;",128,0,303,0
	.stabs	"__type_traits<volatile long long int>:Tt(35,465)=s1!1,020,(35,121);operator=::(35,466)=#(35,465),(35,467)=&(35,465),(35,468)=*(35,465),(35,469)=&(35,470)=k(35,465),(0,6);:_ZN11stlpmtx_std13__type_traitsIVxEaSERKS2_;2A.;__base_ctor::(35,471)=#(35,465),(0,6),(35,468),(35,469),(0,6);:_ZN11stlpmtx_std13__type_traitsIVxEC2ERKS2_;2A.;__comp_ctor::(35,471):_ZN11stlpmtx_std13__type_traitsIVxEC1ERKS2_;2A.;__base_ctor::(35,472)=#(35,465),(0,6),(35,468),(0,6);:_ZN11stlpmtx_std13__type_traitsIVxEC2Ev;2A.;__comp_ctor::(35,472):_ZN11stlpmtx_std13__type_traitsIVxEC1Ev;2A.;;",128,0,303,0
	.stabs	"__type_traits<const volatile long long int>:Tt(35,473)=s1!1,020,(35,121);operator=::(35,474)=#(35,473),(35,475)=&(35,473),(35,476)=*(35,473),(35,477)=&(35,478)=k(35,473),(0,6);:_ZN11stlpmtx_std13__type_traitsIVKxEaSERKS2_;2A.;__base_ctor::(35,479)=#(35,473),(0,6),(35,476),(35,477),(0,6);:_ZN11stlpmtx_std13__type_traitsIVKxEC2ERKS2_;2A.;__comp_ctor::(35,479):_ZN11stlpmtx_std13__type_traitsIVKxEC1ERKS2_;2A.;__base_ctor::(35,480)=#(35,473),(0,6),(35,476),(0,6);:_ZN11stlpmtx_std13__type_traitsIVKxEC2Ev;2A.;__comp_ctor::(35,480):_ZN11stlpmtx_std13__type_traitsIVKxEC1Ev;2A.;;",128,0,303,0
	.stabs	"__type_traits<long long unsigned int>:Tt(35,481)=s1!1,020,(35,121);operator=::(35,482)=#(35,481),(35,483)=&(35,481),(35,484)=*(35,481),(35,485)=&(35,486)=k(35,481),(0,6);:_ZN11stlpmtx_std13__type_traitsIyEaSERKS1_;2A.;__base_ctor::(35,487)=#(35,481),(0,6),(35,484),(35,485),(0,6);:_ZN11stlpmtx_std13__type_traitsIyEC2ERKS1_;2A.;__comp_ctor::(35,487):_ZN11stlpmtx_std13__type_traitsIyEC1ERKS1_;2A.;__base_ctor::(35,488)=#(35,481),(0,6),(35,484),(0,6);:_ZN11stlpmtx_std13__type_traitsIyEC2Ev;2A.;__comp_ctor::(35,488):_ZN11stlpmtx_std13__type_traitsIyEC1Ev;2A.;;",128,0,304,0
	.stabs	"__type_traits<const long long unsigned int>:Tt(35,489)=s1!1,020,(35,121);operator=::(35,490)=#(35,489),(35,491)=&(35,489),(35,492)=*(35,489),(35,493)=&(35,494)=k(35,489),(0,6);:_ZN11stlpmtx_std13__type_traitsIKyEaSERKS2_;2A.;__base_ctor::(35,495)=#(35,489),(0,6),(35,492),(35,493),(0,6);:_ZN11stlpmtx_std13__type_traitsIKyEC2ERKS2_;2A.;__comp_ctor::(35,495):_ZN11stlpmtx_std13__type_traitsIKyEC1ERKS2_;2A.;__base_ctor::(35,496)=#(35,489),(0,6),(35,492),(0,6);:_ZN11stlpmtx_std13__type_traitsIKyEC2Ev;2A.;__comp_ctor::(35,496):_ZN11stlpmtx_std13__type_traitsIKyEC1Ev;2A.;;",128,0,304,0
	.stabs	"__type_traits<volatile long long unsigned int>:Tt(35,497)=s1!1,020,(35,121);operator=::(35,498)=#(35,497),(35,499)=&(35,497),(35,500)=*(35,497),(35,501)=&(35,502)=k(35,497),(0,6);:_ZN11stlpmtx_std13__type_traitsIVyEaSERKS2_;2A.;__base_ctor::(35,503)=#(35,497),(0,6),(35,500),(35,501),(0,6);:_ZN11stlpmtx_std13__type_traitsIVyEC2ERKS2_;2A.;__comp_ctor::(35,503):_ZN11stlpmtx_std13__type_traitsIVyEC1ERKS2_;2A.;__base_ctor::(35,504)=#(35,497),(0,6),(35,500),(0,6);:_ZN11stlpmtx_std13__type_traitsIVyEC2Ev;2A.;__comp_ctor::(35,504):_ZN11stlpmtx_std13__type_traitsIVyEC1Ev;2A.;;",128,0,304,0
	.stabs	"__type_traits<const volatile long long unsigned int>:Tt(35,505)=s1!1,020,(35,121);operator=::(35,506)=#(35,505),(35,507)=&(35,505),(35,508)=*(35,505),(35,509)=&(35,510)=k(35,505),(0,6);:_ZN11stlpmtx_std13__type_traitsIVKyEaSERKS2_;2A.;__base_ctor::(35,511)=#(35,505),(0,6),(35,508),(35,509),(0,6);:_ZN11stlpmtx_std13__type_traitsIVKyEC2ERKS2_;2A.;__comp_ctor::(35,511):_ZN11stlpmtx_std13__type_traitsIVKyEC1ERKS2_;2A.;__base_ctor::(35,512)=#(35,505),(0,6),(35,508),(0,6);:_ZN11stlpmtx_std13__type_traitsIVKyEC2Ev;2A.;__comp_ctor::(35,512):_ZN11stlpmtx_std13__type_traitsIVKyEC1Ev;2A.;;",128,0,304,0
	.stabs	"__type_traits<float>:Tt(35,513)=s1!1,020,(35,121);operator=::(35,514)=#(35,513),(35,515)=&(35,513),(35,516)=*(35,513),(35,517)=&(35,518)=k(35,513),(0,6);:_ZN11stlpmtx_std13__type_traitsIfEaSERKS1_;2A.;__base_ctor::(35,519)=#(35,513),(0,6),(35,516),(35,517),(0,6);:_ZN11stlpmtx_std13__type_traitsIfEC2ERKS1_;2A.;__comp_ctor::(35,519):_ZN11stlpmtx_std13__type_traitsIfEC1ERKS1_;2A.;__base_ctor::(35,520)=#(35,513),(0,6),(35,516),(0,6);:_ZN11stlpmtx_std13__type_traitsIfEC2Ev;2A.;__comp_ctor::(35,520):_ZN11stlpmtx_std13__type_traitsIfEC1Ev;2A.;;",128,0,307,0
	.stabs	"__type_traits<const float>:Tt(35,521)=s1!1,020,(35,121);operator=::(35,522)=#(35,521),(35,523)=&(35,521),(35,524)=*(35,521),(35,525)=&(35,526)=k(35,521),(0,6);:_ZN11stlpmtx_std13__type_traitsIKfEaSERKS2_;2A.;__base_ctor::(35,527)=#(35,521),(0,6),(35,524),(35,525),(0,6);:_ZN11stlpmtx_std13__type_traitsIKfEC2ERKS2_;2A.;__comp_ctor::(35,527):_ZN11stlpmtx_std13__type_traitsIKfEC1ERKS2_;2A.;__base_ctor::(35,528)=#(35,521),(0,6),(35,524),(0,6);:_ZN11stlpmtx_std13__type_traitsIKfEC2Ev;2A.;__comp_ctor::(35,528):_ZN11stlpmtx_std13__type_traitsIKfEC1Ev;2A.;;",128,0,307,0
	.stabs	"__type_traits<volatile float>:Tt(35,529)=s1!1,020,(35,121);operator=::(35,530)=#(35,529),(35,531)=&(35,529),(35,532)=*(35,529),(35,533)=&(35,534)=k(35,529),(0,6);:_ZN11stlpmtx_std13__type_traitsIVfEaSERKS2_;2A.;__base_ctor::(35,535)=#(35,529),(0,6),(35,532),(35,533),(0,6);:_ZN11stlpmtx_std13__type_traitsIVfEC2ERKS2_;2A.;__comp_ctor::(35,535):_ZN11stlpmtx_std13__type_traitsIVfEC1ERKS2_;2A.;__base_ctor::(35,536)=#(35,529),(0,6),(35,532),(0,6);:_ZN11stlpmtx_std13__type_traitsIVfEC2Ev;2A.;__comp_ctor::(35,536):_ZN11stlpmtx_std13__type_traitsIVfEC1Ev;2A.;;",128,0,307,0
	.stabs	"__type_traits<const volatile float>:Tt(35,537)=s1!1,020,(35,121);operator=::(35,538)=#(35,537),(35,539)=&(35,537),(35,540)=*(35,537),(35,541)=&(35,542)=k(35,537),(0,6);:_ZN11stlpmtx_std13__type_traitsIVKfEaSERKS2_;2A.;__base_ctor::(35,543)=#(35,537),(0,6),(35,540),(35,541),(0,6);:_ZN11stlpmtx_std13__type_traitsIVKfEC2ERKS2_;2A.;__comp_ctor::(35,543):_ZN11stlpmtx_std13__type_traitsIVKfEC1ERKS2_;2A.;__base_ctor::(35,544)=#(35,537),(0,6),(35,540),(0,6);:_ZN11stlpmtx_std13__type_traitsIVKfEC2Ev;2A.;__comp_ctor::(35,544):_ZN11stlpmtx_std13__type_traitsIVKfEC1Ev;2A.;;",128,0,307,0
	.stabs	"__type_traits<double>:Tt(35,545)=s1!1,020,(35,121);operator=::(35,546)=#(35,545),(35,547)=&(35,545),(35,548)=*(35,545),(35,549)=&(35,550)=k(35,545),(0,6);:_ZN11stlpmtx_std13__type_traitsIdEaSERKS1_;2A.;__base_ctor::(35,551)=#(35,545),(0,6),(35,548),(35,549),(0,6);:_ZN11stlpmtx_std13__type_traitsIdEC2ERKS1_;2A.;__comp_ctor::(35,551):_ZN11stlpmtx_std13__type_traitsIdEC1ERKS1_;2A.;__base_ctor::(35,552)=#(35,545),(0,6),(35,548),(0,6);:_ZN11stlpmtx_std13__type_traitsIdEC2Ev;2A.;__comp_ctor::(35,552):_ZN11stlpmtx_std13__type_traitsIdEC1Ev;2A.;;",128,0,308,0
	.stabs	"__type_traits<const double>:Tt(35,553)=s1!1,020,(35,121);operator=::(35,554)=#(35,553),(35,555)=&(35,553),(35,556)=*(35,553),(35,557)=&(35,558)=k(35,553),(0,6);:_ZN11stlpmtx_std13__type_traitsIKdEaSERKS2_;2A.;__base_ctor::(35,559)=#(35,553),(0,6),(35,556),(35,557),(0,6);:_ZN11stlpmtx_std13__type_traitsIKdEC2ERKS2_;2A.;__comp_ctor::(35,559):_ZN11stlpmtx_std13__type_traitsIKdEC1ERKS2_;2A.;__base_ctor::(35,560)=#(35,553),(0,6),(35,556),(0,6);:_ZN11stlpmtx_std13__type_traitsIKdEC2Ev;2A.;__comp_ctor::(35,560):_ZN11stlpmtx_std13__type_traitsIKdEC1Ev;2A.;;",128,0,308,0
	.stabs	"__type_traits<volatile double>:Tt(35,561)=s1!1,020,(35,121);operator=::(35,562)=#(35,561),(35,563)=&(35,561),(35,564)=*(35,561),(35,565)=&(35,566)=k(35,561),(0,6);:_ZN11stlpmtx_std13__type_traitsIVdEaSERKS2_;2A.;__base_ctor::(35,567)=#(35,561),(0,6),(35,564),(35,565),(0,6);:_ZN11stlpmtx_std13__type_traitsIVdEC2ERKS2_;2A.;__comp_ctor::(35,567):_ZN11stlpmtx_std13__type_traitsIVdEC1ERKS2_;2A.;__base_ctor::(35,568)=#(35,561),(0,6),(35,564),(0,6);:_ZN11stlpmtx_std13__type_traitsIVdEC2Ev;2A.;__comp_ctor::(35,568):_ZN11stlpmtx_std13__type_traitsIVdEC1Ev;2A.;;",128,0,308,0
	.stabs	"__type_traits<const volatile double>:Tt(35,569)=s1!1,020,(35,121);operator=::(35,570)=#(35,569),(35,571)=&(35,569),(35,572)=*(35,569),(35,573)=&(35,574)=k(35,569),(0,6);:_ZN11stlpmtx_std13__type_traitsIVKdEaSERKS2_;2A.;__base_ctor::(35,575)=#(35,569),(0,6),(35,572),(35,573),(0,6);:_ZN11stlpmtx_std13__type_traitsIVKdEC2ERKS2_;2A.;__comp_ctor::(35,575):_ZN11stlpmtx_std13__type_traitsIVKdEC1ERKS2_;2A.;__base_ctor::(35,576)=#(35,569),(0,6),(35,572),(0,6);:_ZN11stlpmtx_std13__type_traitsIVKdEC2Ev;2A.;__comp_ctor::(35,576):_ZN11stlpmtx_std13__type_traitsIVKdEC1Ev;2A.;;",128,0,308,0
	.stabs	"_NegativeAnswer:Tt(35,577)=s1_Answer::(35,578)=f(36,9):_ZN11stlpmtx_std15_NegativeAnswer7_AnswerEv;2A?;operator=::(35,579)=#(35,577),(35,580)=&(35,577),(35,581)=*(35,577),(35,582)=&(35,583)=k(35,577),(0,6);:_ZN11stlpmtx_std15_NegativeAnsweraSERKS0_;2A.;__base_ctor::(35,584)=#(35,577),(0,6),(35,581),(35,582),(0,6);:_ZN11stlpmtx_std15_NegativeAnswerC2ERKS0_;2A.;__comp_ctor::(35,584):_ZN11stlpmtx_std15_NegativeAnswerC1ERKS0_;2A.;__base_ctor::(35,585)=#(35,577),(0,6),(35,581),(0,6);:_ZN11stlpmtx_std15_NegativeAnswerC2Ev;2A.;__comp_ctor::(35,585):_ZN11stlpmtx_std15_NegativeAnswerC1Ev;2A.;;",128,0,510,0
	.stabn	162,0,0,0
	.stabn	162,0,0,0
	.stabs	"/Applications/MoSync/include/newlib/stlport/stl/_iterator_base.h",130,0,0,0
	.stabs	"input_iterator_tag:Tt(37,1)=s1operator=::(37,2)=#(37,1),(37,3)=&(37,1),(37,4)=*(37,1),(37,5)=&(37,6)=k(37,1),(0,6);:_ZN11stlpmtx_std18input_iterator_tagaSERKS0_;2A.;__base_ctor::(37,7)=#(37,1),(0,6),(37,4),(37,5),(0,6);:_ZN11stlpmtx_std18input_iterator_tagC2ERKS0_;2A.;__comp_ctor::(37,7):_ZN11stlpmtx_std18input_iterator_tagC1ERKS0_;2A.;__base_ctor::(37,8)=#(37,1),(0,6),(37,4),(0,6);:_ZN11stlpmtx_std18input_iterator_tagC2Ev;2A.;__comp_ctor::(37,8):_ZN11stlpmtx_std18input_iterator_tagC1Ev;2A.;;",128,0,51,0
	.stabs	"output_iterator_tag:Tt(37,9)=s1operator=::(37,10)=#(37,9),(37,11)=&(37,9),(37,12)=*(37,9),(37,13)=&(37,14)=k(37,9),(0,6);:_ZN11stlpmtx_std19output_iterator_tagaSERKS0_;2A.;__base_ctor::(37,15)=#(37,9),(0,6),(37,12),(37,13),(0,6);:_ZN11stlpmtx_std19output_iterator_tagC2ERKS0_;2A.;__comp_ctor::(37,15):_ZN11stlpmtx_std19output_iterator_tagC1ERKS0_;2A.;__base_ctor::(37,16)=#(37,9),(0,6),(37,12),(0,6);:_ZN11stlpmtx_std19output_iterator_tagC2Ev;2A.;__comp_ctor::(37,16):_ZN11stlpmtx_std19output_iterator_tagC1Ev;2A.;;",128,0,52,0
	.stabs	"forward_iterator_tag:Tt(37,17)=s1!1,020,(37,1);operator=::(37,18)=#(37,17),(37,19)=&(37,17),(37,20)=*(37,17),(37,21)=&(37,22)=k(37,17),(0,6);:_ZN11stlpmtx_std20forward_iterator_tagaSERKS0_;2A.;__base_ctor::(37,23)=#(37,17),(0,6),(37,20),(37,21),(0,6);:_ZN11stlpmtx_std20forward_iterator_tagC2ERKS0_;2A.;__comp_ctor::(37,23):_ZN11stlpmtx_std20forward_iterator_tagC1ERKS0_;2A.;__base_ctor::(37,24)=#(37,17),(0,6),(37,20),(0,6);:_ZN11stlpmtx_std20forward_iterator_tagC2Ev;2A.;__comp_ctor::(37,24):_ZN11stlpmtx_std20forward_iterator_tagC1Ev;2A.;;",128,0,53,0
	.stabs	"bidirectional_iterator_tag:Tt(37,25)=s1!1,020,(37,17);operator=::(37,26)=#(37,25),(37,27)=&(37,25),(37,28)=*(37,25),(37,29)=&(37,30)=k(37,25),(0,6);:_ZN11stlpmtx_std26bidirectional_iterator_tagaSERKS0_;2A.;__base_ctor::(37,31)=#(37,25),(0,6),(37,28),(37,29),(0,6);:_ZN11stlpmtx_std26bidirectional_iterator_tagC2ERKS0_;2A.;__comp_ctor::(37,31):_ZN11stlpmtx_std26bidirectional_iterator_tagC1ERKS0_;2A.;__base_ctor::(37,32)=#(37,25),(0,6),(37,28),(0,6);:_ZN11stlpmtx_std26bidirectional_iterator_tagC2Ev;2A.;__comp_ctor::(37,32):_ZN11stlpmtx_std26bidirectional_iterator_tagC1Ev;2A.;;",128,0,54,0
	.stabs	"random_access_iterator_tag:Tt(37,33)=s1!1,020,(37,25);operator=::(37,34)=#(37,33),(37,35)=&(37,33),(37,36)=*(37,33),(37,37)=&(37,38)=k(37,33),(0,6);:_ZN11stlpmtx_std26random_access_iterator_tagaSERKS0_;2A.;__base_ctor::(37,39)=#(37,33),(0,6),(37,36),(37,37),(0,6);:_ZN11stlpmtx_std26random_access_iterator_tagC2ERKS0_;2A.;__comp_ctor::(37,39):_ZN11stlpmtx_std26random_access_iterator_tagC1ERKS0_;2A.;__base_ctor::(37,40)=#(37,33),(0,6),(37,36),(0,6);:_ZN11stlpmtx_std26random_access_iterator_tagC2Ev;2A.;__comp_ctor::(37,40):_ZN11stlpmtx_std26random_access_iterator_tagC1Ev;2A.;;",128,0,55,0
	.stabs	"iterator<stlpmtx_std::output_iterator_tag,void,void,void,void>:Tt(37,41)=s1operator=::(37,42)=#(37,41),(37,43)=&(37,41),(37,44)=*(37,41),(37,45)=&(37,46)=k(37,41),(0,6);:_ZN11stlpmtx_std8iteratorINS_19output_iterator_tagEvvvvEaSERKS2_;2A.;__base_ctor::(37,47)=#(37,41),(0,6),(37,44),(37,45),(0,6);:_ZN11stlpmtx_std8iteratorINS_19output_iterator_tagEvvvvEC2ERKS2_;2A.;__comp_ctor::(37,47):_ZN11stlpmtx_std8iteratorINS_19output_iterator_tagEvvvvEC1ERKS2_;2A.;__base_ctor::(37,48)=#(37,41),(0,6),(37,44),(0,6);:_ZN11stlpmtx_std8iteratorINS_19output_iterator_tagEvvvvEC2Ev;2A.;__comp_ctor::(37,48):_ZN11stlpmtx_std8iteratorINS_19output_iterator_tagEvvvvEC1Ev;2A.;;",128,0,67,0
	.stabs	"output_iterator:Tt(37,49)=s1!1,020,(37,41);operator=::(37,50)=#(37,49),(37,51)=&(37,49),(37,52)=*(37,49),(37,53)=&(37,54)=k(37,49),(0,6);:_ZN11stlpmtx_std15output_iteratoraSERKS0_;2A.;__base_ctor::(37,55)=#(37,49),(0,6),(37,52),(37,53),(0,6);:_ZN11stlpmtx_std15output_iteratorC2ERKS0_;2A.;__comp_ctor::(37,55):_ZN11stlpmtx_std15output_iteratorC1ERKS0_;2A.;__base_ctor::(37,56)=#(37,49),(0,6),(37,52),(0,6);:_ZN11stlpmtx_std15output_iteratorC2Ev;2A.;__comp_ctor::(37,56):_ZN11stlpmtx_std15output_iteratorC1Ev;2A.;;",128,0,269,0
	.stabn	162,0,0,0
	.stabs	"/Applications/MoSync/include/newlib/stlport/stl/_algobase.c",130,0,0,0
	.stabs	"_IsCharLikeType<char>:Tt(38,1)=s1operator=::(38,2)=#(38,1),(38,3)=&(38,1),(38,4)=*(38,1),(38,5)=&(38,6)=k(38,1),(0,6);:_ZN11stlpmtx_std4priv15_IsCharLikeTypeIcEaSERKS2_;2A.;__base_ctor::(38,7)=#(38,1),(0,6),(38,4),(38,5),(0,6);:_ZN11stlpmtx_std4priv15_IsCharLikeTypeIcEC2ERKS2_;2A.;__comp_ctor::(38,7):_ZN11stlpmtx_std4priv15_IsCharLikeTypeIcEC1ERKS2_;2A.;__base_ctor::(38,8)=#(38,1),(0,6),(38,4),(0,6);:_ZN11stlpmtx_std4priv15_IsCharLikeTypeIcEC2Ev;2A.;__comp_ctor::(38,8):_ZN11stlpmtx_std4priv15_IsCharLikeTypeIcEC1Ev;2A.;;",128,0,276,0
	.stabs	"_IsCharLikeType<unsigned char>:Tt(38,9)=s1operator=::(38,10)=#(38,9),(38,11)=&(38,9),(38,12)=*(38,9),(38,13)=&(38,14)=k(38,9),(0,6);:_ZN11stlpmtx_std4priv15_IsCharLikeTypeIhEaSERKS2_;2A.;__base_ctor::(38,15)=#(38,9),(0,6),(38,12),(38,13),(0,6);:_ZN11stlpmtx_std4priv15_IsCharLikeTypeIhEC2ERKS2_;2A.;__comp_ctor::(38,15):_ZN11stlpmtx_std4priv15_IsCharLikeTypeIhEC1ERKS2_;2A.;__base_ctor::(38,16)=#(38,9),(0,6),(38,12),(0,6);:_ZN11stlpmtx_std4priv15_IsCharLikeTypeIhEC2Ev;2A.;__comp_ctor::(38,16):_ZN11stlpmtx_std4priv15_IsCharLikeTypeIhEC1Ev;2A.;;",128,0,279,0
	.stabs	"_IsCharLikeType<signed char>:Tt(38,17)=s1operator=::(38,18)=#(38,17),(38,19)=&(38,17),(38,20)=*(38,17),(38,21)=&(38,22)=k(38,17),(0,6);:_ZN11stlpmtx_std4priv15_IsCharLikeTypeIaEaSERKS2_;2A.;__base_ctor::(38,23)=#(38,17),(0,6),(38,20),(38,21),(0,6);:_ZN11stlpmtx_std4priv15_IsCharLikeTypeIaEC2ERKS2_;2A.;__comp_ctor::(38,23):_ZN11stlpmtx_std4priv15_IsCharLikeTypeIaEC1ERKS2_;2A.;__base_ctor::(38,24)=#(38,17),(0,6),(38,20),(0,6);:_ZN11stlpmtx_std4priv15_IsCharLikeTypeIaEC2Ev;2A.;__comp_ctor::(38,24):_ZN11stlpmtx_std4priv15_IsCharLikeTypeIaEC1Ev;2A.;;",128,0,283,0
	.stabn	162,0,0,0
	.stabn	162,0,0,0
	.stabs	"/Applications/MoSync/include/newlib/stlport/stl/_algo.c",130,0,0,0
	.stabs	"/Applications/MoSync/include/newlib/stlport/stl/_tempbuf.h",130,0,0,0
	.stabs	"/Applications/MoSync/include/newlib/stlport/stl/_uninitialized.h",130,0,0,0
	.stabs	"/Applications/MoSync/include/newlib/stlport/stl/_construct.h",130,0,0,0
	.stabs	"/Applications/MoSync/include/newlib/stlport/stl/_new.h",130,0,0,0
	.stabs	"/Applications/MoSync/include/newlib/stlport/../new",130,0,0,0
	.stabs	"/Applications/MoSync/include/newlib/stlport/../macpp.h",130,0,0,0
	.stabs	"size_t:t(45,1)=(0,16)",128,0,17,0
	.stabn	162,0,0,0
	.stabs	"nothrow_t:Tt(44,1)=s1operator=::(44,2)=#(44,1),(44,3)=&(44,1),(44,4)=*(44,1),(44,5)=&(44,6)=k(44,1),(0,6);:_ZNSt9nothrow_taSERKS_;2A.;__base_ctor::(44,7)=#(44,1),(0,6),(44,4),(44,5),(0,6);:_ZNSt9nothrow_tC2ERKS_;2A.;__comp_ctor::(44,7):_ZNSt9nothrow_tC1ERKS_;2A.;__base_ctor::(44,8)=#(44,1),(0,6),(44,4),(0,6);:_ZNSt9nothrow_tC2Ev;2A.;__comp_ctor::(44,8):_ZNSt9nothrow_tC1Ev;2A.;;",128,0,50,0
	.stabn	162,0,0,0
	.stabn	162,0,0,0
	.stabn	162,0,0,0
	.stabn	162,0,0,0
	.stabn	162,0,0,0
	.stabn	162,0,0,0
	.stabn	162,0,0,0
	.stabn	162,0,0,0
	.stabs	"/Applications/MoSync/include/newlib/stlport/vector",130,0,0,0
	.stabs	"/Applications/MoSync/include/newlib/stlport/stl/_vector.h",130,0,0,0
	.stabs	"/Applications/MoSync/include/newlib/stlport/stl/_alloc.h",130,0,0,0
	.stabs	"__malloc_alloc:Tt(48,1)=s1allocate::(48,2)=f(14,28):_ZN11stlpmtx_std14__malloc_alloc8allocateEm;2A?;deallocate::(48,3)=f(0,6):_ZN11stlpmtx_std14__malloc_alloc10deallocateEPvm;2A?;operator=::(48,4)=#(48,1),(48,5)=&(48,1),(48,6)=*(48,1),(48,7)=&(48,8)=k(48,1),(0,6);:_ZN11stlpmtx_std14__malloc_allocaSERKS0_;2A.;__base_ctor::(48,9)=#(48,1),(0,6),(48,6),(48,7),(0,6);:_ZN11stlpmtx_std14__malloc_allocC2ERKS0_;2A.;__comp_ctor::(48,9):_ZN11stlpmtx_std14__malloc_allocC1ERKS0_;2A.;__base_ctor::(48,10)=#(48,1),(0,6),(48,6),(0,6);:_ZN11stlpmtx_std14__malloc_allocC2Ev;2A.;__comp_ctor::(48,10):_ZN11stlpmtx_std14__malloc_allocC1Ev;2A.;;",128,0,63,0
	.stabs	"__new_alloc:Tt(48,11)=s1allocate::(48,2):_ZN11stlpmtx_std11__new_alloc8allocateEm;2A?;deallocate::(48,3):_ZN11stlpmtx_std11__new_alloc10deallocateEPvm;2A?;operator=::(48,12)=#(48,11),(48,13)=&(48,11),(48,14)=*(48,11),(48,15)=&(48,16)=k(48,11),(0,6);:_ZN11stlpmtx_std11__new_allocaSERKS0_;2A.;__base_ctor::(48,17)=#(48,11),(0,6),(48,14),(48,15),(0,6);:_ZN11stlpmtx_std11__new_allocC2ERKS0_;2A.;__comp_ctor::(48,17):_ZN11stlpmtx_std11__new_allocC1ERKS0_;2A.;__base_ctor::(48,18)=#(48,11),(0,6),(48,14),(0,6);:_ZN11stlpmtx_std11__new_allocC2Ev;2A.;__comp_ctor::(48,18):_ZN11stlpmtx_std11__new_allocC1Ev;2A.;;",128,0,88,0
	.stabs	"__alloc_type:t(48,19)=(48,11)",128,0,220,0
	.stabs	"__sgi_alloc:t(48,20)=(48,19)",128,0,230,0
	.stabs	"__single_client_alloc:t(48,21)=(48,20)",128,0,234,0
	.stabs	"__multithreaded_alloc:t(48,22)=(48,20)",128,0,235,0
	.stabs	"allocator<void>:Tt(48,23)=s1operator=::(48,24)=#(48,23),(48,25)=&(48,23),(48,26)=*(48,23),(48,27)=&(48,28)=k(48,23),(0,6);:_ZN11stlpmtx_std9allocatorIvEaSERKS1_;2A.;__base_ctor::(48,29)=#(48,23),(0,6),(48,26),(48,27),(0,6);:_ZN11stlpmtx_std9allocatorIvEC2ERKS1_;2A.;__comp_ctor::(48,29):_ZN11stlpmtx_std9allocatorIvEC1ERKS1_;2A.;__base_ctor::(48,30)=#(48,23),(0,6),(48,26),(0,6);:_ZN11stlpmtx_std9allocatorIvEC2Ev;2A.;__comp_ctor::(48,30):_ZN11stlpmtx_std9allocatorIvEC1Ev;2A.;;",128,0,364,0
	.stabn	162,0,0,0
	.stabs	"/Applications/MoSync/include/newlib/stlport/stl/_bvector.h",130,0,0,0
	.stabs	"_Bit_reference:Tt(49,1)=s8_M_p:(49,2)=*(0,17),0,32;_M_mask:(0,17),32,32;__base_ctor::(49,3)=#(49,1),(0,6),(49,4)=*(49,1),(49,2),(0,17),(0,6);:_ZN11stlpmtx_std4priv14_Bit_referenceC2EPjj;2A.;__comp_ctor::(49,3):_ZN11stlpmtx_std4priv14_Bit_referenceC1EPjj;2A.;__base_ctor::(49,5)=#(49,1),(0,6),(49,4),(0,6);:_ZN11stlpmtx_std4priv14_Bit_referenceC2Ev;2A.;__comp_ctor::(49,5):_ZN11stlpmtx_std4priv14_Bit_referenceC1Ev;2A.;operator 1::(49,6)=#(49,1),(0,4),(49,7)=*(49,8)=k(49,1),(0,6);:_ZNK11stlpmtx_std4priv14_Bit_referencecvbEv;2B.;operator=::(49,9)=#(49,1),(49,10)=&(49,1),(49,4),(0,4),(0,6);:_ZN11stlpmtx_std4priv14_Bit_referenceaSEb;2A.(49,11)=#(49,1),(49,10),(49,4),(49,12)=&(49,8),(0,6);:_ZN11stlpmtx_std4priv14_Bit_referenceaSERKS1_;2A.;operator==::(49,13)=#(49,1),(0,4),(49,7),(49,12),(0,6);:_ZNK11stlpmtx_std4priv14_Bit_referenceeqERKS1_;2B.;operator<::(49,13):_ZNK11stlpmtx_std4priv14_Bit_referenceltERKS1_;2B.;operator|=::(49,9):_ZN11stlpmtx_std4priv14_Bit_referenceoREb;2A.;operator&=::(49,9):_ZN11stlpmtx_std4priv14_Bit_referenceaNEb;2A.;flip::(49,5):_ZN11stlpmtx_std4priv14_Bit_reference4flipEv;2A.;__base_ctor::(49,14)=#(49,1),(0,6),(49,4),(49,12),(0,6);:_ZN11stlpmtx_std4priv14_Bit_referenceC2ERKS1_;2A.;__comp_ctor::(49,14):_ZN11stlpmtx_std4priv14_Bit_referenceC1ERKS1_;2A.;;",128,0,42,0
	.stabs	"__type_traits<stlpmtx_std::priv::_Bit_reference>:Tt(49,15)=s1operator=::(49,16)=#(49,15),(49,17)=&(49,15),(49,18)=*(49,15),(49,19)=&(49,20)=k(49,15),(0,6);:_ZN11stlpmtx_std13__type_traitsINS_4priv14_Bit_referenceEEaSERKS3_;2A.;__base_ctor::(49,21)=#(49,15),(0,6),(49,18),(49,19),(0,6);:_ZN11stlpmtx_std13__type_traitsINS_4priv14_Bit_referenceEEC2ERKS3_;2A.;__comp_ctor::(49,21):_ZN11stlpmtx_std13__type_traitsINS_4priv14_Bit_referenceEEC1ERKS3_;2A.;__base_ctor::(49,22)=#(49,15),(0,6),(49,18),(0,6);:_ZN11stlpmtx_std13__type_traitsINS_4priv14_Bit_referenceEEC2Ev;2A.;__comp_ctor::(49,22):_ZN11stlpmtx_std13__type_traitsINS_4priv14_Bit_referenceEEC1Ev;2A.;;",128,0,93,0
	.stabs	"_Bit_iterator_base:Tt(49,23)=s8_M_p:(49,2),0,32;_M_offset:(0,17),32,32;_M_bump_up::(49,24)=#(49,23),(0,6),(49,25)=*(49,23),(0,6);:_ZN11stlpmtx_std4priv18_Bit_iterator_base10_M_bump_upEv;2A.;_M_bump_down::(49,24):_ZN11stlpmtx_std4priv18_Bit_iterator_base12_M_bump_downEv;2A.;__base_ctor::(49,24):_ZN11stlpmtx_std4priv18_Bit_iterator_baseC2Ev;2A.;__comp_ctor::(49,24):_ZN11stlpmtx_std4priv18_Bit_iterator_baseC1Ev;2A.;__base_ctor::(49,26)=#(49,23),(0,6),(49,25),(49,2),(0,17),(0,6);:_ZN11stlpmtx_std4priv18_Bit_iterator_baseC2EPjj;2A.;__comp_ctor::(49,26):_ZN11stlpmtx_std4priv18_Bit_iterator_baseC1EPjj;2A.;_M_advance::(49,27)=#(49,23),(0,6),(49,25),(19,3),(0,6);:_ZN11stlpmtx_std4priv18_Bit_iterator_base10_M_advanceEi;2A.;_M_subtract::(49,28)=#(49,23),(19,3),(49,29)=*(49,30)=k(49,23),(49,31)=&(49,30),(0,6);:_ZNK11stlpmtx_std4priv18_Bit_iterator_base11_M_subtractERKS1_;2B.;operator=::(49,32)=#(49,23),(49,33)=&(49,23),(49,25),(49,31),(0,6);:_ZN11stlpmtx_std4priv18_Bit_iterator_baseaSERKS1_;2A.;__base_ctor::(49,34)=#(49,23),(0,6),(49,25),(49,31),(0,6);:_ZN11stlpmtx_std4priv18_Bit_iterator_baseC2ERKS1_;2A.;__comp_ctor::(49,34):_ZN11stlpmtx_std4priv18_Bit_iterator_baseC1ERKS1_;2A.;;",128,0,103,0
	.stabs	"_Bit_const_iterator:t(49,35)=(49,36)=xs_Bit_iter<bool,const bool*>:",128,0,262,0
	.stabs	"_Bit_iterator:t(49,37)=(49,38)=xs_Bit_iter<stlpmtx_std::priv::_Bit_reference,stlpmtx_std::priv::_Bit_reference*>:",128,0,263,0
	.stabs	"_Bit_iter<stlpmtx_std::priv::_Bit_reference,stlpmtx_std::priv::_Bit_reference*>:Tt(49,38)=s8!1,020,(49,23);__base_ctor::(49,39)=#(49,38),(0,6),(49,40)=*(49,38),(49,2),(0,17),(0,6);:_ZN11stlpmtx_std4priv9_Bit_iterINS0_14_Bit_referenceEPS2_EC2EPjj;2A.;__comp_ctor::(49,39):_ZN11stlpmtx_std4priv9_Bit_iterINS0_14_Bit_referenceEPS2_EC1EPjj;2A.;__base_ctor::(49,41)=#(49,38),(0,6),(49,40),(0,6);:_ZN11stlpmtx_std4priv9_Bit_iterINS0_14_Bit_referenceEPS2_EC2Ev;2A.;__comp_ctor::(49,41):_ZN11stlpmtx_std4priv9_Bit_iterINS0_14_Bit_referenceEPS2_EC1Ev;2A.;__base_ctor::(49,42)=#(49,38),(0,6),(49,40),(49,43)=&(49,44)=k(49,38),(0,6);:_ZN11stlpmtx_std4priv9_Bit_iterINS0_14_Bit_referenceEPS2_EC2ERKS4_;2A.;__comp_ctor::(49,42):_ZN11stlpmtx_std4priv9_Bit_iterINS0_14_Bit_referenceEPS2_EC1ERKS4_;2A.;operator*::(49,45)=#(49,38),(49,1),(49,46)=*(49,44),(0,6);:_ZNK11stlpmtx_std4priv9_Bit_iterINS0_14_Bit_referenceEPS2_EdeEv;2B.;operator++::(49,47)=#(49,38),(49,48)=&(49,38),(49,40),(0,6);:_ZN11stlpmtx_std4priv9_Bit_iterINS0_14_Bit_referenceEPS2_EppEv;2A.(49,49)=#(49,38),(49,38),(49,40),(0,3),(0,6);:_ZN11stlpmtx_std4priv9_Bit_iterINS0_14_Bit_referenceEPS2_EppEi;2A.;operator--::(49,47):_ZN11stlpmtx_std4priv9_Bit_iterINS0_14_Bit_referenceEPS2_EmmEv;2A.(49,49):_ZN11stlpmtx_std4priv9_Bit_iterINS0_14_Bit_referenceEPS2_EmmEi;2A.;operator+=::(49,50)=#(49,38),(49,48),(49,40),(0,3),(0,6);:_ZN11stlpmtx_std4priv9_Bit_iterINS0_14_Bit_referenceEPS2_EpLEi;2A.;operator-=::(49,50):_ZN11stlpmtx_std4priv9_Bit_iterINS0_14_Bit_referenceEPS2_EmIEi;2A.;operator+::(49,51)=#(49,38),(49,38),(49,46),(0,3),(0,6);:_ZNK11stlpmtx_std4priv9_Bit_iterINS0_14_Bit_referenceEPS2_EplEi;2B.;operator-::(49,51):_ZNK11stlpmtx_std4priv9_Bit_iterINS0_14_Bit_referenceEPS2_EmiEi;2B.(49,52)=#(49,38),(19,3),(49,46),(49,43),(0,6);:_ZNK11stlpmtx_std4priv9_Bit_iterINS0_14_Bit_referenceEPS2_EmiERKS4_;2B.;operator[]::(49,53)=#(49,38),(49,1),(49,40),(0,3),(0,6);:_ZN11stlpmtx_std4priv9_Bit_iterINS0_14_Bit_referenceEPS2_EixEi;2A.;operator=::(49,54)=#(49,38),(49,48),(49,40),(49,43),(0,6);:_ZN11stlpmtx_std4priv9_Bit_iterINS0_14_Bit_referenceEPS2_EaSERKS4_;2A.;;",128,0,169,0
	.stabn	162,0,0,0
	.stabs	"bit_vector:t(47,1)=(47,2)=xsvector<bool,stlpmtx_std::allocator<bool> >:",128,0,741,0
	.stabn	162,0,0,0
	.stabn	162,0,0,0
	.stabs	"/Users/brzeszczot/workspace/mosync_engine2/VertexF.hpp",130,0,0,0
	.stabs	"VertexF:Tt(50,1)=s8x:(0,9),0,32;y:(0,9),32,32;__base_ctor::(50,2)=#(50,1),(0,6),(50,3)=*(50,1),(0,6);:_ZN7VertexFC2Ev;2A.;__comp_ctor::(50,2):_ZN7VertexFC1Ev;2A.;__base_ctor::(50,4)=#(50,1),(0,6),(50,3),(0,9),(0,9),(0,6);:_ZN7VertexFC2Eff;2A.;__comp_ctor::(50,4):_ZN7VertexFC1Eff;2A.;__base_ctor::(50,5)=#(50,1),(0,6),(50,3),(0,9),(0,6);:_ZN7VertexFC2Ef;2A.;__comp_ctor::(50,5):_ZN7VertexFC1Ef;2A.;operator+::(50,6)=#(50,1),(50,1),(50,3),(50,1),(0,6);:_ZN7VertexFplES_;2A.;operator-::(50,6):_ZN7VertexFmiES_;2A.;operator*::(50,6):_ZN7VertexFmlES_;2A.;operator/::(50,6):_ZN7VertexFdvES_;2A.;operator==::(50,7)=#(50,1),(0,4),(50,3),(50,1),(0,6);:_ZN7VertexFeqES_;2A.;operator!=::(50,7):_ZN7VertexFneES_;2A.;operator++::(50,8)=#(50,1),(50,1),(50,3),(0,3),(0,6);:_ZN7VertexFppEi;2A.;operator--::(50,8):_ZN7VertexFmmEi;2A.;operator=::(50,6):_ZN7VertexFaSES_;2A.;operator+=::(50,6):_ZN7VertexFpLES_;2A.;operator-=::(50,6):_ZN7VertexFmIES_;2A.;operator*=::(50,6):_ZN7VertexFmLES_;2A.;operator/=::(50,6):_ZN7VertexFdVES_;2A.;__base_ctor::(50,9)=#(50,1),(0,6),(50,3),(50,10)=&(50,11)=k(50,1),(0,6);:_ZN7VertexFC2ERKS_;2A.;__comp_ctor::(50,9):_ZN7VertexFC1ERKS_;2A.;;",128,0,13,0
	.stabn	162,0,0,0
	.stabn	162,0,0,0
	.stabs	"/Users/brzeszczot/workspace/mosync_engine2/Adds.hpp",130,0,0,0
	.stabs	"/Applications/MoSync/include/newlib/stlport/string",130,0,0,0
	.stabs	"/Applications/MoSync/include/newlib/stlport/stl/_string.h",130,0,0,0
	.stabs	"/Applications/MoSync/include/newlib/stlport/stl/_string_fwd.h",130,0,0,0
	.stabs	"/Applications/MoSync/include/newlib/stlport/stl/_iosfwd.h",130,0,0,0
	.stabs	"/Applications/MoSync/include/newlib/stlport/stl/char_traits.h",130,0,0,0
	.stabs	"/Applications/MoSync/include/newlib/stlport/stl/_cwchar.h",130,0,0,0
	.stabs	"/Applications/MoSync/include/newlib/stlport/../wchar.h",130,0,0,0
	.stabs	"mbstate_t:t(58,1)=(14,8)",128,0,47,0
	.stabn	162,0,0,0
	.stabn	162,0,0,0
	.stabs	"streamoff:t(56,1)=(30,36)",128,0,74,0
	.stabs	"streamsize:t(56,2)=(19,3)",128,0,81,0
	.stabs	"streampos:t(56,3)=(56,4)=xsfpos<_mbstate_t>:",128,0,127,0
	.stabs	"wstreampos:t(56,5)=(56,4)",128,0,128,0
	.stabs	"__char_traits_base<char,int>:Tt(56,6)=s1assign::(56,7)=f(0,6):_ZN11stlpmtx_std18__char_traits_baseIciE6assignERcRKc;2A?;eq::(56,8)=f(0,4):_ZN11stlpmtx_std18__char_traits_baseIciE2eqERKcS3_;2A?;lt::(56,8):_ZN11stlpmtx_std18__char_traits_baseIciE2ltERKcS3_;2A?;compare::(56,9)=f(0,3):_ZN11stlpmtx_std18__char_traits_baseIciE7compareEPKcS3_m;2A?;length::(56,10)=f(19,2):_ZN11stlpmtx_std18__char_traits_baseIciE6lengthEPKc;2A?;find::(56,11)=f(13,88):_ZN11stlpmtx_std18__char_traits_baseIciE4findEPKcmRS2_;2A?;move::(56,12)=f(13,93):_ZN11stlpmtx_std18__char_traits_baseIciE4moveEPcPKcm;2A?;copy::(56,12):_ZN11stlpmtx_std18__char_traits_baseIciE4copyEPcPKcm;2A?;assign::(56,13)=f(13,93):_ZN11stlpmtx_std18__char_traits_baseIciE6assignEPcmc;2A?;not_eof::(56,14)=f(0,3):_ZN11stlpmtx_std18__char_traits_baseIciE7not_eofERKi;2A?;to_char_type::(56,15)=f(0,19):_ZN11stlpmtx_std18__char_traits_baseIciE12to_char_typeERKi;2A?;to_int_type::(56,16)=f(0,3):_ZN11stlpmtx_std18__char_traits_baseIciE11to_int_typeERKc;2A?;eq_int_type::(56,17)=f(0,4):_ZN11stlpmtx_std18__char_traits_baseIciE11eq_int_typeERKiS3_;2A?;eof::(56,18)=f(0,3):_ZN11stlpmtx_std18__char_traits_baseIciE3eofEv;2A?;operator=::(56,19)=#(56,6),(56,20)=&(56,6),(56,21)=*(56,6),(56,22)=&(56,23)=k(56,6),(0,6);:_ZN11stlpmtx_std18__char_traits_baseIciEaSERKS1_;2A.;__base_ctor::(56,24)=#(56,6),(0,6),(56,21),(56,22),(0,6);:_ZN11stlpmtx_std18__char_traits_baseIciEC2ERKS1_;2A.;__comp_ctor::(56,24):_ZN11stlpmtx_std18__char_traits_baseIciEC1ERKS1_;2A.;__base_ctor::(56,25)=#(56,6),(0,6),(56,21),(0,6);:_ZN11stlpmtx_std18__char_traits_baseIciEC2Ev;2A.;__comp_ctor::(56,25):_ZN11stlpmtx_std18__char_traits_baseIciEC1Ev;2A.;;",128,0,132,0
	.stabs	"__stlport_class<stlpmtx_std::char_traits<char> >:Tt(56,26)=s1operator=::(56,27)=#(56,26),(56,28)=&(56,26),(56,29)=*(56,26),(56,30)=&(56,31)=k(56,26),(0,6);:_ZN11stlpmtx_std15__stlport_classINS_11char_traitsIcEEEaSERKS3_;2A.;__base_ctor::(56,32)=#(56,26),(0,6),(56,29),(56,30),(0,6);:_ZN11stlpmtx_std15__stlport_classINS_11char_traitsIcEEEC2ERKS3_;2A.;__comp_ctor::(56,32):_ZN11stlpmtx_std15__stlport_classINS_11char_traitsIcEEEC1ERKS3_;2A.;__base_ctor::(56,33)=#(56,26),(0,6),(56,29),(0,6);:_ZN11stlpmtx_std15__stlport_classINS_11char_traitsIcEEEC2Ev;2A.;__comp_ctor::(56,33):_ZN11stlpmtx_std15__stlport_classINS_11char_traitsIcEEEC1Ev;2A.;;",128,0,572,0
	.stabs	"char_traits<char>:Tt(56,34)=s1!2,020,(56,6);020,(56,26);to_char_type::(56,15):_ZN11stlpmtx_std11char_traitsIcE12to_char_typeERKi;2A?;to_int_type::(56,16):_ZN11stlpmtx_std11char_traitsIcE11to_int_typeERKc;2A?;compare::(56,35)=f(0,3):_ZN11stlpmtx_std11char_traitsIcE7compareEPKcS3_m;2A?;length::(56,10):_ZN11stlpmtx_std11char_traitsIcE6lengthEPKc;2A?;assign::(56,7):_ZN11stlpmtx_std11char_traitsIcE6assignERcRKc;2A?(56,36)=f(13,93):_ZN11stlpmtx_std11char_traitsIcE6assignEPcmc;2A?;operator=::(56,37)=#(56,34),(56,38)=&(56,34),(56,39)=*(56,34),(56,40)=&(56,41)=k(56,34),(0,6);:_ZN11stlpmtx_std11char_traitsIcEaSERKS1_;2A.;__base_ctor::(56,42)=#(56,34),(0,6),(56,39),(56,40),(0,6);:_ZN11stlpmtx_std11char_traitsIcEC2ERKS1_;2A.;__comp_ctor::(56,42):_ZN11stlpmtx_std11char_traitsIcEC1ERKS1_;2A.;__base_ctor::(56,43)=#(56,34),(0,6),(56,39),(0,6);:_ZN11stlpmtx_std11char_traitsIcEC2Ev;2A.;__comp_ctor::(56,43):_ZN11stlpmtx_std11char_traitsIcEC1Ev;2A.;;",128,0,211,0
	.stabs	"__char_traits_base<wchar_t,wint_t>:Tt(56,44)=s1assign::(56,45)=f(0,6):_ZN11stlpmtx_std18__char_traits_baseIwiE6assignERwRKw;2A?;eq::(56,46)=f(0,4):_ZN11stlpmtx_std18__char_traits_baseIwiE2eqERKwS3_;2A?;lt::(56,46):_ZN11stlpmtx_std18__char_traits_baseIwiE2ltERKwS3_;2A?;compare::(56,47)=f(0,3):_ZN11stlpmtx_std18__char_traits_baseIwiE7compareEPKwS3_m;2A?;length::(56,48)=f(19,2):_ZN11stlpmtx_std18__char_traits_baseIwiE6lengthEPKw;2A?;find::(56,49)=f(56,50)=*(56,51)=k(0,5):_ZN11stlpmtx_std18__char_traits_baseIwiE4findEPKwmRS2_;2A?;move::(56,52)=f(56,53)=*(0,5):_ZN11stlpmtx_std18__char_traits_baseIwiE4moveEPwPKwm;2A?;copy::(56,52):_ZN11stlpmtx_std18__char_traits_baseIwiE4copyEPwPKwm;2A?;assign::(56,54)=f(56,53):_ZN11stlpmtx_std18__char_traits_baseIwiE6assignEPwmw;2A?;not_eof::(56,55)=f(19,1):_ZN11stlpmtx_std18__char_traits_baseIwiE7not_eofERKi;2A?;to_char_type::(56,56)=f(0,5):_ZN11stlpmtx_std18__char_traits_baseIwiE12to_char_typeERKi;2A?;to_int_type::(56,57)=f(19,1):_ZN11stlpmtx_std18__char_traits_baseIwiE11to_int_typeERKw;2A?;eq_int_type::(56,58)=f(0,4):_ZN11stlpmtx_std18__char_traits_baseIwiE11eq_int_typeERKiS3_;2A?;eof::(56,59)=f(19,1):_ZN11stlpmtx_std18__char_traits_baseIwiE3eofEv;2A?;operator=::(56,60)=#(56,44),(56,61)=&(56,44),(56,62)=*(56,44),(56,63)=&(56,64)=k(56,44),(0,6);:_ZN11stlpmtx_std18__char_traits_baseIwiEaSERKS1_;2A.;__base_ctor::(56,65)=#(56,44),(0,6),(56,62),(56,63),(0,6);:_ZN11stlpmtx_std18__char_traits_baseIwiEC2ERKS1_;2A.;__comp_ctor::(56,65):_ZN11stlpmtx_std18__char_traits_baseIwiEC1ERKS1_;2A.;__base_ctor::(56,66)=#(56,44),(0,6),(56,62),(0,6);:_ZN11stlpmtx_std18__char_traits_baseIwiEC2Ev;2A.;__comp_ctor::(56,66):_ZN11stlpmtx_std18__char_traits_baseIwiEC1Ev;2A.;;",128,0,132,0
	.stabs	"char_traits<wchar_t>:Tt(56,67)=s1!1,020,(56,44);move::(56,68)=f(56,53):_ZN11stlpmtx_std11char_traitsIwE4moveEPwPKwm;2A?;copy::(56,68):_ZN11stlpmtx_std11char_traitsIwE4copyEPwPKwm;2A?;compare::(56,69)=f(0,3):_ZN11stlpmtx_std11char_traitsIwE7compareEPKwS3_m;2A?;assign::(56,70)=f(56,53):_ZN11stlpmtx_std11char_traitsIwE6assignEPwmw;2A?;length::(56,48):_ZN11stlpmtx_std11char_traitsIwE6lengthEPKw;2A?;assign::(56,45):_ZN11stlpmtx_std11char_traitsIwE6assignERwRKw;2A?;operator=::(56,71)=#(56,67),(56,72)=&(56,67),(56,73)=*(56,67),(56,74)=&(56,75)=k(56,67),(0,6);:_ZN11stlpmtx_std11char_traitsIwEaSERKS1_;2A.;__base_ctor::(56,76)=#(56,67),(0,6),(56,73),(56,74),(0,6);:_ZN11stlpmtx_std11char_traitsIwEC2ERKS1_;2A.;__comp_ctor::(56,76):_ZN11stlpmtx_std11char_traitsIwEC1ERKS1_;2A.;__base_ctor::(56,77)=#(56,67),(0,6),(56,73),(0,6);:_ZN11stlpmtx_std11char_traitsIwEC2Ev;2A.;__comp_ctor::(56,77):_ZN11stlpmtx_std11char_traitsIwEC1Ev;2A.;;",128,0,244,0
	.stabn	162,0,0,0
	.stabs	"ios:t(55,1)=(55,2)=xsbasic_ios<char,stlpmtx_std::char_traits<char> >:",128,0,78,0
	.stabs	"wios:t(55,3)=(55,4)=xsbasic_ios<wchar_t,stlpmtx_std::char_traits<wchar_t> >:",128,0,81,0
	.stabs	"istream:t(55,5)=(55,6)=xsbasic_istream<char,stlpmtx_std::char_traits<char> >:",128,0,120,0
	.stabs	"ostream:t(55,7)=(55,8)=xsbasic_ostream<char,stlpmtx_std::char_traits<char> >:",128,0,121,0
	.stabs	"iostream:t(55,9)=(55,10)=xsbasic_iostream<char,stlpmtx_std::char_traits<char> >:",128,0,122,0
	.stabs	"streambuf:t(55,11)=(55,12)=xsbasic_streambuf<char,stlpmtx_std::char_traits<char> >:",128,0,123,0
	.stabs	"stringbuf:t(55,13)=(55,14)=xsbasic_stringbuf<char,stlpmtx_std::char_traits<char>,stlpmtx_std::allocator<char> >:",128,0,125,0
	.stabs	"istringstream:t(55,15)=(55,16)=xsbasic_istringstream<char,stlpmtx_std::char_traits<char>,stlpmtx_std::allocator<char> >:",128,0,126,0
	.stabs	"ostringstream:t(55,17)=(55,18)=xsbasic_ostringstream<char,stlpmtx_std::char_traits<char>,stlpmtx_std::allocator<char> >:",128,0,127,0
	.stabs	"stringstream:t(55,19)=(55,20)=xsbasic_stringstream<char,stlpmtx_std::char_traits<char>,stlpmtx_std::allocator<char> >:",128,0,128,0
	.stabs	"filebuf:t(55,21)=(55,22)=xsbasic_filebuf<char,stlpmtx_std::char_traits<char> >:",128,0,130,0
	.stabs	"ifstream:t(55,23)=(55,24)=xsbasic_ifstream<char,stlpmtx_std::char_traits<char> >:",128,0,131,0
	.stabs	"ofstream:t(55,25)=(55,26)=xsbasic_ofstream<char,stlpmtx_std::char_traits<char> >:",128,0,132,0
	.stabs	"fstream:t(55,27)=(55,28)=xsbasic_fstream<char,stlpmtx_std::char_traits<char> >:",128,0,133,0
	.stabs	"wstreambuf:t(55,29)=(55,30)=xsbasic_streambuf<wchar_t,stlpmtx_std::char_traits<wchar_t> >:",128,0,137,0
	.stabs	"wistream:t(55,31)=(55,32)=xsbasic_istream<wchar_t,stlpmtx_std::char_traits<wchar_t> >:",128,0,138,0
	.stabs	"wostream:t(55,33)=(55,34)=xsbasic_ostream<wchar_t,stlpmtx_std::char_traits<wchar_t> >:",128,0,139,0
	.stabs	"wiostream:t(55,35)=(55,36)=xsbasic_iostream<wchar_t,stlpmtx_std::char_traits<wchar_t> >:",128,0,140,0
	.stabs	"wstringbuf:t(55,37)=(55,38)=xsbasic_stringbuf<wchar_t,stlpmtx_std::char_traits<wchar_t>,stlpmtx_std::allocator<wchar_t> >:",128,0,142,0
	.stabs	"wistringstream:t(55,39)=(55,40)=xsbasic_istringstream<wchar_t,stlpmtx_std::char_traits<wchar_t>,stlpmtx_std::allocator<wchar_t> >:",128,0,143,0
	.stabs	"wostringstream:t(55,41)=(55,42)=xsbasic_ostringstream<wchar_t,stlpmtx_std::char_traits<wchar_t>,stlpmtx_std::allocator<wchar_t> >:",128,0,144,0
	.stabs	"wstringstream:t(55,43)=(55,44)=xsbasic_stringstream<wchar_t,stlpmtx_std::char_traits<wchar_t>,stlpmtx_std::allocator<wchar_t> >:",128,0,145,0
	.stabs	"wfilebuf:t(55,45)=(55,46)=xsbasic_filebuf<wchar_t,stlpmtx_std::char_traits<wchar_t> >:",128,0,147,0
	.stabs	"wifstream:t(55,47)=(55,48)=xsbasic_ifstream<wchar_t,stlpmtx_std::char_traits<wchar_t> >:",128,0,148,0
	.stabs	"wofstream:t(55,49)=(55,50)=xsbasic_ofstream<wchar_t,stlpmtx_std::char_traits<wchar_t> >:",128,0,149,0
	.stabs	"wfstream:t(55,51)=(55,52)=xsbasic_fstream<wchar_t,stlpmtx_std::char_traits<wchar_t> >:",128,0,150,0
	.stabn	162,0,0,0
	.stabs	"string:t(54,1)=(54,2)=xsbasic_string<char,stlpmtx_std::char_traits<char>,stlpmtx_std::allocator<char> >:",128,0,40,0
	.stabs	"wstring:t(54,3)=(54,4)=xsbasic_string<wchar_t,stlpmtx_std::char_traits<wchar_t>,stlpmtx_std::allocator<wchar_t> >:",128,0,43,0
	.stabn	162,0,0,0
	.stabs	"_String_reserve_t:Tt(53,1)=s1operator=::(53,2)=#(53,1),(53,3)=&(53,1),(53,4)=*(53,1),(53,5)=&(53,6)=k(53,1),(0,6);:_ZN11stlpmtx_std4priv17_String_reserve_taSERKS1_;2A.;__base_ctor::(53,7)=#(53,1),(0,6),(53,4),(53,5),(0,6);:_ZN11stlpmtx_std4priv17_String_reserve_tC2ERKS1_;2A.;__comp_ctor::(53,7):_ZN11stlpmtx_std4priv17_String_reserve_tC1ERKS1_;2A.;__base_ctor::(53,8)=#(53,1),(0,6),(53,4),(0,6);:_ZN11stlpmtx_std4priv17_String_reserve_tC2Ev;2A.;__comp_ctor::(53,8):_ZN11stlpmtx_std4priv17_String_reserve_tC1Ev;2A.;;",128,0,99,0
	.stabs	"_String_base<char,stlpmtx_std::allocator<char> >::_Buffers:Tt(53,9)=u16_M_end_of_storage:(13,93),0,32;_M_static_buf:(53,10)=ar(14,11);0;15;(0,19),0,128;operator=::(53,11)=#(53,9),(53,12)=&(53,9),(53,13)=*(53,9),(53,14)=&(53,15)=k(53,9),(0,6);:_ZN11stlpmtx_std4priv12_String_baseIcNS_9allocatorIcEEE8_BuffersaSERKS5_;2A.;__base_ctor::(53,16)=#(53,9),(0,6),(53,13),(53,14),(0,6);:_ZN11stlpmtx_std4priv12_String_baseIcNS_9allocatorIcEEE8_BuffersC2ERKS5_;2A.;__comp_ctor::(53,16):_ZN11stlpmtx_std4priv12_String_baseIcNS_9allocatorIcEEE8_BuffersC1ERKS5_;2A.;__base_ctor::(53,17)=#(53,9),(0,6),(53,13),(0,6);:_ZN11stlpmtx_std4priv12_String_baseIcNS_9allocatorIcEEE8_BuffersC2Ev;2A.;__comp_ctor::(53,17):_ZN11stlpmtx_std4priv12_String_baseIcNS_9allocatorIcEEE8_BuffersC1Ev;2A.;;",128,0,54,0
	.stabs	"__stlport_class<stlpmtx_std::allocator<char> >:Tt(53,18)=s1operator=::(53,19)=#(53,18),(53,20)=&(53,18),(53,21)=*(53,18),(53,22)=&(53,23)=k(53,18),(0,6);:_ZN11stlpmtx_std15__stlport_classINS_9allocatorIcEEEaSERKS3_;2A.;__base_ctor::(53,24)=#(53,18),(0,6),(53,21),(53,22),(0,6);:_ZN11stlpmtx_std15__stlport_classINS_9allocatorIcEEEC2ERKS3_;2A.;__comp_ctor::(53,24):_ZN11stlpmtx_std15__stlport_classINS_9allocatorIcEEEC1ERKS3_;2A.;__base_ctor::(53,25)=#(53,18),(0,6),(53,21),(0,6);:_ZN11stlpmtx_std15__stlport_classINS_9allocatorIcEEEC2Ev;2A.;__comp_ctor::(53,25):_ZN11stlpmtx_std15__stlport_classINS_9allocatorIcEEEC1Ev;2A.;;",128,0,572,0
	.stabs	"allocator<char>:Tt(53,26)=s1!1,020,(53,18);__base_ctor::(53,27)=#(53,26),(0,6),(53,28)=*(53,26),(0,6);:_ZN11stlpmtx_std9allocatorIcEC2Ev;2A.;__comp_ctor::(53,27):_ZN11stlpmtx_std9allocatorIcEC1Ev;2A.;__base_ctor::(53,29)=#(53,26),(0,6),(53,28),(53,30)=&(53,31)=k(53,26),(0,6);:_ZN11stlpmtx_std9allocatorIcEC2ERKS1_;2A.;__comp_ctor::(53,29):_ZN11stlpmtx_std9allocatorIcEC1ERKS1_;2A.;__base_ctor::(53,32)=#(53,26),(0,6),(53,28),(53,33)=xs__move_source<stlpmtx_std::allocator<char> >:,(0,6);:_ZN11stlpmtx_std9allocatorIcEC2ENS_13__move_sourceIS1_EE;2A.;__comp_ctor::(53,32):_ZN11stlpmtx_std9allocatorIcEC1ENS_13__move_sourceIS1_EE;2A.;__base_dtor::(53,27):_ZN11stlpmtx_std9allocatorIcED2Ev;2A.;__comp_dtor::(53,27):_ZN11stlpmtx_std9allocatorIcED1Ev;2A.;address::(53,34)=#(53,26),(13,93),(53,35)=*(53,31),(53,36)=&(0,19),(0,6);:_ZNK11stlpmtx_std9allocatorIcE7addressERc;2B.(53,37)=#(53,26),(13,88),(53,35),(53,38)=&(13,89),(0,6);:_ZNK11stlpmtx_std9allocatorIcE7addressERKc;2B.;allocate::(53,39)=#(53,26),(13,93),(53,28),(0,16),(36,92),(0,6);:_ZN11stlpmtx_std9allocatorIcE8allocateEmPKv;2A.;deallocate::(53,40)=#(53,26),(0,6),(53,28),(13,93),(0,16),(0,6);:_ZN11stlpmtx_std9allocatorIcE10deallocateEPcm;2A.(53,41)=#(53,26),(0,6),(53,35),(13,93),(0,6);:_ZNK11stlpmtx_std9allocatorIcE10deallocateEPc;2B.;max_size::(53,42)=#(53,26),(19,2),(53,35),(0,6);:_ZNK11stlpmtx_std9allocatorIcE8max_sizeEv;2B.;construct::(53,43)=#(53,26),(0,6),(53,28),(13,93),(53,38),(0,6);:_ZN11stlpmtx_std9allocatorIcE9constructEPcRKc;2A.;destroy::(53,44)=#(53,26),(0,6),(53,28),(13,93),(0,6);:_ZN11stlpmtx_std9allocatorIcE7destroyEPc;2A.;_M_allocate::(53,45)=#(53,26),(13,93),(53,28),(0,16),(53,46)=&(19,2),(0,6);:_ZN11stlpmtx_std9allocatorIcE11_M_allocateEmRm;2A.;operator=::(53,47)=#(53,26),(53,48)=&(53,26),(53,28),(53,30),(0,6);:_ZN11stlpmtx_std9allocatorIcEaSERKS1_;2A.;;",128,0,275,0
	.stabs	"_STLP_alloc_proxy<char*,char,stlpmtx_std::allocator<char> >:Tt(53,49)=s4!1,020,(53,26);_M_data:(13,93),0,32;__base_ctor::(53,50)=#(53,49),(0,6),(53,51)=*(53,49),(53,30),(13,93),(0,6);:_ZN11stlpmtx_std4priv17_STLP_alloc_proxyIPccNS_9allocatorIcEEEC2ERKS4_S2_;2A.;__comp_ctor::(53,50):_ZN11stlpmtx_std4priv17_STLP_alloc_proxyIPccNS_9allocatorIcEEEC1ERKS4_S2_;2A.;__base_ctor::(53,52)=#(53,49),(0,6),(53,51),(53,53)=xs__move_source<stlpmtx_std::priv::_STLP_alloc_proxy<char*, char, stlpmtx_std::allocator<char> > >:,(0,6);:_ZN11stlpmtx_std4priv17_STLP_alloc_proxyIPccNS_9allocatorIcEEEC2ENS_13__move_sourceIS5_EE;2A.;__comp_ctor::(53,52):_ZN11stlpmtx_std4priv17_STLP_alloc_proxyIPccNS_9allocatorIcEEEC1ENS_13__move_sourceIS5_EE;2A.;_M_base::(53,54)=#(53,49),(53,48),(53,51),(0,6);:_ZN11stlpmtx_std4priv17_STLP_alloc_proxyIPccNS_9allocatorIcEEE7_M_baseEv;2A.;_M_swap_alloc::(53,55)=#(53,49),(0,6),(53,51),(53,56)=&(53,49),(36,5),(0,6);:_ZN11stlpmtx_std4priv17_STLP_alloc_proxyIPccNS_9allocatorIcEEE13_M_swap_allocERS5_RKNS_11__true_typeE;0A.(53,57)=#(53,49),(0,6),(53,51),(53,56),(36,13),(0,6);:_ZN11stlpmtx_std4priv17_STLP_alloc_proxyIPccNS_9allocatorIcEEE13_M_swap_allocERS5_RKNS_12__false_typeE;0A.(53,58)=#(53,49),(0,6),(53,51),(53,56),(0,6);:_ZN11stlpmtx_std4priv17_STLP_alloc_proxyIPccNS_9allocatorIcEEE13_M_swap_allocERS5_;2A.;swap::(53,58):_ZN11stlpmtx_std4priv17_STLP_alloc_proxyIPccNS_9allocatorIcEEE4swapERS5_;2A.;allocate::(53,59)=#(53,49),(13,93),(53,51),(0,16),(53,46),(0,6);:_ZN11stlpmtx_std4priv17_STLP_alloc_proxyIPccNS_9allocatorIcEEE8allocateEmRm;2A.(53,60)=#(53,49),(13,93),(53,51),(0,16),(0,6);:_ZN11stlpmtx_std4priv17_STLP_alloc_proxyIPccNS_9allocatorIcEEE8allocateEm;2A.(53,61)=#(53,49),(13,93),(53,51),(0,16),(53,46),(36,5),(0,6);:_ZN11stlpmtx_std4priv17_STLP_alloc_proxyIPccNS_9allocatorIcEEE8allocateEmRmRKNS_11__true_typeE;0A.(53,62)=#(53,49),(13,93),(53,51),(0,16),(53,46),(36,13),(0,6);:_ZN11stlpmtx_std4priv17_STLP_alloc_proxyIPccNS_9allocatorIcEEE8allocateEmRmRKNS_12__false_typeE;0A.;operator=::(53,63)=#(53,49),(53,56),(53,51),(53,64)=&(53,65)=k(53,49),(0,6);:_ZN11stlpmtx_std4priv17_STLP_alloc_proxyIPccNS_9allocatorIcEEEaSERKS5_;2A.;__base_ctor::(53,66)=#(53,49),(0,6),(53,51),(53,64),(0,6);:_ZN11stlpmtx_std4priv17_STLP_alloc_proxyIPccNS_9allocatorIcEEEC2ERKS5_;2A.;__comp_ctor::(53,66):_ZN11stlpmtx_std4priv17_STLP_alloc_proxyIPccNS_9allocatorIcEEEC1ERKS5_;2A.;__base_dtor::(53,67)=#(53,49),(0,6),(53,51),(0,6);:_ZN11stlpmtx_std4priv17_STLP_alloc_proxyIPccNS_9allocatorIcEEED2Ev;2A.;__comp_dtor::(53,67):_ZN11stlpmtx_std4priv17_STLP_alloc_proxyIPccNS_9allocatorIcEEED1Ev;2A.;;",128,0,472,0
	.stabs	"_String_base<char,stlpmtx_std::allocator<char> >:Tt(53,68)=s24_M_buffers:/0(53,9),0,128;_M_finish:/1(13,93),128,32;_M_start_of_storage:/1(53,49),160,32;_M_using_static_buf::(53,69)=#(53,68),(0,4),(53,70)=*(53,71)=k(53,68),(0,6);:_ZNK11stlpmtx_std4priv12_String_baseIcNS_9allocatorIcEEE19_M_using_static_bufEv;1B.;_M_Start::(53,72)=#(53,68),(13,88),(53,70),(0,6);:_ZNK11stlpmtx_std4priv12_String_baseIcNS_9allocatorIcEEE8_M_StartEv;1B.(53,73)=#(53,68),(13,93),(53,74)=*(53,68),(0,6);:_ZN11stlpmtx_std4priv12_String_baseIcNS_9allocatorIcEEE8_M_StartEv;1A.;_M_End::(53,72):_ZNK11stlpmtx_std4priv12_String_baseIcNS_9allocatorIcEEE6_M_EndEv;1B.(53,73):_ZN11stlpmtx_std4priv12_String_baseIcNS_9allocatorIcEEE6_M_EndEv;1A.;_M_capacity::(53,75)=#(53,68),(19,2),(53,70),(0,6);:_ZNK11stlpmtx_std4priv12_String_baseIcNS_9allocatorIcEEE11_M_capacityEv;1B.;_M_rest::(53,75):_ZNK11stlpmtx_std4priv12_String_baseIcNS_9allocatorIcEEE7_M_restEv;1B.;_M_Finish::(53,72):_ZNK11stlpmtx_std4priv12_String_baseIcNS_9allocatorIcEEE9_M_FinishEv;1B.(53,73):_ZN11stlpmtx_std4priv12_String_baseIcNS_9allocatorIcEEE9_M_FinishEv;1A.;_M_allocate_block::(53,76)=#(53,68),(0,6),(53,74),(0,16),(0,6);:_ZN11stlpmtx_std4priv12_String_baseIcNS_9allocatorIcEEE17_M_allocate_blockEm;1A.;_M_deallocate_block::(53,77)=#(53,68),(0,6),(53,74),(0,6);:_ZN11stlpmtx_std4priv12_String_baseIcNS_9allocatorIcEEE19_M_deallocate_blockEv;1A.;max_size::(53,75):_ZNK11stlpmtx_std4priv12_String_baseIcNS_9allocatorIcEEE8max_sizeEv;1B.;__base_ctor::(53,78)=#(53,68),(0,6),(53,74),(53,30),(0,6);:_ZN11stlpmtx_std4priv12_String_baseIcNS_9allocatorIcEEEC2ERKS3_;1A.;__comp_ctor::(53,78):_ZN11stlpmtx_std4priv12_String_baseIcNS_9allocatorIcEEEC1ERKS3_;1A.;__base_ctor::(53,79)=#(53,68),(0,6),(53,74),(53,30),(0,16),(0,6);:_ZN11stlpmtx_std4priv12_String_baseIcNS_9allocatorIcEEEC2ERKS3_m;1A.;__comp_ctor::(53,79):_ZN11stlpmtx_std4priv12_String_baseIcNS_9allocatorIcEEEC1ERKS3_m;1A.;_M_move_src::(53,80)=#(53,68),(0,6),(53,74),(53,81)=&(53,68),(0,6);:_ZN11stlpmtx_std4priv12_String_baseIcNS_9allocatorIcEEE11_M_move_srcERS4_;1A.;__base_ctor::(53,82)=#(53,68),(0,6),(53,74),(53,83)=xs__move_source<stlpmtx_std::priv::_String_base<char, stlpmtx_std::allocator<char> > >:,(0,6);:_ZN11stlpmtx_std4priv12_String_baseIcNS_9allocatorIcEEEC2ENS_13__move_sourceIS4_EE;1A.;__comp_ctor::(53,82):_ZN11stlpmtx_std4priv12_String_baseIcNS_9allocatorIcEEEC1ENS_13__move_sourceIS4_EE;1A.;__base_dtor::(53,77):_ZN11stlpmtx_std4priv12_String_baseIcNS_9allocatorIcEEED2Ev;1A.;__comp_dtor::(53,77):_ZN11stlpmtx_std4priv12_String_baseIcNS_9allocatorIcEEED1Ev;1A.;_M_reset::(53,84)=#(53,68),(0,6),(53,74),(13,93),(13,93),(13,93),(0,6);:_ZN11stlpmtx_std4priv12_String_baseIcNS_9allocatorIcEEE8_M_resetEPcS5_S5_;1A.;_M_swap::(53,80):_ZN11stlpmtx_std4priv12_String_baseIcNS_9allocatorIcEEE7_M_swapERS4_;1A.;_M_throw_length_error::(53,85)=#(53,68),(0,6),(53,70),(0,6);:_ZNK11stlpmtx_std4priv12_String_baseIcNS_9allocatorIcEEE21_M_throw_length_errorEv;1B.;_M_throw_out_of_range::(53,85):_ZNK11stlpmtx_std4priv12_String_baseIcNS_9allocatorIcEEE21_M_throw_out_of_rangeEv;1B.;operator=::(53,86)=#(53,68),(53,81),(53,74),(53,87)=&(53,71),(0,6);:_ZN11stlpmtx_std4priv12_String_baseIcNS_9allocatorIcEEEaSERKS4_;2A.;__base_ctor::(53,88)=#(53,68),(0,6),(53,74),(53,87),(0,6);:_ZN11stlpmtx_std4priv12_String_baseIcNS_9allocatorIcEEEC2ERKS4_;2A.;__comp_ctor::(53,88):_ZN11stlpmtx_std4priv12_String_baseIcNS_9allocatorIcEEEC1ERKS4_;2A.;;",128,0,41,0
	.stabs	"basic_string<char,stlpmtx_std::char_traits<char>,stlpmtx_std::allocator<char> >:Tt(54,2)=s24!1,000,(53,68);npos:/2(53,89)=k(19,2):_ZN11stlpmtx_std12basic_stringIcNS_11char_traitsIcEENS_9allocatorIcEEE4nposE;get_allocator::(53,90)=#(54,2),(53,26),(53,91)=*(53,92)=k(54,2),(0,6);:_ZNK11stlpmtx_std12basic_stringIcNS_11char_traitsIcEENS_9allocatorIcEEE13get_allocatorEv;2B.;__base_ctor::(53,93)=#(54,2),(0,6),(53,94)=*(54,2),(53,30),(0,6);:_ZN11stlpmtx_std12basic_stringIcNS_11char_traitsIcEENS_9allocatorIcEEEC2ERKS4_;2A.;__comp_ctor::(53,93):_ZN11stlpmtx_std12basic_stringIcNS_11char_traitsIcEENS_9allocatorIcEEEC1ERKS4_;2A.;__base_ctor::(53,95)=#(54,2),(0,6),(53,94),(53,1),(0,16),(53,30),(0,6);:_ZN11stlpmtx_std12basic_stringIcNS_11char_traitsIcEENS_9allocatorIcEEEC2ENS_4priv17_String_reserve_tEmRKS4_;2A.;__comp_ctor::(53,95):_ZN11stlpmtx_std12basic_stringIcNS_11char_traitsIcEENS_9allocatorIcEEEC1ENS_4priv17_String_reserve_tEmRKS4_;2A.;__base_ctor::(53,96)=#(54,2),(0,6),(53,94),(53,97)=&(53,92),(0,6);:_ZN11stlpmtx_std12basic_stringIcNS_11char_traitsIcEENS_9allocatorIcEEEC2ERKS5_;2A.;__comp_ctor::(53,96):_ZN11stlpmtx_std12basic_stringIcNS_11char_traitsIcEENS_9allocatorIcEEEC1ERKS5_;2A.;__base_ctor::(53,98)=#(54,2),(0,6),(53,94),(53,97),(0,16),(0,16),(53,30),(0,6);:_ZN11stlpmtx_std12basic_stringIcNS_11char_traitsIcEENS_9allocatorIcEEEC2ERKS5_mmRKS4_;2A.;__comp_ctor::(53,98):_ZN11stlpmtx_std12basic_stringIcNS_11char_traitsIcEENS_9allocatorIcEEEC1ERKS5_mmRKS4_;2A.;__base_ctor::(53,99)=#(54,2),(0,6),(53,94),(13,88),(0,16),(53,30),(0,6);:_ZN11stlpmtx_std12basic_stringIcNS_11char_traitsIcEENS_9allocatorIcEEEC2EPKcmRKS4_;2A.;__comp_ctor::(53,99):_ZN11stlpmtx_std12basic_stringIcNS_11char_traitsIcEENS_9allocatorIcEEEC1EPKcmRKS4_;2A.;__base_ctor::(53,100)=#(54,2),(0,6),(53,94),(13,88),(53,30),(0,6);:_ZN11stlpmtx_std12basic_stringIcNS_11char_traitsIcEENS_9allocatorIcEEEC2EPKcRKS4_;2A.;__comp_ctor::(53,100):_ZN11stlpmtx_std12basic_stringIcNS_11char_traitsIcEENS_9allocatorIcEEEC1EPKcRKS4_;2A.;__base_ctor::(53,101)=#(54,2),(0,6),(53,94),(0,16),(0,19),(53,30),(0,6);:_ZN11stlpmtx_std12basic_stringIcNS_11char_traitsIcEENS_9allocatorIcEEEC2EmcRKS4_;2A.;__comp_ctor::(53,101):_ZN11stlpmtx_std12basic_stringIcNS_11char_traitsIcEENS_9allocatorIcEEEC1EmcRKS4_;2A.;__base_ctor::(53,102)=#(54,2),(0,6),(53,94),(53,103)=xs__move_source<stlpmtx_std::basic_string<char, stlpmtx_std::char_traits<char>, stlpmtx_std::allocator<char> > >:,(0,6);:_ZN11stlpmtx_std12basic_stringIcNS_11char_traitsIcEENS_9allocatorIcEEEC2ENS_13__move_sourceIS5_EE;2A.;__comp_ctor::(53,102):_ZN11stlpmtx_std12basic_stringIcNS_11char_traitsIcEENS_9allocatorIcEEEC1ENS_13__move_sourceIS5_EE;2A.;_M_compute_next_size::(53,104)=#(54,2),(19,2),(53,94),(0,16),(0,6);:_ZN11stlpmtx_std12basic_stringIcNS_11char_traitsIcEENS_9allocatorIcEEE20_M_compute_next_sizeEm;0A.;operator=::(53,105)=#(54,2),(53,106)=&(54,2),(53,94),(53,97),(0,6);:_ZN11stlpmtx_std12basic_stringIcNS_11char_traitsIcEENS_9allocatorIcEEEaSERKS5_;2A.(53,107)=#(54,2),(53,106),(53,94),(13,88),(0,6);:_ZN11stlpmtx_std12basic_stringIcNS_11char_traitsIcEENS_9allocatorIcEEEaSEPKc;2A.(53,108)=#(54,2),(53,106),(53,94),(0,19),(0,6);:_ZN11stlpmtx_std12basic_stringIcNS_11char_traitsIcEENS_9allocatorIcEEEaSEc;2A.;_M_null::(53,109)=f(0,19):_ZN11stlpmtx_std12basic_stringIcNS_11char_traitsIcEENS_9allocatorIcEEE7_M_nullEv;0A?;_M_construct_null::(53,110)=#(54,2),(0,6),(53,91),(13,93),(0,6);:_ZNK11stlpmtx_std12basic_stringIcNS_11char_traitsIcEENS_9allocatorIcEEE17_M_construct_nullEPc;0B.;_M_terminate_string::(53,111)=#(54,2),(0,6),(53,94),(0,6);:_ZN11stlpmtx_std12basic_stringIcNS_11char_traitsIcEENS_9allocatorIcEEE19_M_terminate_stringEv;0A.;_M_inside::(53,112)=#(54,2),(0,4),(53,91),(13,88),(0,6);:_ZNK11stlpmtx_std12basic_stringIcNS_11char_traitsIcEENS_9allocatorIcEEE9_M_insideEPKc;0B.;_M_range_initialize::(53,113)=#(54,2),(0,6),(53,94),(13,88),(13,88),(0,6);:_ZN11stlpmtx_std12basic_stringIcNS_11char_traitsIcEENS_9allocatorIcEEE19_M_range_initializeEPKcS7_;0A.;begin::(53,114)=#(54,2),(13,93),(53,94),(0,6);:_ZN11stlpmtx_std12basic_stringIcNS_11char_traitsIcEENS_9allocatorIcEEE5beginEv;2A.;end::(53,114):_ZN11stlpmtx_std12basic_stringIcNS_11char_traitsIcEENS_9allocatorIcEEE3endEv;2A.;begin::(53,115)=#(54,2),(13,88),(53,91),(0,6);:_ZNK11stlpmtx_std12basic_stringIcNS_11char_traitsIcEENS_9allocatorIcEEE5beginEv;2B.;end::(53,115):_ZNK11stlpmtx_std12basic_stringIcNS_11char_traitsIcEENS_9allocatorIcEEE3endEv;2B.;rbegin::(53,116)=#(54,2),(53,117)=xsreverse_iterator<char*>:,(53,94),(0,6);:_ZN11stlpmtx_std12basic_stringIcNS_11char_traitsIcEENS_9allocatorIcEEE6rbeginEv;2A.;rend::(53,116):_ZN11stlpmtx_std12basic_stringIcNS_11char_traitsIcEENS_9allocatorIcEEE4rendEv;2A.;rbegin::(53,118)=#(54,2),(53,119)=xsreverse_iterator<const char*>:,(53,91),(0,6);:_ZNK11stlpmtx_std12basic_stringIcNS_11char_traitsIcEENS_9allocatorIcEEE6rbeginEv;2B.;rend::(53,118):_ZNK11stlpmtx_std12basic_stringIcNS_11char_traitsIcEENS_9allocatorIcEEE4rendEv;2B.;size::(53,120)=#(54,2),(19,2),(53,91),(0,6);:_ZNK11stlpmtx_std12basic_stringIcNS_11char_traitsIcEENS_9allocatorIcEEE4sizeEv;2B.;length::(53,120):_ZNK11stlpmtx_std12basic_stringIcNS_11char_traitsIcEENS_9allocatorIcEEE6lengthEv;2B.;max_size::(53,120):_ZNK11stlpmtx_std12basic_stringIcNS_11char_traitsIcEENS_9allocatorIcEEE8max_sizeEv;2B.;resize::(53,121)=#(54,2),(0,6),(53,94),(0,16),(0,19),(0,6);:_ZN11stlpmtx_std12basic_stringIcNS_11char_traitsIcEENS_9allocatorIcEEE6resizeEmc;2A.(53,122)=#(54,2),(0,6),(53,94),(0,16),(0,6);:_ZN11stlpmtx_std12basic_stringIcNS_11char_traitsIcEENS_9allocatorIcEEE6resizeEm;2A.;_M_reserve::(53,122):_ZN11stlpmtx_std12basic_stringIcNS_11char_traitsIcEENS_9allocatorIcEEE10_M_reserveEm;0A.;reserve::(53,123)=#(54,2),(0,6),(53,94),(0,16),(0,6);:_ZN11stlpmtx_std12basic_stringIcNS_11char_traitsIcEENS_9allocatorIcEEE7reserveEm;2A.;capacity::(53,120):_ZNK11stlpmtx_std12basic_stringIcNS_11char_traitsIcEENS_9allocatorIcEEE8capacityEv;2B.;clear::(53,111):_ZN11stlpmtx_std12basic_stringIcNS_11char_traitsIcEENS_9allocatorIcEEE5clearEv;2A.;empty::(53,124)=#(54,2),(0,4),(53,91),(0,6);:_ZNK11stlpmtx_std12basic_stringIcNS_11char_traitsIcEENS_9allocatorIcEEE5emptyEv;2B.;operator[]::(53,125)=#(54,2),(53,38),(53,91),(0,16),(0,6);:_ZNK11stlpmtx_std12basic_stringIcNS_11char_traitsIcEENS_9allocatorIcEEEixEm;2B.(53,126)=#(54,2),(53,36),(53,94),(0,16),(0,6);:_ZN11stlpmtx_std12basic_stringIcNS_11char_traitsIcEENS_9allocatorIcEEEixEm;2A.;at::(53,125):_ZNK11stlpmtx_std12basic_stringIcNS_11char_traitsIcEENS_9allocatorIcEEE2atEm;2B.(53,126):_ZN11stlpmtx_std12basic_stringIcNS_11char_traitsIcEENS_9allocatorIcEEE2atEm;2A.;operator+=::(53,105):_ZN11stlpmtx_std12basic_stringIcNS_11char_traitsIcEENS_9allocatorIcEEEpLERKS5_;2A.(53,107):_ZN11stlpmtx_std12basic_stringIcNS_11char_traitsIcEENS_9allocatorIcEEEpLEPKc;2A.(53,108):_ZN11stlpmtx_std12basic_stringIcNS_11char_traitsIcEENS_9allocatorIcEEEpLEc;2A.;_M_append::(53,127)=#(54,2),(53,106),(53,94),(13,88),(13,88),(0,6);:_ZN11stlpmtx_std12basic_stringIcNS_11char_traitsIcEENS_9allocatorIcEEE9_M_appendEPKcS7_;0A.;append::(53,105):_ZN11stlpmtx_std12basic_stringIcNS_11char_traitsIcEENS_9allocatorIcEEE6appendERKS5_;2A.(53,128)=#(54,2),(53,106),(53,94),(53,97),(0,16),(0,16),(0,6);:_ZN11stlpmtx_std12basic_stringIcNS_11char_traitsIcEENS_9allocatorIcEEE6appendERKS5_mm;2A.(53,129)=#(54,2),(53,106),(53,94),(13,88),(0,16),(0,6);:_ZN11stlpmtx_std12basic_stringIcNS_11char_traitsIcEENS_9allocatorIcEEE6appendEPKcm;2A.(53,107):_ZN11stlpmtx_std12basic_stringIcNS_11char_traitsIcEENS_9allocatorIcEEE6appendEPKc;2A.(53,130)=#(54,2),(53,106),(53,94),(0,16),(0,19),(0,6);:_ZN11stlpmtx_std12basic_stringIcNS_11char_traitsIcEENS_9allocatorIcEEE6appendEmc;2A.;push_back::(53,131)=#(54,2),(0,6),(53,94),(0,19),(0,6);:_ZN11stlpmtx_std12basic_stringIcNS_11char_traitsIcEENS_9allocatorIcEEE9push_backEc;2A.;pop_back::(53,111):_ZN11stlpmtx_std12basic_stringIcNS_11char_traitsIcEENS_9allocatorIcEEE8pop_backEv;2A.;assign::(53,105):_ZN11stlpmtx_std12basic_stringIcNS_11char_traitsIcEENS_9allocatorIcEEE6assignERKS5_;2A.(53,128):_ZN11stlpmtx_std12basic_stringIcNS_11char_traitsIcEENS_9allocatorIcEEE6assignERKS5_mm;2A.(53,129):_ZN11stlpmtx_std12basic_stringIcNS_11char_traitsIcEENS_9allocatorIcEEE6assignEPKcm;2A.(53,107):_ZN11stlpmtx_std12basic_stringIcNS_11char_traitsIcEENS_9allocatorIcEEE6assignEPKc;2A.(53,130):_ZN11stlpmtx_std12basic_stringIcNS_11char_traitsIcEENS_9allocatorIcEEE6assignEmc;2A.;_M_assign::(53,127):_ZN11stlpmtx_std12basic_stringIcNS_11char_traitsIcEENS_9allocatorIcEEE9_M_assignEPKcS7_;0A.;insert::(53,132)=#(54,2),(53,106),(53,94),(0,16),(53,97),(0,6);:_ZN11stlpmtx_std12basic_stringIcNS_11char_traitsIcEENS_9allocatorIcEEE6insertEmRKS5_;2A.(53,133)=#(54,2),(53,106),(53,94),(0,16),(53,97),(0,16),(0,16),(0,6);:_ZN11stlpmtx_std12basic_stringIcNS_11char_traitsIcEENS_9allocatorIcEEE6insertEmRKS5_mm;2A.(53,134)=#(54,2),(53,106),(53,94),(0,16),(13,88),(0,16),(0,6);:_ZN11stlpmtx_std12basic_stringIcNS_11char_traitsIcEENS_9allocatorIcEEE6insertEmPKcm;2A.(53,135)=#(54,2),(53,106),(53,94),(0,16),(13,88),(0,6);:_ZN11stlpmtx_std12basic_stringIcNS_11char_traitsIcEENS_9allocatorIcEEE6insertEmPKc;2A.(53,136)=#(54,2),(53,106),(53,94),(0,16),(0,16),(0,19),(0,6);:_ZN11stlpmtx_std12basic_stringIcNS_11char_traitsIcEENS_9allocatorIcEEE6insertEmmc;2A.(53,137)=#(54,2),(13,93),(53,94),(13,93),(0,19),(0,6);:_ZN11stlpmtx_std12basic_stringIcNS_11char_traitsIcEENS_9allocatorIcEEE6insertEPcc;2A.(53,138)=#(54,2),(0,6),(53,94),(13,93),(0,16),(0,19),(0,6);:_ZN11stlpmtx_std12basic_stringIcNS_11char_traitsIcEENS_9allocatorIcEEE6insertEPcmc;2A.;_M_insert::(53,139)=#(54,2),(0,6),(53,94),(13,93),(13,88),(13,88),(0,4),(0,6);:_ZN11stlpmtx_std12basic_stringIcNS_11char_traitsIcEENS_9allocatorIcEEE9_M_insertEPcPKcS8_b;0A.;_M_insert_aux::(53,137):_ZN11stlpmtx_std12basic_stringIcNS_11char_traitsIcEENS_9allocatorIcEEE13_M_insert_auxEPcc;0A.;_M_copy::(53,140)=#(54,2),(0,6),(53,94),(13,88),(13,88),(13,93),(0,6);:_ZN11stlpmtx_std12basic_stringIcNS_11char_traitsIcEENS_9allocatorIcEEE7_M_copyEPKcS7_Pc;0A.;_M_move::(53,140):_ZN11stlpmtx_std12basic_stringIcNS_11char_traitsIcEENS_9allocatorIcEEE7_M_moveEPKcS7_Pc;0A.;_M_copyT::(53,140):_ZN11stlpmtx_std12basic_stringIcNS_11char_traitsIcEENS_9allocatorIcEEE8_M_copyTEPKcS7_Pc;0A.;insert::(53,141)=#(54,2),(0,6),(53,94),(13,93),(13,88),(13,88),(0,6);:_ZN11stlpmtx_std12basic_stringIcNS_11char_traitsIcEENS_9allocatorIcEEE6insertEPcPKcS8_;2A.;erase::(53,142)=#(54,2),(53,106),(53,94),(0,16),(0,16),(0,6);:_ZN11stlpmtx_std12basic_stringIcNS_11char_traitsIcEENS_9allocatorIcEEE5eraseEmm;2A.(53,143)=#(54,2),(13,93),(53,94),(13,93),(0,6);:_ZN11stlpmtx_std12basic_stringIcNS_11char_traitsIcEENS_9allocatorIcEEE5eraseEPc;2A.(53,144)=#(54,2),(13,93),(53,94),(13,93),(13,93),(0,6);:_ZN11stlpmtx_std12basic_stringIcNS_11char_traitsIcEENS_9allocatorIcEEE5eraseEPcS6_;2A.;replace::(53,145)=#(54,2),(53,106),(53,94),(0,16),(0,16),(53,97),(0,6);:_ZN11stlpmtx_std12basic_stringIcNS_11char_traitsIcEENS_9allocatorIcEEE7replaceEmmRKS5_;2A.(53,146)=#(54,2),(53,106),(53,94),(0,16),(0,16),(53,97),(0,16),(0,16),(0,6);:_ZN11stlpmtx_std12basic_stringIcNS_11char_traitsIcEENS_9allocatorIcEEE7replaceEmmRKS5_mm;2A.(53,147)=#(54,2),(53,106),(53,94),(0,16),(0,16),(13,88),(0,16),(0,6);:_ZN11stlpmtx_std12basic_stringIcNS_11char_traitsIcEENS_9allocatorIcEEE7replaceEmmPKcm;2A.(53,148)=#(54,2),(53,106),(53,94),(0,16),(0,16),(13,88),(0,6);:_ZN11stlpmtx_std12basic_stringIcNS_11char_traitsIcEENS_9allocatorIcEEE7replaceEmmPKc;2A.(53,149)=#(54,2),(53,106),(53,94),(0,16),(0,16),(0,16),(0,19),(0,6);:_ZN11stlpmtx_std12basic_stringIcNS_11char_traitsIcEENS_9allocatorIcEEE7replaceEmmmc;2A.(53,150)=#(54,2),(53,106),(53,94),(13,93),(13,93),(53,97),(0,6);:_ZN11stlpmtx_std12basic_stringIcNS_11char_traitsIcEENS_9allocatorIcEEE7replaceEPcS6_RKS5_;2A.(53,151)=#(54,2),(53,106),(53,94),(13,93),(13,93),(13,88),(0,16),(0,6);:_ZN11stlpmtx_std12basic_stringIcNS_11char_traitsIcEENS_9allocatorIcEEE7replaceEPcS6_PKcm;2A.(53,152)=#(54,2),(53,106),(53,94),(13,93),(13,93),(13,88),(0,6);:_ZN11stlpmtx_std12basic_stringIcNS_11char_traitsIcEENS_9allocatorIcEEE7replaceEPcS6_PKc;2A.(53,153)=#(54,2),(53,106),(53,94),(13,93),(13,93),(0,16),(0,19),(0,6);:_ZN11stlpmtx_std12basic_stringIcNS_11char_traitsIcEENS_9allocatorIcEEE7replaceEPcS6_mc;2A.;_M_replace::(53,154)=#(54,2),(53,106),(53,94),(13,93),(13,93),(13,88),(13,88),(0,4),(0,6);:_ZN11stlpmtx_std12basic_stringIcNS_11char_traitsIcEENS_9allocatorIcEEE10_M_replaceEPcS6_PKcS8_b;0A.;replace::(53,155)=#(54,2),(53,106),(53,94),(13,93),(13,93),(13,88),(13,88),(0,6);:_ZN11stlpmtx_std12basic_stringIcNS_11char_traitsIcEENS_9allocatorIcEEE7replaceEPcS6_PKcS8_;2A.;copy::(53,156)=#(54,2),(19,2),(53,91),(13,93),(0,16),(0,16),(0,6);:_ZNK11stlpmtx_std12basic_stringIcNS_11char_traitsIcEENS_9allocatorIcEEE4copyEPcmm;2B.;swap::(53,157)=#(54,2),(0,6),(53,94),(53,106),(0,6);:_ZN11stlpmtx_std12basic_stringIcNS_11char_traitsIcEENS_9allocatorIcEEE4swapERS5_;2A.;c_str::(53,115):_ZNK11stlpmtx_std12basic_stringIcNS_11char_traitsIcEENS_9allocatorIcEEE5c_strEv;2B.;data::(53,115):_ZNK11stlpmtx_std12basic_stringIcNS_11char_traitsIcEENS_9allocatorIcEEE4dataEv;2B.;find::(53,158)=#(54,2),(19,2),(53,91),(53,97),(0,16),(0,6);:_ZNK11stlpmtx_std12basic_stringIcNS_11char_traitsIcEENS_9allocatorIcEEE4findERKS5_m;2B.(53,159)=#(54,2),(19,2),(53,91),(13,88),(0,16),(0,6);:_ZNK11stlpmtx_std12basic_stringIcNS_11char_traitsIcEENS_9allocatorIcEEE4findEPKcm;2B.(53,160)=#(54,2),(19,2),(53,91),(13,88),(0,16),(0,16),(0,6);:_ZNK11stlpmtx_std12basic_stringIcNS_11char_traitsIcEENS_9allocatorIcEEE4findEPKcmm;2B.(53,161)=#(54,2),(19,2),(53,91),(0,19),(0,6);:_ZNK11stlpmtx_std12basic_stringIcNS_11char_traitsIcEENS_9allocatorIcEEE4findEc;2B.(53,162)=#(54,2),(19,2),(53,91),(0,19),(0,16),(0,6);:_ZNK11stlpmtx_std12basic_stringIcNS_11char_traitsIcEENS_9allocatorIcEEE4findEcm;2B.;rfind::(53,163)=#(54,2),(19,2),(53,91),(53,97),(0,16),(0,6);:_ZNK11stlpmtx_std12basic_stringIcNS_11char_traitsIcEENS_9allocatorIcEEE5rfindERKS5_m;2B.(53,164)=#(54,2),(19,2),(53,91),(13,88),(0,16),(0,6);:_ZNK11stlpmtx_std12basic_stringIcNS_11char_traitsIcEENS_9allocatorIcEEE5rfindEPKcm;2B.(53,160):_ZNK11stlpmtx_std12basic_stringIcNS_11char_traitsIcEENS_9allocatorIcEEE5rfindEPKcmm;2B.(53,165)=#(54,2),(19,2),(53,91),(0,19),(0,16),(0,6);:_ZNK11stlpmtx_std12basic_stringIcNS_11char_traitsIcEENS_9allocatorIcEEE5rfindEcm;2B.;find_first_of::(53,158):_ZNK11stlpmtx_std12basic_stringIcNS_11char_traitsIcEENS_9allocatorIcEEE13find_first_ofERKS5_m;2B.(53,159):_ZNK11stlpmtx_std12basic_stringIcNS_11char_traitsIcEENS_9allocatorIcEEE13find_first_ofEPKcm;2B.(53,160):_ZNK11stlpmtx_std12basic_stringIcNS_11char_traitsIcEENS_9allocatorIcEEE13find_first_ofEPKcmm;2B.(53,166)=#(54,2),(19,2),(53,91),(0,19),(0,16),(0,6);:_ZNK11stlpmtx_std12basic_stringIcNS_11char_traitsIcEENS_9allocatorIcEEE13find_first_ofEcm;2B.;find_last_of::(53,163):_ZNK11stlpmtx_std12basic_stringIcNS_11char_traitsIcEENS_9allocatorIcEEE12find_last_ofERKS5_m;2B.(53,164):_ZNK11stlpmtx_std12basic_stringIcNS_11char_traitsIcEENS_9allocatorIcEEE12find_last_ofEPKcm;2B.(53,160):_ZNK11stlpmtx_std12basic_stringIcNS_11char_traitsIcEENS_9allocatorIcEEE12find_last_ofEPKcmm;2B.(53,165):_ZNK11stlpmtx_std12basic_stringIcNS_11char_traitsIcEENS_9allocatorIcEEE12find_last_ofEcm;2B.;find_first_not_of::(53,158):_ZNK11stlpmtx_std12basic_stringIcNS_11char_traitsIcEENS_9allocatorIcEEE17find_first_not_ofERKS5_m;2B.(53,159):_ZNK11stlpmtx_std12basic_stringIcNS_11char_traitsIcEENS_9allocatorIcEEE17find_first_not_ofEPKcm;2B.(53,160):_ZNK11stlpmtx_std12basic_stringIcNS_11char_traitsIcEENS_9allocatorIcEEE17find_first_not_ofEPKcmm;2B.(53,166):_ZNK11stlpmtx_std12basic_stringIcNS_11char_traitsIcEENS_9allocatorIcEEE17find_first_not_ofEcm;2B.;find_last_not_of::(53,163):_ZNK11stlpmtx_std12basic_stringIcNS_11char_traitsIcEENS_9allocatorIcEEE16find_last_not_ofERKS5_m;2B.(53,164):_ZNK11stlpmtx_std12basic_stringIcNS_11char_traitsIcEENS_9allocatorIcEEE16find_last_not_ofEPKcm;2B.(53,160):_ZNK11stlpmtx_std12basic_stringIcNS_11char_traitsIcEENS_9allocatorIcEEE16find_last_not_ofEPKcmm;2B.(53,165):_ZNK11stlpmtx_std12basic_stringIcNS_11char_traitsIcEENS_9allocatorIcEEE16find_last_not_ofEcm;2B.;substr::(53,167)=#(54,2),(54,2),(53,91),(0,16),(0,16),(0,6);:_ZNK11stlpmtx_std12basic_stringIcNS_11char_traitsIcEENS_9allocatorIcEEE6substrEmm;2B.;compare::(53,168)=#(54,2),(0,3),(53,91),(53,97),(0,6);:_ZNK11stlpmtx_std12basic_stringIcNS_11char_traitsIcEENS_9allocatorIcEEE7compareERKS5_;2B.(53,169)=#(54,2),(0,3),(53,91),(0,16),(0,16),(53,97),(0,6);:_ZNK11stlpmtx_std12basic_stringIcNS_11char_traitsIcEENS_9allocatorIcEEE7compareEmmRKS5_;2B.(53,170)=#(54,2),(0,3),(53,91),(0,16),(0,16),(53,97),(0,16),(0,16),(0,6);:_ZNK11stlpmtx_std12basic_stringIcNS_11char_traitsIcEENS_9allocatorIcEEE7compareEmmRKS5_mm;2B.(53,171)=#(54,2),(0,3),(53,91),(13,88),(0,6);:_ZNK11stlpmtx_std12basic_stringIcNS_11char_traitsIcEENS_9allocatorIcEEE7compareEPKc;2B.(53,172)=#(54,2),(0,3),(53,91),(0,16),(0,16),(13,88),(0,6);:_ZNK11stlpmtx_std12basic_stringIcNS_11char_traitsIcEENS_9allocatorIcEEE7compareEmmPKc;2B.(53,173)=#(54,2),(0,3),(53,91),(0,16),(0,16),(13,88),(0,16),(0,6);:_ZNK11stlpmtx_std12basic_stringIcNS_11char_traitsIcEENS_9allocatorIcEEE7compareEmmPKcm;2B.;_M_compare::(53,174)=f(0,3):_ZN11stlpmtx_std12basic_stringIcNS_11char_traitsIcEENS_9allocatorIcEEE10_M_compareEPKcS7_S7_S7_;2A?;__base_dtor::(53,111):_ZN11stlpmtx_std12basic_stringIcNS_11char_traitsIcEENS_9allocatorIcEEED2Ev;2A.;__comp_dtor::(53,111):_ZN11stlpmtx_std12basic_stringIcNS_11char_traitsIcEENS_9allocatorIcEEED1Ev;2A.;;",128,0,32,0
	.stabs	"/Applications/MoSync/include/newlib/stlport/stl/_string.c",130,0,0,0
	.stabs	"/Applications/MoSync/include/newlib/stlport/stl/_function.h",130,0,0,0
	.stabs	"unary_function<long unsigned int,long unsigned int>:Tt(60,1)=s1__base_dtor::(60,2)=#(60,1),(0,6),(60,3)=*(60,1),(0,6);:_ZN11stlpmtx_std14unary_functionImmED2Ev;1A.;__comp_dtor::(60,2):_ZN11stlpmtx_std14unary_functionImmED1Ev;1A.;operator=::(60,4)=#(60,1),(60,5)=&(60,1),(60,3),(60,6)=&(60,7)=k(60,1),(0,6);:_ZN11stlpmtx_std14unary_functionImmEaSERKS1_;2A.;__base_ctor::(60,8)=#(60,1),(0,6),(60,3),(60,6),(0,6);:_ZN11stlpmtx_std14unary_functionImmEC2ERKS1_;2A.;__comp_ctor::(60,8):_ZN11stlpmtx_std14unary_functionImmEC1ERKS1_;2A.;__base_ctor::(60,9)=#(60,1),(0,6),(60,3),(0,6);:_ZN11stlpmtx_std14unary_functionImmEC2Ev;2A.;__comp_ctor::(60,9):_ZN11stlpmtx_std14unary_functionImmEC1Ev;2A.;;",128,0,40,0
	.stabs	"subtractive_rng:Tt(60,10)=s228!1,020,(60,1);_M_table:/0(60,11)=ar(14,11);0;54;(0,16),0,1760;_M_index1:/0(0,16),1760,32;_M_index2:/0(0,16),1792,32;operator()::(60,12)=#(60,10),(0,16),(60,13)=*(60,10),(0,16),(0,6);:_ZN11stlpmtx_std15subtractive_rngclEm;2A.;_M_initialize::(60,14)=#(60,10),(0,6),(60,13),(0,16),(0,6);:_ZN11stlpmtx_std15subtractive_rng13_M_initializeEm;2A.;__base_ctor::(60,15)=#(60,10),(0,6),(60,13),(0,17),(0,6);:_ZN11stlpmtx_std15subtractive_rngC2Ej;2A.;__comp_ctor::(60,15):_ZN11stlpmtx_std15subtractive_rngC1Ej;2A.;__base_ctor::(60,16)=#(60,10),(0,6),(60,13),(0,6);:_ZN11stlpmtx_std15subtractive_rngC2Ev;2A.;__comp_ctor::(60,16):_ZN11stlpmtx_std15subtractive_rngC1Ev;2A.;operator=::(60,17)=#(60,10),(60,18)=&(60,10),(60,13),(60,19)=&(60,20)=k(60,10),(0,6);:_ZN11stlpmtx_std15subtractive_rngaSERKS0_;2A.;__base_ctor::(60,21)=#(60,10),(0,6),(60,13),(60,19),(0,6);:_ZN11stlpmtx_std15subtractive_rngC2ERKS0_;2A.;__comp_ctor::(60,21):_ZN11stlpmtx_std15subtractive_rngC1ERKS0_;2A.;__base_dtor::(60,16):_ZN11stlpmtx_std15subtractive_rngD2Ev;2A.;__comp_dtor::(60,16):_ZN11stlpmtx_std15subtractive_rngD1Ev;2A.;;",128,0,388,0
	.stabn	162,0,0,0
	.stabn	162,0,0,0
	.stabn	162,0,0,0
	.stabs	"/Applications/MoSync/include/newlib/stlport/stl/_string_hash.h",130,0,0,0
	.stabs	"/Applications/MoSync/include/newlib/stlport/stl/_hash_fun.h",130,0,0,0
	.stabs	"hash<char*>:Tt(62,1)=s1operator()::(62,2)=#(62,1),(19,2),(62,3)=*(62,4)=k(62,1),(13,88),(0,6);:_ZNK11stlpmtx_std4hashIPcEclEPKc;2B.;operator=::(62,5)=#(62,1),(62,6)=&(62,1),(62,7)=*(62,1),(62,8)=&(62,4),(0,6);:_ZN11stlpmtx_std4hashIPcEaSERKS2_;2A.;__base_ctor::(62,9)=#(62,1),(0,6),(62,7),(62,8),(0,6);:_ZN11stlpmtx_std4hashIPcEC2ERKS2_;2A.;__comp_ctor::(62,9):_ZN11stlpmtx_std4hashIPcEC1ERKS2_;2A.;__base_ctor::(62,10)=#(62,1),(0,6),(62,7),(0,6);:_ZN11stlpmtx_std4hashIPcEC2Ev;2A.;__comp_ctor::(62,10):_ZN11stlpmtx_std4hashIPcEC1Ev;2A.;;",128,0,56,0
	.stabs	"hash<const char*>:Tt(62,11)=s1operator()::(62,12)=#(62,11),(19,2),(62,13)=*(62,14)=k(62,11),(13,88),(0,6);:_ZNK11stlpmtx_std4hashIPKcEclES2_;2B.;operator=::(62,15)=#(62,11),(62,16)=&(62,11),(62,17)=*(62,11),(62,18)=&(62,14),(0,6);:_ZN11stlpmtx_std4hashIPKcEaSERKS3_;2A.;__base_ctor::(62,19)=#(62,11),(0,6),(62,17),(62,18),(0,6);:_ZN11stlpmtx_std4hashIPKcEC2ERKS3_;2A.;__comp_ctor::(62,19):_ZN11stlpmtx_std4hashIPKcEC1ERKS3_;2A.;__base_ctor::(62,20)=#(62,11),(0,6),(62,17),(0,6);:_ZN11stlpmtx_std4hashIPKcEC2Ev;2A.;__comp_ctor::(62,20):_ZN11stlpmtx_std4hashIPKcEC1Ev;2A.;;",128,0,64,0
	.stabs	"hash<char>:Tt(62,21)=s1operator()::(62,22)=#(62,21),(19,2),(62,23)=*(62,24)=k(62,21),(0,19),(0,6);:_ZNK11stlpmtx_std4hashIcEclEc;2B.;operator=::(62,25)=#(62,21),(62,26)=&(62,21),(62,27)=*(62,21),(62,28)=&(62,24),(0,6);:_ZN11stlpmtx_std4hashIcEaSERKS1_;2A.;__base_ctor::(62,29)=#(62,21),(0,6),(62,27),(62,28),(0,6);:_ZN11stlpmtx_std4hashIcEC2ERKS1_;2A.;__comp_ctor::(62,29):_ZN11stlpmtx_std4hashIcEC1ERKS1_;2A.;__base_ctor::(62,30)=#(62,21),(0,6),(62,27),(0,6);:_ZN11stlpmtx_std4hashIcEC2Ev;2A.;__comp_ctor::(62,30):_ZN11stlpmtx_std4hashIcEC1Ev;2A.;;",128,0,71,0
	.stabs	"hash<unsigned char>:Tt(62,31)=s1operator()::(62,32)=#(62,31),(19,2),(62,33)=*(62,34)=k(62,31),(0,10),(0,6);:_ZNK11stlpmtx_std4hashIhEclEh;2B.;operator=::(62,35)=#(62,31),(62,36)=&(62,31),(62,37)=*(62,31),(62,38)=&(62,34),(0,6);:_ZN11stlpmtx_std4hashIhEaSERKS1_;2A.;__base_ctor::(62,39)=#(62,31),(0,6),(62,37),(62,38),(0,6);:_ZN11stlpmtx_std4hashIhEC2ERKS1_;2A.;__comp_ctor::(62,39):_ZN11stlpmtx_std4hashIhEC1ERKS1_;2A.;__base_ctor::(62,40)=#(62,31),(0,6),(62,37),(0,6);:_ZN11stlpmtx_std4hashIhEC2Ev;2A.;__comp_ctor::(62,40):_ZN11stlpmtx_std4hashIhEC1Ev;2A.;;",128,0,74,0
	.stabs	"hash<signed char>:Tt(62,41)=s1operator()::(62,42)=#(62,41),(19,2),(62,43)=*(62,44)=k(62,41),(0,10),(0,6);:_ZNK11stlpmtx_std4hashIaEclEh;2B.;operator=::(62,45)=#(62,41),(62,46)=&(62,41),(62,47)=*(62,41),(62,48)=&(62,44),(0,6);:_ZN11stlpmtx_std4hashIaEaSERKS1_;2A.;__base_ctor::(62,49)=#(62,41),(0,6),(62,47),(62,48),(0,6);:_ZN11stlpmtx_std4hashIaEC2ERKS1_;2A.;__comp_ctor::(62,49):_ZN11stlpmtx_std4hashIaEC1ERKS1_;2A.;__base_ctor::(62,50)=#(62,41),(0,6),(62,47),(0,6);:_ZN11stlpmtx_std4hashIaEC2Ev;2A.;__comp_ctor::(62,50):_ZN11stlpmtx_std4hashIaEC1Ev;2A.;;",128,0,78,0
	.stabs	"hash<short int>:Tt(62,51)=s1operator()::(62,52)=#(62,51),(19,2),(62,53)=*(62,54)=k(62,51),(0,13),(0,6);:_ZNK11stlpmtx_std4hashIsEclEs;2B.;operator=::(62,55)=#(62,51),(62,56)=&(62,51),(62,57)=*(62,51),(62,58)=&(62,54),(0,6);:_ZN11stlpmtx_std4hashIsEaSERKS1_;2A.;__base_ctor::(62,59)=#(62,51),(0,6),(62,57),(62,58),(0,6);:_ZN11stlpmtx_std4hashIsEC2ERKS1_;2A.;__comp_ctor::(62,59):_ZN11stlpmtx_std4hashIsEC1ERKS1_;2A.;__base_ctor::(62,60)=#(62,51),(0,6),(62,57),(0,6);:_ZN11stlpmtx_std4hashIsEC2Ev;2A.;__comp_ctor::(62,60):_ZN11stlpmtx_std4hashIsEC1Ev;2A.;;",128,0,82,0
	.stabs	"hash<short unsigned int>:Tt(62,61)=s1operator()::(62,62)=#(62,61),(19,2),(62,63)=*(62,64)=k(62,61),(0,12),(0,6);:_ZNK11stlpmtx_std4hashItEclEt;2B.;operator=::(62,65)=#(62,61),(62,66)=&(62,61),(62,67)=*(62,61),(62,68)=&(62,64),(0,6);:_ZN11stlpmtx_std4hashItEaSERKS1_;2A.;__base_ctor::(62,69)=#(62,61),(0,6),(62,67),(62,68),(0,6);:_ZN11stlpmtx_std4hashItEC2ERKS1_;2A.;__comp_ctor::(62,69):_ZN11stlpmtx_std4hashItEC1ERKS1_;2A.;__base_ctor::(62,70)=#(62,61),(0,6),(62,67),(0,6);:_ZN11stlpmtx_std4hashItEC2Ev;2A.;__comp_ctor::(62,70):_ZN11stlpmtx_std4hashItEC1Ev;2A.;;",128,0,85,0
	.stabs	"hash<int>:Tt(62,71)=s1operator()::(62,72)=#(62,71),(19,2),(62,73)=*(62,74)=k(62,71),(0,3),(0,6);:_ZNK11stlpmtx_std4hashIiEclEi;2B.;operator=::(62,75)=#(62,71),(62,76)=&(62,71),(62,77)=*(62,71),(62,78)=&(62,74),(0,6);:_ZN11stlpmtx_std4hashIiEaSERKS1_;2A.;__base_ctor::(62,79)=#(62,71),(0,6),(62,77),(62,78),(0,6);:_ZN11stlpmtx_std4hashIiEC2ERKS1_;2A.;__comp_ctor::(62,79):_ZN11stlpmtx_std4hashIiEC1ERKS1_;2A.;__base_ctor::(62,80)=#(62,71),(0,6),(62,77),(0,6);:_ZN11stlpmtx_std4hashIiEC2Ev;2A.;__comp_ctor::(62,80):_ZN11stlpmtx_std4hashIiEC1Ev;2A.;;",128,0,88,0
	.stabs	"hash<unsigned int>:Tt(62,81)=s1operator()::(62,82)=#(62,81),(19,2),(62,83)=*(62,84)=k(62,81),(0,17),(0,6);:_ZNK11stlpmtx_std4hashIjEclEj;2B.;operator=::(62,85)=#(62,81),(62,86)=&(62,81),(62,87)=*(62,81),(62,88)=&(62,84),(0,6);:_ZN11stlpmtx_std4hashIjEaSERKS1_;2A.;__base_ctor::(62,89)=#(62,81),(0,6),(62,87),(62,88),(0,6);:_ZN11stlpmtx_std4hashIjEC2ERKS1_;2A.;__comp_ctor::(62,89):_ZN11stlpmtx_std4hashIjEC1ERKS1_;2A.;__base_ctor::(62,90)=#(62,81),(0,6),(62,87),(0,6);:_ZN11stlpmtx_std4hashIjEC2Ev;2A.;__comp_ctor::(62,90):_ZN11stlpmtx_std4hashIjEC1Ev;2A.;;",128,0,93,0
	.stabs	"hash<long int>:Tt(62,91)=s1operator()::(62,92)=#(62,91),(19,2),(62,93)=*(62,94)=k(62,91),(0,18),(0,6);:_ZNK11stlpmtx_std4hashIlEclEl;2B.;operator=::(62,95)=#(62,91),(62,96)=&(62,91),(62,97)=*(62,91),(62,98)=&(62,94),(0,6);:_ZN11stlpmtx_std4hashIlEaSERKS1_;2A.;__base_ctor::(62,99)=#(62,91),(0,6),(62,97),(62,98),(0,6);:_ZN11stlpmtx_std4hashIlEC2ERKS1_;2A.;__comp_ctor::(62,99):_ZN11stlpmtx_std4hashIlEC1ERKS1_;2A.;__base_ctor::(62,100)=#(62,91),(0,6),(62,97),(0,6);:_ZN11stlpmtx_std4hashIlEC2Ev;2A.;__comp_ctor::(62,100):_ZN11stlpmtx_std4hashIlEC1Ev;2A.;;",128,0,108,0
	.stabs	"hash<long unsigned int>:Tt(62,101)=s1operator()::(62,102)=#(62,101),(19,2),(62,103)=*(62,104)=k(62,101),(0,16),(0,6);:_ZNK11stlpmtx_std4hashImEclEm;2B.;operator=::(62,105)=#(62,101),(62,106)=&(62,101),(62,107)=*(62,101),(62,108)=&(62,104),(0,6);:_ZN11stlpmtx_std4hashImEaSERKS1_;2A.;__base_ctor::(62,109)=#(62,101),(0,6),(62,107),(62,108),(0,6);:_ZN11stlpmtx_std4hashImEC2ERKS1_;2A.;__comp_ctor::(62,109):_ZN11stlpmtx_std4hashImEC1ERKS1_;2A.;__base_ctor::(62,110)=#(62,101),(0,6),(62,107),(0,6);:_ZN11stlpmtx_std4hashImEC2Ev;2A.;__comp_ctor::(62,110):_ZN11stlpmtx_std4hashImEC1Ev;2A.;;",128,0,111,0
	.stabs	"hash<long long int>:Tt(62,111)=s1operator()::(62,112)=#(62,111),(19,2),(62,113)=*(62,114)=k(62,111),(0,15),(0,6);:_ZNK11stlpmtx_std4hashIxEclEx;2B.;operator=::(62,115)=#(62,111),(62,116)=&(62,111),(62,117)=*(62,111),(62,118)=&(62,114),(0,6);:_ZN11stlpmtx_std4hashIxEaSERKS1_;2A.;__base_ctor::(62,119)=#(62,111),(0,6),(62,117),(62,118),(0,6);:_ZN11stlpmtx_std4hashIxEC2ERKS1_;2A.;__comp_ctor::(62,119):_ZN11stlpmtx_std4hashIxEC1ERKS1_;2A.;__base_ctor::(62,120)=#(62,111),(0,6),(62,117),(0,6);:_ZN11stlpmtx_std4hashIxEC2Ev;2A.;__comp_ctor::(62,120):_ZN11stlpmtx_std4hashIxEC1Ev;2A.;;",128,0,116,0
	.stabs	"hash<long long unsigned int>:Tt(62,121)=s1operator()::(62,122)=#(62,121),(19,2),(62,123)=*(62,124)=k(62,121),(0,14),(0,6);:_ZNK11stlpmtx_std4hashIyEclEy;2B.;operator=::(62,125)=#(62,121),(62,126)=&(62,121),(62,127)=*(62,121),(62,128)=&(62,124),(0,6);:_ZN11stlpmtx_std4hashIyEaSERKS1_;2A.;__base_ctor::(62,129)=#(62,121),(0,6),(62,127),(62,128),(0,6);:_ZN11stlpmtx_std4hashIyEC2ERKS1_;2A.;__comp_ctor::(62,129):_ZN11stlpmtx_std4hashIyEC1ERKS1_;2A.;__base_ctor::(62,130)=#(62,121),(0,6),(62,127),(0,6);:_ZN11stlpmtx_std4hashIyEC2Ev;2A.;__comp_ctor::(62,130):_ZN11stlpmtx_std4hashIyEC1Ev;2A.;;",128,0,119,0
	.stabs	"hash<void*>::__vp:Tt(62,131)=u4s:(19,2),0,32;p:(14,28),0,32;operator=::(62,132)=#(62,131),(62,133)=&(62,131),(62,134)=*(62,131),(62,135)=&(62,136)=k(62,131),(0,6);:_ZN11stlpmtx_std4hashIPvE4__vpaSERKS3_;2A.;__base_ctor::(62,137)=#(62,131),(0,6),(62,134),(62,135),(0,6);:_ZN11stlpmtx_std4hashIPvE4__vpC2ERKS3_;2A.;__comp_ctor::(62,137):_ZN11stlpmtx_std4hashIPvE4__vpC1ERKS3_;2A.;__base_ctor::(62,138)=#(62,131),(0,6),(62,134),(0,6);:_ZN11stlpmtx_std4hashIPvE4__vpC2Ev;2A.;__comp_ctor::(62,138):_ZN11stlpmtx_std4hashIPvE4__vpC1Ev;2A.;;",128,0,127,0
	.stabs	"hash<void*>:Tt(62,139)=s1operator()::(62,140)=#(62,139),(19,2),(62,141)=*(62,142)=k(62,139),(14,28),(0,6);:_ZNK11stlpmtx_std4hashIPvEclES1_;2B.;operator=::(62,143)=#(62,139),(62,144)=&(62,139),(62,145)=*(62,139),(62,146)=&(62,142),(0,6);:_ZN11stlpmtx_std4hashIPvEaSERKS2_;2A.;__base_ctor::(62,147)=#(62,139),(0,6),(62,145),(62,146),(0,6);:_ZN11stlpmtx_std4hashIPvEC2ERKS2_;2A.;__comp_ctor::(62,147):_ZN11stlpmtx_std4hashIPvEC1ERKS2_;2A.;__base_ctor::(62,148)=#(62,139),(0,6),(62,145),(0,6);:_ZN11stlpmtx_std4hashIPvEC2Ev;2A.;__comp_ctor::(62,148):_ZN11stlpmtx_std4hashIPvEC1Ev;2A.;;",128,0,126,0
	.stabn	162,0,0,0
	.stabn	162,0,0,0
	.stabn	162,0,0,0
	.stabs	"/Applications/MoSync/include/newlib/stlport/ctime",130,0,0,0
	.stabs	"/Applications/MoSync/include/newlib/stlport/stl/_ctime.h",130,0,0,0
	.stabs	"/Applications/MoSync/include/newlib/stlport/time.h",130,0,0,0
	.stabs	"/Applications/MoSync/include/newlib/stlport/../time.h",130,0,0,0
	.stabs	"tm:Tt(66,1)=s36tm_sec:(0,3),0,32;tm_min:(0,3),32,32;tm_hour:(0,3),64,32;tm_mday:(0,3),96,32;tm_mon:(0,3),128,32;tm_year:(0,3),160,32;tm_wday:(0,3),192,32;tm_yday:(0,3),224,32;tm_isdst:(0,3),256,32;operator=::(66,2)=#(66,1),(66,3)=&(66,1),(66,4)=*(66,1),(66,5)=&(66,6)=k(66,1),(0,6);:_ZN2tmaSERKS_;2A.;__base_ctor::(66,7)=#(66,1),(0,6),(66,4),(66,5),(0,6);:_ZN2tmC2ERKS_;2A.;__comp_ctor::(66,7):_ZN2tmC1ERKS_;2A.;__base_ctor::(66,8)=#(66,1),(0,6),(66,4),(0,6);:_ZN2tmC2Ev;2A.;__comp_ctor::(66,8):_ZN2tmC1Ev;2A.;;",128,0,34,0
	.stabs	"__tzrule_struct:Tt(66,9)=s28ch:(0,19),0,8;m:(0,3),32,32;n:(0,3),64,32;d:(0,3),96,32;s:(0,3),128,32;change:(30,16),160,32;offset:(0,18),192,32;operator=::(66,10)=#(66,9),(66,11)=&(66,9),(66,12)=*(66,9),(66,13)=&(66,14)=k(66,9),(0,6);:_ZN15__tzrule_structaSERKS_;2A.;__base_ctor::(66,15)=#(66,9),(0,6),(66,12),(66,13),(0,6);:_ZN15__tzrule_structC2ERKS_;2A.;__comp_ctor::(66,15):_ZN15__tzrule_structC1ERKS_;2A.;__base_ctor::(66,16)=#(66,9),(0,6),(66,12),(0,6);:_ZN15__tzrule_structC2Ev;2A.;__comp_ctor::(66,16):_ZN15__tzrule_structC1Ev;2A.;;",128,0,75,0
	.stabs	"__tzrule_type:t(66,17)=(66,9)",128,0,83,0
	.stabs	"__tzinfo_struct:Tt(66,18)=s64__tznorth:(0,3),0,32;__tzyear:(0,3),32,32;__tzrule:(66,19)=ar(14,11);0;1;(66,17),64,448;operator=::(66,20)=#(66,18),(66,21)=&(66,18),(66,22)=*(66,18),(66,23)=&(66,24)=k(66,18),(0,6);:_ZN15__tzinfo_structaSERKS_;2A.;__base_ctor::(66,25)=#(66,18),(0,6),(66,22),(66,23),(0,6);:_ZN15__tzinfo_structC2ERKS_;2A.;__comp_ctor::(66,25):_ZN15__tzinfo_structC1ERKS_;2A.;__base_ctor::(66,26)=#(66,18),(0,6),(66,22),(0,6);:_ZN15__tzinfo_structC2Ev;2A.;__comp_ctor::(66,26):_ZN15__tzinfo_structC1Ev;2A.;;",128,0,86,0
	.stabs	"__tzinfo_type:t(66,27)=(66,18)",128,0,90,0
	.stabn	162,0,0,0
	.stabn	162,0,0,0
	.stabn	162,0,0,0
	.stabn	162,0,0,0
	.stabs	"vertex:Tt(51,1)=s8x:(0,3),0,32;y:(0,3),32,32;operator=::(51,2)=#(51,1),(51,3)=&(51,1),(51,4)=*(51,1),(51,5)=&(51,6)=k(51,1),(0,6);:_ZN4Adds6vertexaSERKS0_;2A.;__base_ctor::(51,7)=#(51,1),(0,6),(51,4),(51,5),(0,6);:_ZN4Adds6vertexC2ERKS0_;2A.;__comp_ctor::(51,7):_ZN4Adds6vertexC1ERKS0_;2A.;__base_ctor::(51,8)=#(51,1),(0,6),(51,4),(0,6);:_ZN4Adds6vertexC2Ev;2A.;__comp_ctor::(51,8):_ZN4Adds6vertexC1Ev;2A.;;",128,0,27,0
	.stabs	"vertex:t(51,9)=(51,1)",128,0,27,0
	.stabn	162,0,0,0
	.stabn	162,0,0,0
	.stabs	"/Users/brzeszczot/workspace/mosync_engine2/ObjAnim.hpp",130,0,0,0
	.stabs	"/Users/brzeszczot/workspace/mosync_engine2/IObjAnim.hpp",130,0,0,0
	.stabs	"IObjAnim::s_resource:Tt(68,1)=s28anim_type:(2,1),0,64;frame_size:(2,1),64,64;res_size:(2,1),128,64;res:(0,3),192,32;operator=::(68,2)=#(68,1),(68,3)=&(68,1),(68,4)=*(68,1),(68,5)=&(68,6)=k(68,1),(0,6);:_ZN8IObjAnim10s_resourceaSERKS0_;2A.;__base_ctor::(68,7)=#(68,1),(0,6),(68,4),(68,5),(0,6);:_ZN8IObjAnim10s_resourceC2ERKS0_;2A.;__comp_ctor::(68,7):_ZN8IObjAnim10s_resourceC1ERKS0_;2A.;__base_ctor::(68,8)=#(68,1),(0,6),(68,4),(0,6);:_ZN8IObjAnim10s_resourceC2Ev;2A.;__comp_ctor::(68,8):_ZN8IObjAnim10s_resourceC1Ev;2A.;;",128,0,12,0
	.stabs	"IObjAnim::s_animparam:Tt(68,9)=s44frame:(2,1),0,64;animate:(0,4),64,8;reverse:(0,4),72,8;rev_up:(0,4),80,8;speed:(0,3),96,32;resource:(68,1),128,224;operator=::(68,10)=#(68,9),(68,11)=&(68,9),(68,12)=*(68,9),(68,13)=&(68,14)=k(68,9),(0,6);:_ZN8IObjAnim11s_animparamaSERKS0_;2A.;__base_ctor::(68,15)=#(68,9),(0,6),(68,12),(68,13),(0,6);:_ZN8IObjAnim11s_animparamC2ERKS0_;2A.;__comp_ctor::(68,15):_ZN8IObjAnim11s_animparamC1ERKS0_;2A.;__base_ctor::(68,16)=#(68,9),(0,6),(68,12),(0,6);:_ZN8IObjAnim11s_animparamC2Ev;2A.;__comp_ctor::(68,16):_ZN8IObjAnim11s_animparamC1Ev;2A.;;",128,0,19,0
	.stabn	162,0,0,0
	.stabn	162,0,0,0
	.stabs	"Object::e_objtypes:t(3,1)=eOBJMOVE:0,OBJANIM:1,;",128,0,12,0
	.stabn	162,0,0,0
	.stabs	"__stlport_class<stlpmtx_std::allocator<IObjAnim::s_resource> >:Tt(1,1)=s1operator=::(1,2)=#(1,1),(1,3)=&(1,1),(1,4)=*(1,1),(1,5)=&(1,6)=k(1,1),(0,6);:_ZN11stlpmtx_std15__stlport_classINS_9allocatorIN8IObjAnim10s_resourceEEEEaSERKS5_;2A.;__base_ctor::(1,7)=#(1,1),(0,6),(1,4),(1,5),(0,6);:_ZN11stlpmtx_std15__stlport_classINS_9allocatorIN8IObjAnim10s_resourceEEEEC2ERKS5_;2A.;__comp_ctor::(1,7):_ZN11stlpmtx_std15__stlport_classINS_9allocatorIN8IObjAnim10s_resourceEEEEC1ERKS5_;2A.;__base_ctor::(1,8)=#(1,1),(0,6),(1,4),(0,6);:_ZN11stlpmtx_std15__stlport_classINS_9allocatorIN8IObjAnim10s_resourceEEEEC2Ev;2A.;__comp_ctor::(1,8):_ZN11stlpmtx_std15__stlport_classINS_9allocatorIN8IObjAnim10s_resourceEEEEC1Ev;2A.;;",128,0,572,0
	.stabs	"allocator<IObjAnim::s_resource>:Tt(1,9)=s1!1,020,(1,1);__base_ctor::(1,10)=#(1,9),(0,6),(1,11)=*(1,9),(0,6);:_ZN11stlpmtx_std9allocatorIN8IObjAnim10s_resourceEEC2Ev;2A.;__comp_ctor::(1,10):_ZN11stlpmtx_std9allocatorIN8IObjAnim10s_resourceEEC1Ev;2A.;__base_ctor::(1,12)=#(1,9),(0,6),(1,11),(1,13)=&(1,14)=k(1,9),(0,6);:_ZN11stlpmtx_std9allocatorIN8IObjAnim10s_resourceEEC2ERKS3_;2A.;__comp_ctor::(1,12):_ZN11stlpmtx_std9allocatorIN8IObjAnim10s_resourceEEC1ERKS3_;2A.;__base_ctor::(1,15)=#(1,9),(0,6),(1,11),(1,16)=xs__move_source<stlpmtx_std::allocator<IObjAnim::s_resource> >:,(0,6);:_ZN11stlpmtx_std9allocatorIN8IObjAnim10s_resourceEEC2ENS_13__move_sourceIS3_EE;2A.;__comp_ctor::(1,15):_ZN11stlpmtx_std9allocatorIN8IObjAnim10s_resourceEEC1ENS_13__move_sourceIS3_EE;2A.;__base_dtor::(1,10):_ZN11stlpmtx_std9allocatorIN8IObjAnim10s_resourceEED2Ev;2A.;__comp_dtor::(1,10):_ZN11stlpmtx_std9allocatorIN8IObjAnim10s_resourceEED1Ev;2A.;address::(1,17)=#(1,9),(68,4),(1,18)=*(1,14),(68,3),(0,6);:_ZNK11stlpmtx_std9allocatorIN8IObjAnim10s_resourceEE7addressERS2_;2B.(1,19)=#(1,9),(1,20)=*(68,6),(1,18),(68,5),(0,6);:_ZNK11stlpmtx_std9allocatorIN8IObjAnim10s_resourceEE7addressERKS2_;2B.;allocate::(1,21)=#(1,9),(68,4),(1,11),(0,16),(36,92),(0,6);:_ZN11stlpmtx_std9allocatorIN8IObjAnim10s_resourceEE8allocateEmPKv;2A.;deallocate::(1,22)=#(1,9),(0,6),(1,11),(68,4),(0,16),(0,6);:_ZN11stlpmtx_std9allocatorIN8IObjAnim10s_resourceEE10deallocateEPS2_m;2A.(1,23)=#(1,9),(0,6),(1,18),(68,4),(0,6);:_ZNK11stlpmtx_std9allocatorIN8IObjAnim10s_resourceEE10deallocateEPS2_;2B.;max_size::(1,24)=#(1,9),(19,2),(1,18),(0,6);:_ZNK11stlpmtx_std9allocatorIN8IObjAnim10s_resourceEE8max_sizeEv;2B.;construct::(1,25)=#(1,9),(0,6),(1,11),(68,4),(68,5),(0,6);:_ZN11stlpmtx_std9allocatorIN8IObjAnim10s_resourceEE9constructEPS2_RKS2_;2A.;destroy::(1,26)=#(1,9),(0,6),(1,11),(68,4),(0,6);:_ZN11stlpmtx_std9allocatorIN8IObjAnim10s_resourceEE7destroyEPS2_;2A.;_M_allocate::(1,27)=#(1,9),(68,4),(1,11),(0,16),(53,46),(0,6);:_ZN11stlpmtx_std9allocatorIN8IObjAnim10s_resourceEE11_M_allocateEmRm;2A.;operator=::(1,28)=#(1,9),(1,29)=&(1,9),(1,11),(1,13),(0,6);:_ZN11stlpmtx_std9allocatorIN8IObjAnim10s_resourceEEaSERKS3_;2A.;;",128,0,275,0
	.stabs	"_STLP_alloc_proxy<IObjAnim::s_resource*,IObjAnim::s_resource,stlpmtx_std::allocator<IObjAnim::s_resource> >:Tt(1,30)=s4!1,020,(1,9);_M_data:(68,4),0,32;__base_ctor::(1,31)=#(1,30),(0,6),(1,32)=*(1,30),(1,13),(68,4),(0,6);:_ZN11stlpmtx_std4priv17_STLP_alloc_proxyIPN8IObjAnim10s_resourceES3_NS_9allocatorIS3_EEEC2ERKS6_S4_;2A.;__comp_ctor::(1,31):_ZN11stlpmtx_std4priv17_STLP_alloc_proxyIPN8IObjAnim10s_resourceES3_NS_9allocatorIS3_EEEC1ERKS6_S4_;2A.;__base_ctor::(1,33)=#(1,30),(0,6),(1,32),(1,34)=xs__move_source<stlpmtx_std::priv::_STLP_alloc_proxy<IObjAnim::s_resource*, IObjAnim::s_resource, stlpmtx_std::allocator<IObjAnim::s_resource> > >:,(0,6);:_ZN11stlpmtx_std4priv17_STLP_alloc_proxyIPN8IObjAnim10s_resourceES3_NS_9allocatorIS3_EEEC2ENS_13__move_sourceIS7_EE;2A.;__comp_ctor::(1,33):_ZN11stlpmtx_std4priv17_STLP_alloc_proxyIPN8IObjAnim10s_resourceES3_NS_9allocatorIS3_EEEC1ENS_13__move_sourceIS7_EE;2A.;_M_base::(1,35)=#(1,30),(1,29),(1,32),(0,6);:_ZN11stlpmtx_std4priv17_STLP_alloc_proxyIPN8IObjAnim10s_resourceES3_NS_9allocatorIS3_EEE7_M_baseEv;2A.;_M_swap_alloc::(1,36)=#(1,30),(0,6),(1,32),(1,37)=&(1,30),(36,5),(0,6);:_ZN11stlpmtx_std4priv17_STLP_alloc_proxyIPN8IObjAnim10s_resourceES3_NS_9allocatorIS3_EEE13_M_swap_allocERS7_RKNS_11__true_typeE;0A.(1,38)=#(1,30),(0,6),(1,32),(1,37),(36,13),(0,6);:_ZN11stlpmtx_std4priv17_STLP_alloc_proxyIPN8IObjAnim10s_resourceES3_NS_9allocatorIS3_EEE13_M_swap_allocERS7_RKNS_12__false_typeE;0A.(1,39)=#(1,30),(0,6),(1,32),(1,37),(0,6);:_ZN11stlpmtx_std4priv17_STLP_alloc_proxyIPN8IObjAnim10s_resourceES3_NS_9allocatorIS3_EEE13_M_swap_allocERS7_;2A.;swap::(1,39):_ZN11stlpmtx_std4priv17_STLP_alloc_proxyIPN8IObjAnim10s_resourceES3_NS_9allocatorIS3_EEE4swapERS7_;2A.;allocate::(1,40)=#(1,30),(68,4),(1,32),(0,16),(53,46),(0,6);:_ZN11stlpmtx_std4priv17_STLP_alloc_proxyIPN8IObjAnim10s_resourceES3_NS_9allocatorIS3_EEE8allocateEmRm;2A.(1,41)=#(1,30),(68,4),(1,32),(0,16),(0,6);:_ZN11stlpmtx_std4priv17_STLP_alloc_proxyIPN8IObjAnim10s_resourceES3_NS_9allocatorIS3_EEE8allocateEm;2A.(1,42)=#(1,30),(68,4),(1,32),(0,16),(53,46),(36,5),(0,6);:_ZN11stlpmtx_std4priv17_STLP_alloc_proxyIPN8IObjAnim10s_resourceES3_NS_9allocatorIS3_EEE8allocateEmRmRKNS_11__true_typeE;0A.(1,43)=#(1,30),(68,4),(1,32),(0,16),(53,46),(36,13),(0,6);:_ZN11stlpmtx_std4priv17_STLP_alloc_proxyIPN8IObjAnim10s_resourceES3_NS_9allocatorIS3_EEE8allocateEmRmRKNS_12__false_typeE;0A.;operator=::(1,44)=#(1,30),(1,37),(1,32),(1,45)=&(1,46)=k(1,30),(0,6);:_ZN11stlpmtx_std4priv17_STLP_alloc_proxyIPN8IObjAnim10s_resourceES3_NS_9allocatorIS3_EEEaSERKS7_;2A.;__base_ctor::(1,47)=#(1,30),(0,6),(1,32),(1,45),(0,6);:_ZN11stlpmtx_std4priv17_STLP_alloc_proxyIPN8IObjAnim10s_resourceES3_NS_9allocatorIS3_EEEC2ERKS7_;2A.;__comp_ctor::(1,47):_ZN11stlpmtx_std4priv17_STLP_alloc_proxyIPN8IObjAnim10s_resourceES3_NS_9allocatorIS3_EEEC1ERKS7_;2A.;__base_dtor::(1,48)=#(1,30),(0,6),(1,32),(0,6);:_ZN11stlpmtx_std4priv17_STLP_alloc_proxyIPN8IObjAnim10s_resourceES3_NS_9allocatorIS3_EEED2Ev;2A.;__comp_dtor::(1,48):_ZN11stlpmtx_std4priv17_STLP_alloc_proxyIPN8IObjAnim10s_resourceES3_NS_9allocatorIS3_EEED1Ev;2A.;;",128,0,472,0
	.stabs	"_Vector_base<IObjAnim::s_resource,stlpmtx_std::allocator<IObjAnim::s_resource> >:Tt(1,49)=s12_M_start:/1(68,4),0,32;_M_finish:/1(68,4),32,32;_M_end_of_storage:/1(1,30),64,32;__base_ctor::(1,50)=#(1,49),(0,6),(1,51)=*(1,49),(1,13),(0,6);:_ZN11stlpmtx_std4priv12_Vector_baseIN8IObjAnim10s_resourceENS_9allocatorIS3_EEEC2ERKS5_;2A.;__comp_ctor::(1,50):_ZN11stlpmtx_std4priv12_Vector_baseIN8IObjAnim10s_resourceENS_9allocatorIS3_EEEC1ERKS5_;2A.;__base_ctor::(1,52)=#(1,49),(0,6),(1,51),(0,16),(1,13),(0,6);:_ZN11stlpmtx_std4priv12_Vector_baseIN8IObjAnim10s_resourceENS_9allocatorIS3_EEEC2EmRKS5_;2A.;__comp_ctor::(1,52):_ZN11stlpmtx_std4priv12_Vector_baseIN8IObjAnim10s_resourceENS_9allocatorIS3_EEEC1EmRKS5_;2A.;__base_ctor::(1,53)=#(1,49),(0,6),(1,51),(1,54)=xs__move_source<stlpmtx_std::priv::_Vector_base<IObjAnim::s_resource, stlpmtx_std::allocator<IObjAnim::s_resource> > >:,(0,6);:_ZN11stlpmtx_std4priv12_Vector_baseIN8IObjAnim10s_resourceENS_9allocatorIS3_EEEC2ENS_13__move_sourceIS6_EE;2A.;__comp_ctor::(1,53):_ZN11stlpmtx_std4priv12_Vector_baseIN8IObjAnim10s_resourceENS_9allocatorIS3_EEEC1ENS_13__move_sourceIS6_EE;2A.;__base_dtor::(1,55)=#(1,49),(0,6),(1,51),(0,6);:_ZN11stlpmtx_std4priv12_Vector_baseIN8IObjAnim10s_resourceENS_9allocatorIS3_EEED2Ev;2A.;__comp_dtor::(1,55):_ZN11stlpmtx_std4priv12_Vector_baseIN8IObjAnim10s_resourceENS_9allocatorIS3_EEED1Ev;2A.;_M_throw_length_error::(1,56)=#(1,49),(0,6),(1,57)=*(1,58)=k(1,49),(0,6);:_ZNK11stlpmtx_std4priv12_Vector_baseIN8IObjAnim10s_resourceENS_9allocatorIS3_EEE21_M_throw_length_errorEv;1B.;_M_throw_out_of_range::(1,56):_ZNK11stlpmtx_std4priv12_Vector_baseIN8IObjAnim10s_resourceENS_9allocatorIS3_EEE21_M_throw_out_of_rangeEv;1B.;operator=::(1,59)=#(1,49),(1,60)=&(1,49),(1,51),(1,61)=&(1,58),(0,6);:_ZN11stlpmtx_std4priv12_Vector_baseIN8IObjAnim10s_resourceENS_9allocatorIS3_EEEaSERKS6_;2A.;__base_ctor::(1,62)=#(1,49),(0,6),(1,51),(1,61),(0,6);:_ZN11stlpmtx_std4priv12_Vector_baseIN8IObjAnim10s_resourceENS_9allocatorIS3_EEEC2ERKS6_;2A.;__comp_ctor::(1,62):_ZN11stlpmtx_std4priv12_Vector_baseIN8IObjAnim10s_resourceENS_9allocatorIS3_EEEC1ERKS6_;2A.;;",128,0,58,0
	.stabs	"vector<IObjAnim::s_resource,stlpmtx_std::allocator<IObjAnim::s_resource> >:Tt(1,63)=s12!1,010,(1,49);get_allocator::(1,64)=#(1,63),(1,9),(1,65)=*(1,66)=k(1,63),(0,6);:_ZNK11stlpmtx_std6vectorIN8IObjAnim10s_resourceENS_9allocatorIS2_EEE13get_allocatorEv;2B.;_M_insert_overflow_aux::(1,67)=#(1,63),(0,6),(1,68)=*(1,63),(68,4),(68,5),(36,13),(0,16),(0,4),(0,6);:_ZN11stlpmtx_std6vectorIN8IObjAnim10s_resourceENS_9allocatorIS2_EEE22_M_insert_overflow_auxEPS2_RKS2_RKNS_12__false_typeEmb;0A.(1,69)=#(1,63),(0,6),(1,68),(68,4),(68,5),(36,5),(0,16),(0,4),(0,6);:_ZN11stlpmtx_std6vectorIN8IObjAnim10s_resourceENS_9allocatorIS2_EEE22_M_insert_overflow_auxEPS2_RKS2_RKNS_11__true_typeEmb;0A.;_M_insert_overflow::(1,70)=#(1,63),(0,6),(1,68),(68,4),(68,5),(36,13),(0,16),(0,4),(0,6);:_ZN11stlpmtx_std6vectorIN8IObjAnim10s_resourceENS_9allocatorIS2_EEE18_M_insert_overflowEPS2_RKS2_RKNS_12__false_typeEmb;0A.(1,71)=#(1,63),(0,6),(1,68),(68,4),(68,5),(36,5),(0,16),(0,4),(0,6);:_ZN11stlpmtx_std6vectorIN8IObjAnim10s_resourceENS_9allocatorIS2_EEE18_M_insert_overflowEPS2_RKS2_RKNS_11__true_typeEmb;0A.;_M_range_check::(1,72)=#(1,63),(0,6),(1,65),(0,16),(0,6);:_ZNK11stlpmtx_std6vectorIN8IObjAnim10s_resourceENS_9allocatorIS2_EEE14_M_range_checkEm;0B.;_M_compute_next_size::(1,73)=#(1,63),(19,2),(1,68),(0,16),(0,6);:_ZN11stlpmtx_std6vectorIN8IObjAnim10s_resourceENS_9allocatorIS2_EEE20_M_compute_next_sizeEm;0A.;begin::(1,74)=#(1,63),(68,4),(1,68),(0,6);:_ZN11stlpmtx_std6vectorIN8IObjAnim10s_resourceENS_9allocatorIS2_EEE5beginEv;2A.(1,75)=#(1,63),(1,20),(1,65),(0,6);:_ZNK11stlpmtx_std6vectorIN8IObjAnim10s_resourceENS_9allocatorIS2_EEE5beginEv;2B.;end::(1,74):_ZN11stlpmtx_std6vectorIN8IObjAnim10s_resourceENS_9allocatorIS2_EEE3endEv;2A.(1,75):_ZNK11stlpmtx_std6vectorIN8IObjAnim10s_resourceENS_9allocatorIS2_EEE3endEv;2B.;rbegin::(1,76)=#(1,63),(1,77)=xsreverse_iterator<IObjAnim::s_resource*>:,(1,68),(0,6);:_ZN11stlpmtx_std6vectorIN8IObjAnim10s_resourceENS_9allocatorIS2_EEE6rbeginEv;2A.(1,78)=#(1,63),(1,79)=xsreverse_iterator<const IObjAnim::s_resource*>:,(1,65),(0,6);:_ZNK11stlpmtx_std6vectorIN8IObjAnim10s_resourceENS_9allocatorIS2_EEE6rbeginEv;2B.;rend::(1,76):_ZN11stlpmtx_std6vectorIN8IObjAnim10s_resourceENS_9allocatorIS2_EEE4rendEv;2A.(1,78):_ZNK11stlpmtx_std6vectorIN8IObjAnim10s_resourceENS_9allocatorIS2_EEE4rendEv;2B.;size::(1,80)=#(1,63),(19,2),(1,65),(0,6);:_ZNK11stlpmtx_std6vectorIN8IObjAnim10s_resourceENS_9allocatorIS2_EEE4sizeEv;2B.;max_size::(1,80):_ZNK11stlpmtx_std6vectorIN8IObjAnim10s_resourceENS_9allocatorIS2_EEE8max_sizeEv;2B.;capacity::(1,80):_ZNK11stlpmtx_std6vectorIN8IObjAnim10s_resourceENS_9allocatorIS2_EEE8capacityEv;2B.;empty::(1,81)=#(1,63),(0,4),(1,65),(0,6);:_ZNK11stlpmtx_std6vectorIN8IObjAnim10s_resourceENS_9allocatorIS2_EEE5emptyEv;2B.;operator[]::(1,82)=#(1,63),(68,3),(1,68),(0,16),(0,6);:_ZN11stlpmtx_std6vectorIN8IObjAnim10s_resourceENS_9allocatorIS2_EEEixEm;2A.(1,83)=#(1,63),(68,5),(1,65),(0,16),(0,6);:_ZNK11stlpmtx_std6vectorIN8IObjAnim10s_resourceENS_9allocatorIS2_EEEixEm;2B.;front::(1,84)=#(1,63),(68,3),(1,68),(0,6);:_ZN11stlpmtx_std6vectorIN8IObjAnim10s_resourceENS_9allocatorIS2_EEE5frontEv;2A.(1,85)=#(1,63),(68,5),(1,65),(0,6);:_ZNK11stlpmtx_std6vectorIN8IObjAnim10s_resourceENS_9allocatorIS2_EEE5frontEv;2B.;back::(1,84):_ZN11stlpmtx_std6vectorIN8IObjAnim10s_resourceENS_9allocatorIS2_EEE4backEv;2A.(1,85):_ZNK11stlpmtx_std6vectorIN8IObjAnim10s_resourceENS_9allocatorIS2_EEE4backEv;2B.;at::(1,82):_ZN11stlpmtx_std6vectorIN8IObjAnim10s_resourceENS_9allocatorIS2_EEE2atEm;2A.(1,83):_ZNK11stlpmtx_std6vectorIN8IObjAnim10s_resourceENS_9allocatorIS2_EEE2atEm;2B.;__base_ctor::(1,86)=#(1,63),(0,6),(1,68),(1,13),(0,6);:_ZN11stlpmtx_std6vectorIN8IObjAnim10s_resourceENS_9allocatorIS2_EEEC2ERKS4_;2A.;__comp_ctor::(1,86):_ZN11stlpmtx_std6vectorIN8IObjAnim10s_resourceENS_9allocatorIS2_EEEC1ERKS4_;2A.;_M_initialize::(1,87)=#(1,63),(0,6),(1,68),(0,16),(68,5),(0,6);:_ZN11stlpmtx_std6vectorIN8IObjAnim10s_resourceENS_9allocatorIS2_EEE13_M_initializeEmRKS2_;0A.;__base_ctor::(1,88)=#(1,63),(0,6),(1,68),(0,16),(0,6);:_ZN11stlpmtx_std6vectorIN8IObjAnim10s_resourceENS_9allocatorIS2_EEEC2Em;2A.;__comp_ctor::(1,88):_ZN11stlpmtx_std6vectorIN8IObjAnim10s_resourceENS_9allocatorIS2_EEEC1Em;2A.;__base_ctor::(1,89)=#(1,63),(0,6),(1,68),(0,16),(68,5),(1,13),(0,6);:_ZN11stlpmtx_std6vectorIN8IObjAnim10s_resourceENS_9allocatorIS2_EEEC2EmRKS2_RKS4_;2A.;__comp_ctor::(1,89):_ZN11stlpmtx_std6vectorIN8IObjAnim10s_resourceENS_9allocatorIS2_EEEC1EmRKS2_RKS4_;2A.;__base_ctor::(1,90)=#(1,63),(0,6),(1,68),(1,91)=&(1,66),(0,6);:_ZN11stlpmtx_std6vectorIN8IObjAnim10s_resourceENS_9allocatorIS2_EEEC2ERKS5_;2A.;__comp_ctor::(1,90):_ZN11stlpmtx_std6vectorIN8IObjAnim10s_resourceENS_9allocatorIS2_EEEC1ERKS5_;2A.;__base_ctor::(1,92)=#(1,63),(0,6),(1,68),(1,93)=xs__move_source<stlpmtx_std::vector<IObjAnim::s_resource, stlpmtx_std::allocator<IObjAnim::s_resource> > >:,(0,6);:_ZN11stlpmtx_std6vectorIN8IObjAnim10s_resourceENS_9allocatorIS2_EEEC2ENS_13__move_sourceIS5_EE;2A.;__comp_ctor::(1,92):_ZN11stlpmtx_std6vectorIN8IObjAnim10s_resourceENS_9allocatorIS2_EEEC1ENS_13__move_sourceIS5_EE;2A.;__base_dtor::(1,94)=#(1,63),(0,6),(1,68),(0,6);:_ZN11stlpmtx_std6vectorIN8IObjAnim10s_resourceENS_9allocatorIS2_EEED2Ev;2A.;__comp_dtor::(1,94):_ZN11stlpmtx_std6vectorIN8IObjAnim10s_resourceENS_9allocatorIS2_EEED1Ev;2A.;operator=::(1,95)=#(1,63),(1,96)=&(1,63),(1,68),(1,91),(0,6);:_ZN11stlpmtx_std6vectorIN8IObjAnim10s_resourceENS_9allocatorIS2_EEEaSERKS5_;2A.;reserve::(1,88):_ZN11stlpmtx_std6vectorIN8IObjAnim10s_resourceENS_9allocatorIS2_EEE7reserveEm;2A.;assign::(1,97)=#(1,63),(0,6),(1,68),(0,16),(68,5),(0,6);:_ZN11stlpmtx_std6vectorIN8IObjAnim10s_resourceENS_9allocatorIS2_EEE6assignEmRKS2_;2A.;_M_fill_assign::(1,97):_ZN11stlpmtx_std6vectorIN8IObjAnim10s_resourceENS_9allocatorIS2_EEE14_M_fill_assignEmRKS2_;2A.;push_back::(1,98)=#(1,63),(0,6),(1,68),(68,5),(0,6);:_ZN11stlpmtx_std6vectorIN8IObjAnim10s_resourceENS_9allocatorIS2_EEE9push_backERKS2_;2A.;insert::(1,99)=#(1,63),(68,4),(1,68),(68,4),(68,5),(0,6);:_ZN11stlpmtx_std6vectorIN8IObjAnim10s_resourceENS_9allocatorIS2_EEE6insertEPS2_RKS2_;2A.;swap::(1,100)=#(1,63),(0,6),(1,68),(1,96),(0,6);:_ZN11stlpmtx_std6vectorIN8IObjAnim10s_resourceENS_9allocatorIS2_EEE4swapERS5_;2A.;_M_fill_insert_aux::(1,101)=#(1,63),(0,6),(1,68),(68,4),(0,16),(68,5),(36,5),(0,6);:_ZN11stlpmtx_std6vectorIN8IObjAnim10s_resourceENS_9allocatorIS2_EEE18_M_fill_insert_auxEPS2_mRKS2_RKNS_11__true_typeE;0A.(1,102)=#(1,63),(0,6),(1,68),(68,4),(0,16),(68,5),(36,13),(0,6);:_ZN11stlpmtx_std6vectorIN8IObjAnim10s_resourceENS_9allocatorIS2_EEE18_M_fill_insert_auxEPS2_mRKS2_RKNS_12__false_typeE;0A.;_M_fill_insert::(1,103)=#(1,63),(0,6),(1,68),(68,4),(0,16),(68,5),(0,6);:_ZN11stlpmtx_std6vectorIN8IObjAnim10s_resourceENS_9allocatorIS2_EEE14_M_fill_insertEPS2_mRKS2_;0A.;_M_is_inside::(1,104)=#(1,63),(0,4),(1,65),(68,5),(0,6);:_ZNK11stlpmtx_std6vectorIN8IObjAnim10s_resourceENS_9allocatorIS2_EEE12_M_is_insideERKS2_;0B.;insert::(1,103):_ZN11stlpmtx_std6vectorIN8IObjAnim10s_resourceENS_9allocatorIS2_EEE6insertEPS2_mRKS2_;2A.;pop_back::(1,94):_ZN11stlpmtx_std6vectorIN8IObjAnim10s_resourceENS_9allocatorIS2_EEE8pop_backEv;2A.;_M_erase::(1,105)=#(1,63),(68,4),(1,68),(68,4),(36,5),(0,6);:_ZN11stlpmtx_std6vectorIN8IObjAnim10s_resourceENS_9allocatorIS2_EEE8_M_eraseEPS2_RKNS_11__true_typeE;0A.(1,106)=#(1,63),(68,4),(1,68),(68,4),(36,13),(0,6);:_ZN11stlpmtx_std6vectorIN8IObjAnim10s_resourceENS_9allocatorIS2_EEE8_M_eraseEPS2_RKNS_12__false_typeE;0A.(1,107)=#(1,63),(68,4),(1,68),(68,4),(68,4),(36,5),(0,6);:_ZN11stlpmtx_std6vectorIN8IObjAnim10s_resourceENS_9allocatorIS2_EEE8_M_eraseEPS2_S6_RKNS_11__true_typeE;0A.(1,108)=#(1,63),(68,4),(1,68),(68,4),(68,4),(36,13),(0,6);:_ZN11stlpmtx_std6vectorIN8IObjAnim10s_resourceENS_9allocatorIS2_EEE8_M_eraseEPS2_S6_RKNS_12__false_typeE;0A.;erase::(1,109)=#(1,63),(68,4),(1,68),(68,4),(0,6);:_ZN11stlpmtx_std6vectorIN8IObjAnim10s_resourceENS_9allocatorIS2_EEE5eraseEPS2_;2A.(1,110)=#(1,63),(68,4),(1,68),(68,4),(68,4),(0,6);:_ZN11stlpmtx_std6vectorIN8IObjAnim10s_resourceENS_9allocatorIS2_EEE5eraseEPS2_S6_;2A.;resize::(1,111)=#(1,63),(0,6),(1,68),(0,16),(68,5),(0,6);:_ZN11stlpmtx_std6vectorIN8IObjAnim10s_resourceENS_9allocatorIS2_EEE6resizeEmRKS2_;2A.;clear::(1,94):_ZN11stlpmtx_std6vectorIN8IObjAnim10s_resourceENS_9allocatorIS2_EEE5clearEv;2A.;_M_clear::(1,94):_ZN11stlpmtx_std6vectorIN8IObjAnim10s_resourceENS_9allocatorIS2_EEE8_M_clearEv;0A.;_M_clear_after_move::(1,94):_ZN11stlpmtx_std6vectorIN8IObjAnim10s_resourceENS_9allocatorIS2_EEE19_M_clear_after_moveEv;0A.;_M_set::(1,112)=#(1,63),(0,6),(1,68),(68,4),(68,4),(68,4),(0,6);:_ZN11stlpmtx_std6vectorIN8IObjAnim10s_resourceENS_9allocatorIS2_EEE6_M_setEPS2_S6_S6_;0A.;;",128,0,113,0
	.stabn	162,0,0,0
	.stabs	"__stlport_class<stlpmtx_std::allocator<Object*> >:Tt(0,25)=s1operator=::(0,26)=#(0,25),(0,27)=&(0,25),(0,28)=*(0,25),(0,29)=&(0,30)=k(0,25),(0,6);:_ZN11stlpmtx_std15__stlport_classINS_9allocatorIP6ObjectEEEaSERKS5_;2A.;__base_ctor::(0,31)=#(0,25),(0,6),(0,28),(0,29),(0,6);:_ZN11stlpmtx_std15__stlport_classINS_9allocatorIP6ObjectEEEC2ERKS5_;2A.;__comp_ctor::(0,31):_ZN11stlpmtx_std15__stlport_classINS_9allocatorIP6ObjectEEEC1ERKS5_;2A.;__base_ctor::(0,32)=#(0,25),(0,6),(0,28),(0,6);:_ZN11stlpmtx_std15__stlport_classINS_9allocatorIP6ObjectEEEC2Ev;2A.;__comp_ctor::(0,32):_ZN11stlpmtx_std15__stlport_classINS_9allocatorIP6ObjectEEEC1Ev;2A.;;",128,0,572,0
	.stabs	"allocator<Object*>:Tt(0,33)=s1!1,020,(0,25);__base_ctor::(0,34)=#(0,33),(0,6),(0,35)=*(0,33),(0,6);:_ZN11stlpmtx_std9allocatorIP6ObjectEC2Ev;2A.;__comp_ctor::(0,34):_ZN11stlpmtx_std9allocatorIP6ObjectEC1Ev;2A.;__base_ctor::(0,36)=#(0,33),(0,6),(0,35),(0,37)=&(0,38)=k(0,33),(0,6);:_ZN11stlpmtx_std9allocatorIP6ObjectEC2ERKS3_;2A.;__comp_ctor::(0,36):_ZN11stlpmtx_std9allocatorIP6ObjectEC1ERKS3_;2A.;__base_ctor::(0,39)=#(0,33),(0,6),(0,35),(0,40)=xs__move_source<stlpmtx_std::allocator<Object*> >:,(0,6);:_ZN11stlpmtx_std9allocatorIP6ObjectEC2ENS_13__move_sourceIS3_EE;2A.;__comp_ctor::(0,39):_ZN11stlpmtx_std9allocatorIP6ObjectEC1ENS_13__move_sourceIS3_EE;2A.;__base_dtor::(0,34):_ZN11stlpmtx_std9allocatorIP6ObjectED2Ev;2A.;__comp_dtor::(0,34):_ZN11stlpmtx_std9allocatorIP6ObjectED1Ev;2A.;address::(0,41)=#(0,33),(0,42)=*(0,43)=*(0,44)=xsObject:,(0,45)=*(0,38),(0,46)=&(0,43),(0,6);:_ZNK11stlpmtx_std9allocatorIP6ObjectE7addressERS2_;2B.(0,47)=#(0,33),(0,48)=*(0,49)=k(0,43),(0,45),(0,50)=&(0,49),(0,6);:_ZNK11stlpmtx_std9allocatorIP6ObjectE7addressERKS2_;2B.;allocate::(0,51)=#(0,33),(0,42),(0,35),(0,16),(36,92),(0,6);:_ZN11stlpmtx_std9allocatorIP6ObjectE8allocateEmPKv;2A.;deallocate::(0,52)=#(0,33),(0,6),(0,35),(0,42),(0,16),(0,6);:_ZN11stlpmtx_std9allocatorIP6ObjectE10deallocateEPS2_m;2A.(0,53)=#(0,33),(0,6),(0,45),(0,42),(0,6);:_ZNK11stlpmtx_std9allocatorIP6ObjectE10deallocateEPS2_;2B.;max_size::(0,54)=#(0,33),(19,2),(0,45),(0,6);:_ZNK11stlpmtx_std9allocatorIP6ObjectE8max_sizeEv;2B.;construct::(0,55)=#(0,33),(0,6),(0,35),(0,42),(0,50),(0,6);:_ZN11stlpmtx_std9allocatorIP6ObjectE9constructEPS2_RKS2_;2A.;destroy::(0,56)=#(0,33),(0,6),(0,35),(0,42),(0,6);:_ZN11stlpmtx_std9allocatorIP6ObjectE7destroyEPS2_;2A.;_M_allocate::(0,57)=#(0,33),(0,42),(0,35),(0,16),(53,46),(0,6);:_ZN11stlpmtx_std9allocatorIP6ObjectE11_M_allocateEmRm;2A.;operator=::(0,58)=#(0,33),(0,59)=&(0,33),(0,35),(0,37),(0,6);:_ZN11stlpmtx_std9allocatorIP6ObjectEaSERKS3_;2A.;;",128,0,275,0
	.stabs	"_STLP_alloc_proxy<Object**,Object*,stlpmtx_std::allocator<Object*> >:Tt(0,60)=s4!1,020,(0,33);_M_data:(0,42),0,32;__base_ctor::(0,61)=#(0,60),(0,6),(0,62)=*(0,60),(0,37),(0,42),(0,6);:_ZN11stlpmtx_std4priv17_STLP_alloc_proxyIPP6ObjectS3_NS_9allocatorIS3_EEEC2ERKS6_S4_;2A.;__comp_ctor::(0,61):_ZN11stlpmtx_std4priv17_STLP_alloc_proxyIPP6ObjectS3_NS_9allocatorIS3_EEEC1ERKS6_S4_;2A.;__base_ctor::(0,63)=#(0,60),(0,6),(0,62),(0,64)=xs__move_source<stlpmtx_std::priv::_STLP_alloc_proxy<Object**, Object*, stlpmtx_std::allocator<Object*> > >:,(0,6);:_ZN11stlpmtx_std4priv17_STLP_alloc_proxyIPP6ObjectS3_NS_9allocatorIS3_EEEC2ENS_13__move_sourceIS7_EE;2A.;__comp_ctor::(0,63):_ZN11stlpmtx_std4priv17_STLP_alloc_proxyIPP6ObjectS3_NS_9allocatorIS3_EEEC1ENS_13__move_sourceIS7_EE;2A.;_M_base::(0,65)=#(0,60),(0,59),(0,62),(0,6);:_ZN11stlpmtx_std4priv17_STLP_alloc_proxyIPP6ObjectS3_NS_9allocatorIS3_EEE7_M_baseEv;2A.;_M_swap_alloc::(0,66)=#(0,60),(0,6),(0,62),(0,67)=&(0,60),(36,5),(0,6);:_ZN11stlpmtx_std4priv17_STLP_alloc_proxyIPP6ObjectS3_NS_9allocatorIS3_EEE13_M_swap_allocERS7_RKNS_11__true_typeE;0A.(0,68)=#(0,60),(0,6),(0,62),(0,67),(36,13),(0,6);:_ZN11stlpmtx_std4priv17_STLP_alloc_proxyIPP6ObjectS3_NS_9allocatorIS3_EEE13_M_swap_allocERS7_RKNS_12__false_typeE;0A.(0,69)=#(0,60),(0,6),(0,62),(0,67),(0,6);:_ZN11stlpmtx_std4priv17_STLP_alloc_proxyIPP6ObjectS3_NS_9allocatorIS3_EEE13_M_swap_allocERS7_;2A.;swap::(0,69):_ZN11stlpmtx_std4priv17_STLP_alloc_proxyIPP6ObjectS3_NS_9allocatorIS3_EEE4swapERS7_;2A.;allocate::(0,70)=#(0,60),(0,42),(0,62),(0,16),(53,46),(0,6);:_ZN11stlpmtx_std4priv17_STLP_alloc_proxyIPP6ObjectS3_NS_9allocatorIS3_EEE8allocateEmRm;2A.(0,71)=#(0,60),(0,42),(0,62),(0,16),(0,6);:_ZN11stlpmtx_std4priv17_STLP_alloc_proxyIPP6ObjectS3_NS_9allocatorIS3_EEE8allocateEm;2A.(0,72)=#(0,60),(0,42),(0,62),(0,16),(53,46),(36,5),(0,6);:_ZN11stlpmtx_std4priv17_STLP_alloc_proxyIPP6ObjectS3_NS_9allocatorIS3_EEE8allocateEmRmRKNS_11__true_typeE;0A.(0,73)=#(0,60),(0,42),(0,62),(0,16),(53,46),(36,13),(0,6);:_ZN11stlpmtx_std4priv17_STLP_alloc_proxyIPP6ObjectS3_NS_9allocatorIS3_EEE8allocateEmRmRKNS_12__false_typeE;0A.;operator=::(0,74)=#(0,60),(0,67),(0,62),(0,75)=&(0,76)=k(0,60),(0,6);:_ZN11stlpmtx_std4priv17_STLP_alloc_proxyIPP6ObjectS3_NS_9allocatorIS3_EEEaSERKS7_;2A.;__base_ctor::(0,77)=#(0,60),(0,6),(0,62),(0,75),(0,6);:_ZN11stlpmtx_std4priv17_STLP_alloc_proxyIPP6ObjectS3_NS_9allocatorIS3_EEEC2ERKS7_;2A.;__comp_ctor::(0,77):_ZN11stlpmtx_std4priv17_STLP_alloc_proxyIPP6ObjectS3_NS_9allocatorIS3_EEEC1ERKS7_;2A.;__base_dtor::(0,78)=#(0,60),(0,6),(0,62),(0,6);:_ZN11stlpmtx_std4priv17_STLP_alloc_proxyIPP6ObjectS3_NS_9allocatorIS3_EEED2Ev;2A.;__comp_dtor::(0,78):_ZN11stlpmtx_std4priv17_STLP_alloc_proxyIPP6ObjectS3_NS_9allocatorIS3_EEED1Ev;2A.;;",128,0,472,0
	.stabs	"_Vector_base<Object*,stlpmtx_std::allocator<Object*> >:Tt(0,79)=s12_M_start:/1(0,42),0,32;_M_finish:/1(0,42),32,32;_M_end_of_storage:/1(0,60),64,32;__base_ctor::(0,80)=#(0,79),(0,6),(0,81)=*(0,79),(0,37),(0,6);:_ZN11stlpmtx_std4priv12_Vector_baseIP6ObjectNS_9allocatorIS3_EEEC2ERKS5_;2A.;__comp_ctor::(0,80):_ZN11stlpmtx_std4priv12_Vector_baseIP6ObjectNS_9allocatorIS3_EEEC1ERKS5_;2A.;__base_ctor::(0,82)=#(0,79),(0,6),(0,81),(0,16),(0,37),(0,6);:_ZN11stlpmtx_std4priv12_Vector_baseIP6ObjectNS_9allocatorIS3_EEEC2EmRKS5_;2A.;__comp_ctor::(0,82):_ZN11stlpmtx_std4priv12_Vector_baseIP6ObjectNS_9allocatorIS3_EEEC1EmRKS5_;2A.;__base_ctor::(0,83)=#(0,79),(0,6),(0,81),(0,84)=xs__move_source<stlpmtx_std::priv::_Vector_base<Object*, stlpmtx_std::allocator<Object*> > >:,(0,6);:_ZN11stlpmtx_std4priv12_Vector_baseIP6ObjectNS_9allocatorIS3_EEEC2ENS_13__move_sourceIS6_EE;2A.;__comp_ctor::(0,83):_ZN11stlpmtx_std4priv12_Vector_baseIP6ObjectNS_9allocatorIS3_EEEC1ENS_13__move_sourceIS6_EE;2A.;__base_dtor::(0,85)=#(0,79),(0,6),(0,81),(0,6);:_ZN11stlpmtx_std4priv12_Vector_baseIP6ObjectNS_9allocatorIS3_EEED2Ev;2A.;__comp_dtor::(0,85):_ZN11stlpmtx_std4priv12_Vector_baseIP6ObjectNS_9allocatorIS3_EEED1Ev;2A.;_M_throw_length_error::(0,86)=#(0,79),(0,6),(0,87)=*(0,88)=k(0,79),(0,6);:_ZNK11stlpmtx_std4priv12_Vector_baseIP6ObjectNS_9allocatorIS3_EEE21_M_throw_length_errorEv;1B.;_M_throw_out_of_range::(0,86):_ZNK11stlpmtx_std4priv12_Vector_baseIP6ObjectNS_9allocatorIS3_EEE21_M_throw_out_of_rangeEv;1B.;operator=::(0,89)=#(0,79),(0,90)=&(0,79),(0,81),(0,91)=&(0,88),(0,6);:_ZN11stlpmtx_std4priv12_Vector_baseIP6ObjectNS_9allocatorIS3_EEEaSERKS6_;2A.;__base_ctor::(0,92)=#(0,79),(0,6),(0,81),(0,91),(0,6);:_ZN11stlpmtx_std4priv12_Vector_baseIP6ObjectNS_9allocatorIS3_EEEC2ERKS6_;2A.;__comp_ctor::(0,92):_ZN11stlpmtx_std4priv12_Vector_baseIP6ObjectNS_9allocatorIS3_EEEC1ERKS6_;2A.;;",128,0,58,0
	.stabs	"vector<Object*,stlpmtx_std::allocator<Object*> >:Tt(0,93)=s12!1,010,(0,79);get_allocator::(0,94)=#(0,93),(0,33),(0,95)=*(0,96)=k(0,93),(0,6);:_ZNK11stlpmtx_std6vectorIP6ObjectNS_9allocatorIS2_EEE13get_allocatorEv;2B.;_M_insert_overflow_aux::(0,97)=#(0,93),(0,6),(0,98)=*(0,93),(0,42),(0,50),(36,13),(0,16),(0,4),(0,6);:_ZN11stlpmtx_std6vectorIP6ObjectNS_9allocatorIS2_EEE22_M_insert_overflow_auxEPS2_RKS2_RKNS_12__false_typeEmb;0A.(0,99)=#(0,93),(0,6),(0,98),(0,42),(0,50),(36,5),(0,16),(0,4),(0,6);:_ZN11stlpmtx_std6vectorIP6ObjectNS_9allocatorIS2_EEE22_M_insert_overflow_auxEPS2_RKS2_RKNS_11__true_typeEmb;0A.;_M_insert_overflow::(0,100)=#(0,93),(0,6),(0,98),(0,42),(0,50),(36,13),(0,16),(0,4),(0,6);:_ZN11stlpmtx_std6vectorIP6ObjectNS_9allocatorIS2_EEE18_M_insert_overflowEPS2_RKS2_RKNS_12__false_typeEmb;0A.(0,101)=#(0,93),(0,6),(0,98),(0,42),(0,50),(36,5),(0,16),(0,4),(0,6);:_ZN11stlpmtx_std6vectorIP6ObjectNS_9allocatorIS2_EEE18_M_insert_overflowEPS2_RKS2_RKNS_11__true_typeEmb;0A.;_M_range_check::(0,102)=#(0,93),(0,6),(0,95),(0,16),(0,6);:_ZNK11stlpmtx_std6vectorIP6ObjectNS_9allocatorIS2_EEE14_M_range_checkEm;0B.;_M_compute_next_size::(0,103)=#(0,93),(19,2),(0,98),(0,16),(0,6);:_ZN11stlpmtx_std6vectorIP6ObjectNS_9allocatorIS2_EEE20_M_compute_next_sizeEm;0A.;begin::(0,104)=#(0,93),(0,42),(0,98),(0,6);:_ZN11stlpmtx_std6vectorIP6ObjectNS_9allocatorIS2_EEE5beginEv;2A.(0,105)=#(0,93),(0,48),(0,95),(0,6);:_ZNK11stlpmtx_std6vectorIP6ObjectNS_9allocatorIS2_EEE5beginEv;2B.;end::(0,104):_ZN11stlpmtx_std6vectorIP6ObjectNS_9allocatorIS2_EEE3endEv;2A.(0,105):_ZNK11stlpmtx_std6vectorIP6ObjectNS_9allocatorIS2_EEE3endEv;2B.;rbegin::(0,106)=#(0,93),(0,107)=xsreverse_iterator<Object**>:,(0,98),(0,6);:_ZN11stlpmtx_std6vectorIP6ObjectNS_9allocatorIS2_EEE6rbeginEv;2A.(0,108)=#(0,93),(0,109)=xsreverse_iterator<Object* const*>:,(0,95),(0,6);:_ZNK11stlpmtx_std6vectorIP6ObjectNS_9allocatorIS2_EEE6rbeginEv;2B.;rend::(0,106):_ZN11stlpmtx_std6vectorIP6ObjectNS_9allocatorIS2_EEE4rendEv;2A.(0,108):_ZNK11stlpmtx_std6vectorIP6ObjectNS_9allocatorIS2_EEE4rendEv;2B.;size::(0,110)=#(0,93),(19,2),(0,95),(0,6);:_ZNK11stlpmtx_std6vectorIP6ObjectNS_9allocatorIS2_EEE4sizeEv;2B.;max_size::(0,110):_ZNK11stlpmtx_std6vectorIP6ObjectNS_9allocatorIS2_EEE8max_sizeEv;2B.;capacity::(0,110):_ZNK11stlpmtx_std6vectorIP6ObjectNS_9allocatorIS2_EEE8capacityEv;2B.;empty::(0,111)=#(0,93),(0,4),(0,95),(0,6);:_ZNK11stlpmtx_std6vectorIP6ObjectNS_9allocatorIS2_EEE5emptyEv;2B.;operator[]::(0,112)=#(0,93),(0,46),(0,98),(0,16),(0,6);:_ZN11stlpmtx_std6vectorIP6ObjectNS_9allocatorIS2_EEEixEm;2A.(0,113)=#(0,93),(0,50),(0,95),(0,16),(0,6);:_ZNK11stlpmtx_std6vectorIP6ObjectNS_9allocatorIS2_EEEixEm;2B.;front::(0,114)=#(0,93),(0,46),(0,98),(0,6);:_ZN11stlpmtx_std6vectorIP6ObjectNS_9allocatorIS2_EEE5frontEv;2A.(0,115)=#(0,93),(0,50),(0,95),(0,6);:_ZNK11stlpmtx_std6vectorIP6ObjectNS_9allocatorIS2_EEE5frontEv;2B.;back::(0,114):_ZN11stlpmtx_std6vectorIP6ObjectNS_9allocatorIS2_EEE4backEv;2A.(0,115):_ZNK11stlpmtx_std6vectorIP6ObjectNS_9allocatorIS2_EEE4backEv;2B.;at::(0,112):_ZN11stlpmtx_std6vectorIP6ObjectNS_9allocatorIS2_EEE2atEm;2A.(0,113):_ZNK11stlpmtx_std6vectorIP6ObjectNS_9allocatorIS2_EEE2atEm;2B.;__base_ctor::(0,116)=#(0,93),(0,6),(0,98),(0,37),(0,6);:_ZN11stlpmtx_std6vectorIP6ObjectNS_9allocatorIS2_EEEC2ERKS4_;2A.;__comp_ctor::(0,116):_ZN11stlpmtx_std6vectorIP6ObjectNS_9allocatorIS2_EEEC1ERKS4_;2A.;_M_initialize::(0,117)=#(0,93),(0,6),(0,98),(0,16),(0,50),(0,6);:_ZN11stlpmtx_std6vectorIP6ObjectNS_9allocatorIS2_EEE13_M_initializeEmRKS2_;0A.;__base_ctor::(0,118)=#(0,93),(0,6),(0,98),(0,16),(0,6);:_ZN11stlpmtx_std6vectorIP6ObjectNS_9allocatorIS2_EEEC2Em;2A.;__comp_ctor::(0,118):_ZN11stlpmtx_std6vectorIP6ObjectNS_9allocatorIS2_EEEC1Em;2A.;__base_ctor::(0,119)=#(0,93),(0,6),(0,98),(0,16),(0,50),(0,37),(0,6);:_ZN11stlpmtx_std6vectorIP6ObjectNS_9allocatorIS2_EEEC2EmRKS2_RKS4_;2A.;__comp_ctor::(0,119):_ZN11stlpmtx_std6vectorIP6ObjectNS_9allocatorIS2_EEEC1EmRKS2_RKS4_;2A.;__base_ctor::(0,120)=#(0,93),(0,6),(0,98),(0,121)=&(0,96),(0,6);:_ZN11stlpmtx_std6vectorIP6ObjectNS_9allocatorIS2_EEEC2ERKS5_;2A.;__comp_ctor::(0,120):_ZN11stlpmtx_std6vectorIP6ObjectNS_9allocatorIS2_EEEC1ERKS5_;2A.;__base_ctor::(0,122)=#(0,93),(0,6),(0,98),(0,123)=xs__move_source<stlpmtx_std::vector<Object*, stlpmtx_std::allocator<Object*> > >:,(0,6);:_ZN11stlpmtx_std6vectorIP6ObjectNS_9allocatorIS2_EEEC2ENS_13__move_sourceIS5_EE;2A.;__comp_ctor::(0,122):_ZN11stlpmtx_std6vectorIP6ObjectNS_9allocatorIS2_EEEC1ENS_13__move_sourceIS5_EE;2A.;__base_dtor::(0,124)=#(0,93),(0,6),(0,98),(0,6);:_ZN11stlpmtx_std6vectorIP6ObjectNS_9allocatorIS2_EEED2Ev;2A.;__comp_dtor::(0,124):_ZN11stlpmtx_std6vectorIP6ObjectNS_9allocatorIS2_EEED1Ev;2A.;operator=::(0,125)=#(0,93),(0,126)=&(0,93),(0,98),(0,121),(0,6);:_ZN11stlpmtx_std6vectorIP6ObjectNS_9allocatorIS2_EEEaSERKS5_;2A.;reserve::(0,118):_ZN11stlpmtx_std6vectorIP6ObjectNS_9allocatorIS2_EEE7reserveEm;2A.;assign::(0,127)=#(0,93),(0,6),(0,98),(0,16),(0,50),(0,6);:_ZN11stlpmtx_std6vectorIP6ObjectNS_9allocatorIS2_EEE6assignEmRKS2_;2A.;_M_fill_assign::(0,127):_ZN11stlpmtx_std6vectorIP6ObjectNS_9allocatorIS2_EEE14_M_fill_assignEmRKS2_;2A.;push_back::(0,128)=#(0,93),(0,6),(0,98),(0,50),(0,6);:_ZN11stlpmtx_std6vectorIP6ObjectNS_9allocatorIS2_EEE9push_backERKS2_;2A.;insert::(0,129)=#(0,93),(0,42),(0,98),(0,42),(0,50),(0,6);:_ZN11stlpmtx_std6vectorIP6ObjectNS_9allocatorIS2_EEE6insertEPS2_RKS2_;2A.;swap::(0,130)=#(0,93),(0,6),(0,98),(0,126),(0,6);:_ZN11stlpmtx_std6vectorIP6ObjectNS_9allocatorIS2_EEE4swapERS5_;2A.;_M_fill_insert_aux::(0,131)=#(0,93),(0,6),(0,98),(0,42),(0,16),(0,50),(36,5),(0,6);:_ZN11stlpmtx_std6vectorIP6ObjectNS_9allocatorIS2_EEE18_M_fill_insert_auxEPS2_mRKS2_RKNS_11__true_typeE;0A.(0,132)=#(0,93),(0,6),(0,98),(0,42),(0,16),(0,50),(36,13),(0,6);:_ZN11stlpmtx_std6vectorIP6ObjectNS_9allocatorIS2_EEE18_M_fill_insert_auxEPS2_mRKS2_RKNS_12__false_typeE;0A.;_M_fill_insert::(0,133)=#(0,93),(0,6),(0,98),(0,42),(0,16),(0,50),(0,6);:_ZN11stlpmtx_std6vectorIP6ObjectNS_9allocatorIS2_EEE14_M_fill_insertEPS2_mRKS2_;0A.;_M_is_inside::(0,134)=#(0,93),(0,4),(0,95),(0,50),(0,6);:_ZNK11stlpmtx_std6vectorIP6ObjectNS_9allocatorIS2_EEE12_M_is_insideERKS2_;0B.;insert::(0,133):_ZN11stlpmtx_std6vectorIP6ObjectNS_9allocatorIS2_EEE6insertEPS2_mRKS2_;2A.;pop_back::(0,124):_ZN11stlpmtx_std6vectorIP6ObjectNS_9allocatorIS2_EEE8pop_backEv;2A.;_M_erase::(0,135)=#(0,93),(0,42),(0,98),(0,42),(36,5),(0,6);:_ZN11stlpmtx_std6vectorIP6ObjectNS_9allocatorIS2_EEE8_M_eraseEPS2_RKNS_11__true_typeE;0A.(0,136)=#(0,93),(0,42),(0,98),(0,42),(36,13),(0,6);:_ZN11stlpmtx_std6vectorIP6ObjectNS_9allocatorIS2_EEE8_M_eraseEPS2_RKNS_12__false_typeE;0A.(0,137)=#(0,93),(0,42),(0,98),(0,42),(0,42),(36,5),(0,6);:_ZN11stlpmtx_std6vectorIP6ObjectNS_9allocatorIS2_EEE8_M_eraseEPS2_S6_RKNS_11__true_typeE;0A.(0,138)=#(0,93),(0,42),(0,98),(0,42),(0,42),(36,13),(0,6);:_ZN11stlpmtx_std6vectorIP6ObjectNS_9allocatorIS2_EEE8_M_eraseEPS2_S6_RKNS_12__false_typeE;0A.;erase::(0,139)=#(0,93),(0,42),(0,98),(0,42),(0,6);:_ZN11stlpmtx_std6vectorIP6ObjectNS_9allocatorIS2_EEE5eraseEPS2_;2A.(0,140)=#(0,93),(0,42),(0,98),(0,42),(0,42),(0,6);:_ZN11stlpmtx_std6vectorIP6ObjectNS_9allocatorIS2_EEE5eraseEPS2_S6_;2A.;resize::(0,141)=#(0,93),(0,6),(0,98),(0,16),(0,50),(0,6);:_ZN11stlpmtx_std6vectorIP6ObjectNS_9allocatorIS2_EEE6resizeEmRKS2_;2A.;clear::(0,124):_ZN11stlpmtx_std6vectorIP6ObjectNS_9allocatorIS2_EEE5clearEv;2A.;_M_clear::(0,124):_ZN11stlpmtx_std6vectorIP6ObjectNS_9allocatorIS2_EEE8_M_clearEv;0A.;_M_clear_after_move::(0,124):_ZN11stlpmtx_std6vectorIP6ObjectNS_9allocatorIS2_EEE19_M_clear_after_moveEv;0A.;_M_set::(0,142)=#(0,93),(0,6),(0,98),(0,42),(0,42),(0,42),(0,6);:_ZN11stlpmtx_std6vectorIP6ObjectNS_9allocatorIS2_EEE6_M_setEPS2_S6_S6_;0A.;;",128,0,113,0
	.stabs	"__move_source<stlpmtx_std::priv::_Vector_base<IObjAnim::s_resource, stlpmtx_std::allocator<IObjAnim::s_resource> > >:Tt(1,54)=s4_M_data:/0(1,60),0,32;__base_ctor::(0,143)=#(1,54),(0,6),(0,144)=*(1,54),(1,60),(0,6);:_ZN11stlpmtx_std13__move_sourceINS_4priv12_Vector_baseIN8IObjAnim10s_resourceENS_9allocatorIS4_EEEEEC2ERS7_;2A.;__comp_ctor::(0,143):_ZN11stlpmtx_std13__move_sourceINS_4priv12_Vector_baseIN8IObjAnim10s_resourceENS_9allocatorIS4_EEEEEC1ERS7_;2A.;get::(0,145)=#(1,54),(1,60),(0,146)=*(0,147)=k(1,54),(0,6);:_ZNK11stlpmtx_std13__move_sourceINS_4priv12_Vector_baseIN8IObjAnim10s_resourceENS_9allocatorIS4_EEEEE3getEv;2B.;operator=::(0,148)=#(1,54),(0,149)=&(1,54),(0,144),(0,150)=&(0,147),(0,6);:_ZN11stlpmtx_std13__move_sourceINS_4priv12_Vector_baseIN8IObjAnim10s_resourceENS_9allocatorIS4_EEEEEaSERKS8_;0A.;__base_ctor::(0,151)=#(1,54),(0,6),(0,144),(0,150),(0,6);:_ZN11stlpmtx_std13__move_sourceINS_4priv12_Vector_baseIN8IObjAnim10s_resourceENS_9allocatorIS4_EEEEEC2ERKS8_;2A.;__comp_ctor::(0,151):_ZN11stlpmtx_std13__move_sourceINS_4priv12_Vector_baseIN8IObjAnim10s_resourceENS_9allocatorIS4_EEEEEC1ERKS8_;2A.;;",128,0,35,0
	.stabs	"iterator_traits<IObjAnim::s_resource*>:Tt(0,152)=s1operator=::(0,153)=#(0,152),(0,154)=&(0,152),(0,155)=*(0,152),(0,156)=&(0,157)=k(0,152),(0,6);:_ZN11stlpmtx_std15iterator_traitsIPN8IObjAnim10s_resourceEEaSERKS4_;2A.;__base_ctor::(0,158)=#(0,152),(0,6),(0,155),(0,156),(0,6);:_ZN11stlpmtx_std15iterator_traitsIPN8IObjAnim10s_resourceEEC2ERKS4_;2A.;__comp_ctor::(0,158):_ZN11stlpmtx_std15iterator_traitsIPN8IObjAnim10s_resourceEEC1ERKS4_;2A.;__base_ctor::(0,159)=#(0,152),(0,6),(0,155),(0,6);:_ZN11stlpmtx_std15iterator_traitsIPN8IObjAnim10s_resourceEEC2Ev;2A.;__comp_ctor::(0,159):_ZN11stlpmtx_std15iterator_traitsIPN8IObjAnim10s_resourceEEC1Ev;2A.;;",128,0,147,0
	.stabs	"iterator<stlpmtx_std::random_access_iterator_tag,IObjAnim::s_resource,ptrdiff_t,IObjAnim::s_resource*,IObjAnim::s_resource&>:Tt(0,160)=s1operator=::(0,161)=#(0,160),(0,162)=&(0,160),(0,163)=*(0,160),(0,164)=&(0,165)=k(0,160),(0,6);:_ZN11stlpmtx_std8iteratorINS_26random_access_iterator_tagEN8IObjAnim10s_resourceEiPS3_RS3_EaSERKS6_;2A.;__base_ctor::(0,166)=#(0,160),(0,6),(0,163),(0,164),(0,6);:_ZN11stlpmtx_std8iteratorINS_26random_access_iterator_tagEN8IObjAnim10s_resourceEiPS3_RS3_EC2ERKS6_;2A.;__comp_ctor::(0,166):_ZN11stlpmtx_std8iteratorINS_26random_access_iterator_tagEN8IObjAnim10s_resourceEiPS3_RS3_EC1ERKS6_;2A.;__base_ctor::(0,167)=#(0,160),(0,6),(0,163),(0,6);:_ZN11stlpmtx_std8iteratorINS_26random_access_iterator_tagEN8IObjAnim10s_resourceEiPS3_RS3_EC2Ev;2A.;__comp_ctor::(0,167):_ZN11stlpmtx_std8iteratorINS_26random_access_iterator_tagEN8IObjAnim10s_resourceEiPS3_RS3_EC1Ev;2A.;;",128,0,59,0
	.stabs	"reverse_iterator<IObjAnim::s_resource*>:Tt(1,77)=s4!1,020,(0,160);current:/1(68,4),0,32;__base_ctor::(0,168)=#(1,77),(0,6),(0,169)=*(1,77),(0,6);:_ZN11stlpmtx_std16reverse_iteratorIPN8IObjAnim10s_resourceEEC2Ev;2A.;__comp_ctor::(0,168):_ZN11stlpmtx_std16reverse_iteratorIPN8IObjAnim10s_resourceEEC1Ev;2A.;__base_ctor::(0,170)=#(1,77),(0,6),(0,169),(68,4),(0,6);:_ZN11stlpmtx_std16reverse_iteratorIPN8IObjAnim10s_resourceEEC2ES3_;2A.;__comp_ctor::(0,170):_ZN11stlpmtx_std16reverse_iteratorIPN8IObjAnim10s_resourceEEC1ES3_;2A.;__base_ctor::(0,171)=#(1,77),(0,6),(0,169),(0,172)=&(0,173)=k(1,77),(0,6);:_ZN11stlpmtx_std16reverse_iteratorIPN8IObjAnim10s_resourceEEC2ERKS4_;2A.;__comp_ctor::(0,171):_ZN11stlpmtx_std16reverse_iteratorIPN8IObjAnim10s_resourceEEC1ERKS4_;2A.;operator=::(0,174)=#(1,77),(0,175)=&(1,77),(0,169),(0,172),(0,6);:_ZN11stlpmtx_std16reverse_iteratorIPN8IObjAnim10s_resourceEEaSERKS4_;2A.;base::(0,176)=#(1,77),(68,4),(0,177)=*(0,173),(0,6);:_ZNK11stlpmtx_std16reverse_iteratorIPN8IObjAnim10s_resourceEE4baseEv;2B.;operator*::(0,178)=#(1,77),(68,3),(0,177),(0,6);:_ZNK11stlpmtx_std16reverse_iteratorIPN8IObjAnim10s_resourceEEdeEv;2B.;operator->::(0,176):_ZNK11stlpmtx_std16reverse_iteratorIPN8IObjAnim10s_resourceEEptEv;2B.;operator++::(0,179)=#(1,77),(0,175),(0,169),(0,6);:_ZN11stlpmtx_std16reverse_iteratorIPN8IObjAnim10s_resourceEEppEv;2A.(0,180)=#(1,77),(1,77),(0,169),(0,3),(0,6);:_ZN11stlpmtx_std16reverse_iteratorIPN8IObjAnim10s_resourceEEppEi;2A.;operator--::(0,179):_ZN11stlpmtx_std16reverse_iteratorIPN8IObjAnim10s_resourceEEmmEv;2A.(0,180):_ZN11stlpmtx_std16reverse_iteratorIPN8IObjAnim10s_resourceEEmmEi;2A.;operator+::(0,181)=#(1,77),(1,77),(0,177),(0,3),(0,6);:_ZNK11stlpmtx_std16reverse_iteratorIPN8IObjAnim10s_resourceEEplEi;2B.;operator+=::(0,182)=#(1,77),(0,175),(0,169),(0,3),(0,6);:_ZN11stlpmtx_std16reverse_iteratorIPN8IObjAnim10s_resourceEEpLEi;2A.;operator-::(0,181):_ZNK11stlpmtx_std16reverse_iteratorIPN8IObjAnim10s_resourceEEmiEi;2B.;operator-=::(0,182):_ZN11stlpmtx_std16reverse_iteratorIPN8IObjAnim10s_resourceEEmIEi;2A.;operator[]::(0,183)=#(1,77),(68,3),(0,177),(0,3),(0,6);:_ZNK11stlpmtx_std16reverse_iteratorIPN8IObjAnim10s_resourceEEixEi;2B.;;",128,0,52,0
	.stabs	"__move_source<stlpmtx_std::priv::_Vector_base<Object*, stlpmtx_std::allocator<Object*> > >:Tt(0,84)=s4_M_data:/0(0,90),0,32;__base_ctor::(0,184)=#(0,84),(0,6),(0,185)=*(0,84),(0,90),(0,6);:_ZN11stlpmtx_std13__move_sourceINS_4priv12_Vector_baseIP6ObjectNS_9allocatorIS4_EEEEEC2ERS7_;2A.;__comp_ctor::(0,184):_ZN11stlpmtx_std13__move_sourceINS_4priv12_Vector_baseIP6ObjectNS_9allocatorIS4_EEEEEC1ERS7_;2A.;get::(0,186)=#(0,84),(0,90),(0,187)=*(0,188)=k(0,84),(0,6);:_ZNK11stlpmtx_std13__move_sourceINS_4priv12_Vector_baseIP6ObjectNS_9allocatorIS4_EEEEE3getEv;2B.;operator=::(0,189)=#(0,84),(0,190)=&(0,84),(0,185),(0,191)=&(0,188),(0,6);:_ZN11stlpmtx_std13__move_sourceINS_4priv12_Vector_baseIP6ObjectNS_9allocatorIS4_EEEEEaSERKS8_;0A.;__base_ctor::(0,192)=#(0,84),(0,6),(0,185),(0,191),(0,6);:_ZN11stlpmtx_std13__move_sourceINS_4priv12_Vector_baseIP6ObjectNS_9allocatorIS4_EEEEEC2ERKS8_;2A.;__comp_ctor::(0,192):_ZN11stlpmtx_std13__move_sourceINS_4priv12_Vector_baseIP6ObjectNS_9allocatorIS4_EEEEEC1ERKS8_;2A.;;",128,0,35,0
	.stabs	"iterator_traits<Object**>:Tt(0,193)=s1operator=::(0,194)=#(0,193),(0,195)=&(0,193),(0,196)=*(0,193),(0,197)=&(0,198)=k(0,193),(0,6);:_ZN11stlpmtx_std15iterator_traitsIPP6ObjectEaSERKS4_;2A.;__base_ctor::(0,199)=#(0,193),(0,6),(0,196),(0,197),(0,6);:_ZN11stlpmtx_std15iterator_traitsIPP6ObjectEC2ERKS4_;2A.;__comp_ctor::(0,199):_ZN11stlpmtx_std15iterator_traitsIPP6ObjectEC1ERKS4_;2A.;__base_ctor::(0,200)=#(0,193),(0,6),(0,196),(0,6);:_ZN11stlpmtx_std15iterator_traitsIPP6ObjectEC2Ev;2A.;__comp_ctor::(0,200):_ZN11stlpmtx_std15iterator_traitsIPP6ObjectEC1Ev;2A.;;",128,0,147,0
	.stabs	"iterator<stlpmtx_std::random_access_iterator_tag,Object*,ptrdiff_t,Object**,Object*&>:Tt(0,201)=s1operator=::(0,202)=#(0,201),(0,203)=&(0,201),(0,204)=*(0,201),(0,205)=&(0,206)=k(0,201),(0,6);:_ZN11stlpmtx_std8iteratorINS_26random_access_iterator_tagEP6ObjectiPS3_RS3_EaSERKS6_;2A.;__base_ctor::(0,207)=#(0,201),(0,6),(0,204),(0,205),(0,6);:_ZN11stlpmtx_std8iteratorINS_26random_access_iterator_tagEP6ObjectiPS3_RS3_EC2ERKS6_;2A.;__comp_ctor::(0,207):_ZN11stlpmtx_std8iteratorINS_26random_access_iterator_tagEP6ObjectiPS3_RS3_EC1ERKS6_;2A.;__base_ctor::(0,208)=#(0,201),(0,6),(0,204),(0,6);:_ZN11stlpmtx_std8iteratorINS_26random_access_iterator_tagEP6ObjectiPS3_RS3_EC2Ev;2A.;__comp_ctor::(0,208):_ZN11stlpmtx_std8iteratorINS_26random_access_iterator_tagEP6ObjectiPS3_RS3_EC1Ev;2A.;;",128,0,59,0
	.stabs	"reverse_iterator<Object**>:Tt(0,107)=s4!1,020,(0,201);current:/1(0,42),0,32;__base_ctor::(0,209)=#(0,107),(0,6),(0,210)=*(0,107),(0,6);:_ZN11stlpmtx_std16reverse_iteratorIPP6ObjectEC2Ev;2A.;__comp_ctor::(0,209):_ZN11stlpmtx_std16reverse_iteratorIPP6ObjectEC1Ev;2A.;__base_ctor::(0,211)=#(0,107),(0,6),(0,210),(0,42),(0,6);:_ZN11stlpmtx_std16reverse_iteratorIPP6ObjectEC2ES3_;2A.;__comp_ctor::(0,211):_ZN11stlpmtx_std16reverse_iteratorIPP6ObjectEC1ES3_;2A.;__base_ctor::(0,212)=#(0,107),(0,6),(0,210),(0,213)=&(0,214)=k(0,107),(0,6);:_ZN11stlpmtx_std16reverse_iteratorIPP6ObjectEC2ERKS4_;2A.;__comp_ctor::(0,212):_ZN11stlpmtx_std16reverse_iteratorIPP6ObjectEC1ERKS4_;2A.;operator=::(0,215)=#(0,107),(0,216)=&(0,107),(0,210),(0,213),(0,6);:_ZN11stlpmtx_std16reverse_iteratorIPP6ObjectEaSERKS4_;2A.;base::(0,217)=#(0,107),(0,42),(0,218)=*(0,214),(0,6);:_ZNK11stlpmtx_std16reverse_iteratorIPP6ObjectE4baseEv;2B.;operator*::(0,219)=#(0,107),(0,46),(0,218),(0,6);:_ZNK11stlpmtx_std16reverse_iteratorIPP6ObjectEdeEv;2B.;operator->::(0,217):_ZNK11stlpmtx_std16reverse_iteratorIPP6ObjectEptEv;2B.;operator++::(0,220)=#(0,107),(0,216),(0,210),(0,6);:_ZN11stlpmtx_std16reverse_iteratorIPP6ObjectEppEv;2A.(0,221)=#(0,107),(0,107),(0,210),(0,3),(0,6);:_ZN11stlpmtx_std16reverse_iteratorIPP6ObjectEppEi;2A.;operator--::(0,220):_ZN11stlpmtx_std16reverse_iteratorIPP6ObjectEmmEv;2A.(0,221):_ZN11stlpmtx_std16reverse_iteratorIPP6ObjectEmmEi;2A.;operator+::(0,222)=#(0,107),(0,107),(0,218),(0,3),(0,6);:_ZNK11stlpmtx_std16reverse_iteratorIPP6ObjectEplEi;2B.;operator+=::(0,223)=#(0,107),(0,216),(0,210),(0,3),(0,6);:_ZN11stlpmtx_std16reverse_iteratorIPP6ObjectEpLEi;2A.;operator-::(0,222):_ZNK11stlpmtx_std16reverse_iteratorIPP6ObjectEmiEi;2B.;operator-=::(0,223):_ZN11stlpmtx_std16reverse_iteratorIPP6ObjectEmIEi;2A.;operator[]::(0,224)=#(0,107),(0,46),(0,218),(0,3),(0,6);:_ZNK11stlpmtx_std16reverse_iteratorIPP6ObjectEixEi;2B.;;",128,0,52,0
	.stabs	"__type_traits<Object*>:Tt(0,225)=s1!1,020,(35,121);operator=::(0,226)=#(0,225),(0,227)=&(0,225),(0,228)=*(0,225),(0,229)=&(0,230)=k(0,225),(0,6);:_ZN11stlpmtx_std13__type_traitsIP6ObjectEaSERKS3_;2A.;__base_ctor::(0,231)=#(0,225),(0,6),(0,228),(0,229),(0,6);:_ZN11stlpmtx_std13__type_traitsIP6ObjectEC2ERKS3_;2A.;__comp_ctor::(0,231):_ZN11stlpmtx_std13__type_traitsIP6ObjectEC1ERKS3_;2A.;__base_ctor::(0,232)=#(0,225),(0,6),(0,228),(0,6);:_ZN11stlpmtx_std13__type_traitsIP6ObjectEC2Ev;2A.;__comp_ctor::(0,232):_ZN11stlpmtx_std13__type_traitsIP6ObjectEC1Ev;2A.;;",128,0,224,0
	.stabs	"vector<Object*,stlpmtx_std::allocator<Object*> >::_TrivialCopy:t(0,233)=(36,1)",128,0,385,0
	.stabs	"iterator_traits<stlpmtx_std::reverse_iterator<IObjAnim::s_resource*> >:Tt(0,234)=s1operator=::(0,235)=#(0,234),(0,236)=&(0,234),(0,237)=*(0,234),(0,238)=&(0,239)=k(0,234),(0,6);:_ZN11stlpmtx_std15iterator_traitsINS_16reverse_iteratorIPN8IObjAnim10s_resourceEEEEaSERKS6_;2A.;__base_ctor::(0,240)=#(0,234),(0,6),(0,237),(0,238),(0,6);:_ZN11stlpmtx_std15iterator_traitsINS_16reverse_iteratorIPN8IObjAnim10s_resourceEEEEC2ERKS6_;2A.;__comp_ctor::(0,240):_ZN11stlpmtx_std15iterator_traitsINS_16reverse_iteratorIPN8IObjAnim10s_resourceEEEEC1ERKS6_;2A.;__base_ctor::(0,241)=#(0,234),(0,6),(0,237),(0,6);:_ZN11stlpmtx_std15iterator_traitsINS_16reverse_iteratorIPN8IObjAnim10s_resourceEEEEC2Ev;2A.;__comp_ctor::(0,241):_ZN11stlpmtx_std15iterator_traitsINS_16reverse_iteratorIPN8IObjAnim10s_resourceEEEEC1Ev;2A.;;",128,0,147,0
	.stabs	"__move_traits<Object*>:Tt(0,242)=s1operator=::(0,243)=#(0,242),(0,244)=&(0,242),(0,245)=*(0,242),(0,246)=&(0,247)=k(0,242),(0,6);:_ZN11stlpmtx_std13__move_traitsIP6ObjectEaSERKS3_;2A.;__base_ctor::(0,248)=#(0,242),(0,6),(0,245),(0,246),(0,6);:_ZN11stlpmtx_std13__move_traitsIP6ObjectEC2ERKS3_;2A.;__comp_ctor::(0,248):_ZN11stlpmtx_std13__move_traitsIP6ObjectEC1ERKS3_;2A.;__base_ctor::(0,249)=#(0,242),(0,6),(0,245),(0,6);:_ZN11stlpmtx_std13__move_traitsIP6ObjectEC2Ev;2A.;__comp_ctor::(0,249):_ZN11stlpmtx_std13__move_traitsIP6ObjectEC1Ev;2A.;;",128,0,52,0
	.stabs	"vector<Object*,stlpmtx_std::allocator<Object*> >::_Movable:t(0,250)=(36,9)",128,0,628,0
	.stabs	"iterator_traits<stlpmtx_std::reverse_iterator<Object**> >:Tt(0,251)=s1operator=::(0,252)=#(0,251),(0,253)=&(0,251),(0,254)=*(0,251),(0,255)=&(0,256)=k(0,251),(0,6);:_ZN11stlpmtx_std15iterator_traitsINS_16reverse_iteratorIPP6ObjectEEEaSERKS6_;2A.;__base_ctor::(0,257)=#(0,251),(0,6),(0,254),(0,255),(0,6);:_ZN11stlpmtx_std15iterator_traitsINS_16reverse_iteratorIPP6ObjectEEEC2ERKS6_;2A.;__comp_ctor::(0,257):_ZN11stlpmtx_std15iterator_traitsINS_16reverse_iteratorIPP6ObjectEEEC1ERKS6_;2A.;__base_ctor::(0,258)=#(0,251),(0,6),(0,254),(0,6);:_ZN11stlpmtx_std15iterator_traitsINS_16reverse_iteratorIPP6ObjectEEEC2Ev;2A.;__comp_ctor::(0,258):_ZN11stlpmtx_std15iterator_traitsINS_16reverse_iteratorIPP6ObjectEEEC1Ev;2A.;;",128,0,147,0
	.stabs	"_IsPOD<Object*>:Tt(0,259)=s1_Answer::(0,260)=f(36,1):_ZN11stlpmtx_std6_IsPODIP6ObjectE7_AnswerEv;2A?;operator=::(0,261)=#(0,259),(0,262)=&(0,259),(0,263)=*(0,259),(0,264)=&(0,265)=k(0,259),(0,6);:_ZN11stlpmtx_std6_IsPODIP6ObjectEaSERKS3_;2A.;__base_ctor::(0,266)=#(0,259),(0,6),(0,263),(0,264),(0,6);:_ZN11stlpmtx_std6_IsPODIP6ObjectEC2ERKS3_;2A.;__comp_ctor::(0,266):_ZN11stlpmtx_std6_IsPODIP6ObjectEC1ERKS3_;2A.;__base_ctor::(0,267)=#(0,259),(0,6),(0,263),(0,6);:_ZN11stlpmtx_std6_IsPODIP6ObjectEC2Ev;2A.;__comp_ctor::(0,267):_ZN11stlpmtx_std6_IsPODIP6ObjectEC1Ev;2A.;;",128,0,545,0
	.stabs	"__move_source<stlpmtx_std::allocator<IObjAnim::s_resource> >:Tt(1,16)=s4_M_data:/0(1,29),0,32;__base_ctor::(0,268)=#(1,16),(0,6),(0,269)=*(1,16),(1,29),(0,6);:_ZN11stlpmtx_std13__move_sourceINS_9allocatorIN8IObjAnim10s_resourceEEEEC2ERS4_;2A.;__comp_ctor::(0,268):_ZN11stlpmtx_std13__move_sourceINS_9allocatorIN8IObjAnim10s_resourceEEEEC1ERS4_;2A.;get::(0,270)=#(1,16),(1,29),(0,271)=*(0,272)=k(1,16),(0,6);:_ZNK11stlpmtx_std13__move_sourceINS_9allocatorIN8IObjAnim10s_resourceEEEE3getEv;2B.;operator=::(0,273)=#(1,16),(0,274)=&(1,16),(0,269),(0,275)=&(0,272),(0,6);:_ZN11stlpmtx_std13__move_sourceINS_9allocatorIN8IObjAnim10s_resourceEEEEaSERKS5_;0A.;__base_ctor::(0,276)=#(1,16),(0,6),(0,269),(0,275),(0,6);:_ZN11stlpmtx_std13__move_sourceINS_9allocatorIN8IObjAnim10s_resourceEEEEC2ERKS5_;2A.;__comp_ctor::(0,276):_ZN11stlpmtx_std13__move_sourceINS_9allocatorIN8IObjAnim10s_resourceEEEEC1ERKS5_;2A.;;",128,0,35,0
	.stabs	"__type_traits<IObjAnim::s_resource>:Tt(0,277)=s1operator=::(0,278)=#(0,277),(0,279)=&(0,277),(0,280)=*(0,277),(0,281)=&(0,282)=k(0,277),(0,6);:_ZN11stlpmtx_std13__type_traitsIN8IObjAnim10s_resourceEEaSERKS3_;2A.;__base_ctor::(0,283)=#(0,277),(0,6),(0,280),(0,281),(0,6);:_ZN11stlpmtx_std13__type_traitsIN8IObjAnim10s_resourceEEC2ERKS3_;2A.;__comp_ctor::(0,283):_ZN11stlpmtx_std13__type_traitsIN8IObjAnim10s_resourceEEC1ERKS3_;2A.;__base_ctor::(0,284)=#(0,277),(0,6),(0,280),(0,6);:_ZN11stlpmtx_std13__type_traitsIN8IObjAnim10s_resourceEEC2Ev;2A.;__comp_ctor::(0,284):_ZN11stlpmtx_std13__type_traitsIN8IObjAnim10s_resourceEEC1Ev;2A.;;",128,0,224,0
	.stabs	"_Trivial_destructor:t(0,285)=(36,9)",128,0,214,0
	.stabs	"__move_source<stlpmtx_std::allocator<Object*> >:Tt(0,40)=s4_M_data:/0(0,59),0,32;__base_ctor::(0,286)=#(0,40),(0,6),(0,287)=*(0,40),(0,59),(0,6);:_ZN11stlpmtx_std13__move_sourceINS_9allocatorIP6ObjectEEEC2ERS4_;2A.;__comp_ctor::(0,286):_ZN11stlpmtx_std13__move_sourceINS_9allocatorIP6ObjectEEEC1ERS4_;2A.;get::(0,288)=#(0,40),(0,59),(0,289)=*(0,290)=k(0,40),(0,6);:_ZNK11stlpmtx_std13__move_sourceINS_9allocatorIP6ObjectEEE3getEv;2B.;operator=::(0,291)=#(0,40),(0,292)=&(0,40),(0,287),(0,293)=&(0,290),(0,6);:_ZN11stlpmtx_std13__move_sourceINS_9allocatorIP6ObjectEEEaSERKS5_;0A.;__base_ctor::(0,294)=#(0,40),(0,6),(0,287),(0,293),(0,6);:_ZN11stlpmtx_std13__move_sourceINS_9allocatorIP6ObjectEEEC2ERKS5_;2A.;__comp_ctor::(0,294):_ZN11stlpmtx_std13__move_sourceINS_9allocatorIP6ObjectEEEC1ERKS5_;2A.;;",128,0,35,0
	.stabs	"vector<Object*,stlpmtx_std::allocator<Object*> >::_TrivialCopy:t(0,295)=(36,1)",128,0,612,0
	.stabs	"_Trivial_destructor:t(0,296)=(36,1)",128,0,214,0
	.stabs	"_ConversionHelper<stlpmtx_std::allocator<Object*>*,const volatile stlpmtx_std::__stlport_class<stlpmtx_std::allocator<Object*> >*>:Tt(0,297)=s1_Test::(0,298)=f(0,19):_ZN11stlpmtx_std17_ConversionHelperIPNS_9allocatorIP6ObjectEEPVKNS_15__stlport_classIS4_EEE5_TestEbS9_;2A?(0,299)=f(13,93):_ZN11stlpmtx_std17_ConversionHelperIPNS_9allocatorIP6ObjectEEPVKNS_15__stlport_classIS4_EEE5_TestEbz;2A?;_MakeSource::(0,300)=f(0,35):_ZN11stlpmtx_std17_ConversionHelperIPNS_9allocatorIP6ObjectEEPVKNS_15__stlport_classIS4_EEE11_MakeSourceEv;2A?;operator=::(0,301)=#(0,297),(0,302)=&(0,297),(0,303)=*(0,297),(0,304)=&(0,305)=k(0,297),(0,6);:_ZN11stlpmtx_std17_ConversionHelperIPNS_9allocatorIP6ObjectEEPVKNS_15__stlport_classIS4_EEEaSERKSA_;2A.;__base_ctor::(0,306)=#(0,297),(0,6),(0,303),(0,304),(0,6);:_ZN11stlpmtx_std17_ConversionHelperIPNS_9allocatorIP6ObjectEEPVKNS_15__stlport_classIS4_EEEC2ERKSA_;2A.;__comp_ctor::(0,306):_ZN11stlpmtx_std17_ConversionHelperIPNS_9allocatorIP6ObjectEEPVKNS_15__stlport_classIS4_EEEC1ERKSA_;2A.;__base_ctor::(0,307)=#(0,297),(0,6),(0,303),(0,6);:_ZN11stlpmtx_std17_ConversionHelperIPNS_9allocatorIP6ObjectEEPVKNS_15__stlport_classIS4_EEEC2Ev;2A.;__comp_ctor::(0,307):_ZN11stlpmtx_std17_ConversionHelperIPNS_9allocatorIP6ObjectEEPVKNS_15__stlport_classIS4_EEEC1Ev;2A.;;",128,0,224,0
	.stabs	"_IsConvertible<stlpmtx_std::allocator<Object*>,stlpmtx_std::__stlport_class<stlpmtx_std::allocator<Object*> > >:Tt(0,308)=s1operator=::(0,309)=#(0,308),(0,310)=&(0,308),(0,311)=*(0,308),(0,312)=&(0,313)=k(0,308),(0,6);:_ZN11stlpmtx_std14_IsConvertibleINS_9allocatorIP6ObjectEENS_15__stlport_classIS4_EEEaSERKS7_;2A.;__base_ctor::(0,314)=#(0,308),(0,6),(0,311),(0,312),(0,6);:_ZN11stlpmtx_std14_IsConvertibleINS_9allocatorIP6ObjectEENS_15__stlport_classIS4_EEEC2ERKS7_;2A.;__comp_ctor::(0,314):_ZN11stlpmtx_std14_IsConvertibleINS_9allocatorIP6ObjectEENS_15__stlport_classIS4_EEEC1ERKS7_;2A.;__base_ctor::(0,315)=#(0,308),(0,6),(0,311),(0,6);:_ZN11stlpmtx_std14_IsConvertibleINS_9allocatorIP6ObjectEENS_15__stlport_classIS4_EEEC2Ev;2A.;__comp_ctor::(0,315):_ZN11stlpmtx_std14_IsConvertibleINS_9allocatorIP6ObjectEENS_15__stlport_classIS4_EEEC1Ev;2A.;;",128,0,231,0
	.stabs	"_IsSTLportClass<stlpmtx_std::allocator<Object*> >:Tt(0,316)=s1operator=::(0,317)=#(0,316),(0,318)=&(0,316),(0,319)=*(0,316),(0,320)=&(0,321)=k(0,316),(0,6);:_ZN11stlpmtx_std15_IsSTLportClassINS_9allocatorIP6ObjectEEEaSERKS5_;2A.;__base_ctor::(0,322)=#(0,316),(0,6),(0,319),(0,320),(0,6);:_ZN11stlpmtx_std15_IsSTLportClassINS_9allocatorIP6ObjectEEEC2ERKS5_;2A.;__comp_ctor::(0,322):_ZN11stlpmtx_std15_IsSTLportClassINS_9allocatorIP6ObjectEEEC1ERKS5_;2A.;__base_ctor::(0,323)=#(0,316),(0,6),(0,319),(0,6);:_ZN11stlpmtx_std15_IsSTLportClassINS_9allocatorIP6ObjectEEEC2Ev;2A.;__comp_ctor::(0,323):_ZN11stlpmtx_std15_IsSTLportClassINS_9allocatorIP6ObjectEEEC1Ev;2A.;;",128,0,575,0
	.stabs	"_STLP_alloc_proxy<Object**,Object*,stlpmtx_std::allocator<Object*> >::_STLportAlloc:t(0,324)=(36,1)",128,0,527,0
	.stabs	"_Trivial_destructor:t(0,325)=(36,1)",128,0,214,0
	.stabs	"Game:Tt(0,326)=s28_vptr$Game:(0,327)=*(0,1),0,32;resources:/0(1,63),32,96;objects:/0(0,98),128,32;area_size:/0(2,1),160,64;__base_ctor::(0,328)=#(0,326),(0,6),(0,329)=*(0,326),(2,1),(0,6);:_ZN4GameC2E6Vertex;2A.;__comp_ctor::(0,328):_ZN4GameC1E6Vertex;2A.;__base_dtor::(0,330)=#(0,326),(0,6),(0,329),(0,6);:_ZN4GameD2Ev;2A.;__comp_dtor::(0,330):_ZN4GameD1Ev;2A*0;(0,326);;__deleting_dtor::(0,330):_ZN4GameD0Ev;2A*1;(0,326);;AreaSize::(0,331)=#(0,326),(0,332)=&(2,1),(0,329),(0,6);:_ZN4Game8AreaSizeEv;2A.;Resources::(0,333)=#(0,326),(1,96),(0,329),(0,6);:_ZN4Game9ResourcesEv;2A.;UpdateObjects::(0,334)=#(0,326),(0,3),(0,329),(0,18),(0,6);:_ZN4Game13UpdateObjectsEl;2A.;GetObjects::(0,335)=#(0,326),(0,98),(0,329),(0,6);:_ZN4Game10GetObjectsEv;2A.;AddObj::(0,330):_ZN4Game6AddObjEv;2A.;operator=::(0,336)=#(0,326),(0,337)=&(0,326),(0,329),(0,338)=&(0,339)=k(0,326),(0,6);:_ZN4GameaSERKS_;2A.;__base_ctor::(0,340)=#(0,326),(0,6),(0,329),(0,338),(0,6);:_ZN4GameC2ERKS_;2A.;__comp_ctor::(0,340):_ZN4GameC1ERKS_;2A.;;~%(0,326);",128,0,8,0
	.stabs	"IObjAnim:Tt(0,341)=s4_vptr$IObjAnim:(0,327),0,32;__base_ctor::(0,342)=#(0,341),(0,6),(0,343)=*(0,341),(0,6);:_ZN8IObjAnimC2Ev;2A.;__comp_ctor::(0,342):_ZN8IObjAnimC1Ev;2A.;__base_dtor::(0,342):_ZN8IObjAnimD2Ev;2A.;__comp_dtor::(0,342):_ZN8IObjAnimD1Ev;2A*0;(0,341);;__deleting_dtor::(0,342):_ZN8IObjAnimD0Ev;2A*1;(0,341);;Update::(0,344)=#(0,341),(0,6),(0,343),(0,18),(0,6);:_ZN8IObjAnim6UpdateEl;2A*2;(0,341);;SetResource::(0,345)=#(0,341),(0,6),(0,343),(68,1),(0,6);:_ZN8IObjAnim11SetResourceENS_10s_resourceE;2A*3;(0,341);;AnimParams::(0,346)=#(0,341),(68,11),(0,343),(0,6);:_ZN8IObjAnim10AnimParamsEv;2A*4;(0,341);;operator=::(0,347)=#(0,341),(0,348)=&(0,341),(0,343),(0,349)=&(0,350)=k(0,341),(0,6);:_ZN8IObjAnimaSERKS_;2A.;__base_ctor::(0,351)=#(0,341),(0,6),(0,343),(0,349),(0,6);:_ZN8IObjAnimC2ERKS_;2A.;__comp_ctor::(0,351):_ZN8IObjAnimC1ERKS_;2A.;;~%(0,341);",128,0,9,0
	.stabs	"IObjMove:Tt(0,352)=s4_vptr$IObjMove:(0,327),0,32;__base_ctor::(0,353)=#(0,352),(0,6),(0,354)=*(0,352),(0,6);:_ZN8IObjMoveC2Ev;2A.;__comp_ctor::(0,353):_ZN8IObjMoveC1Ev;2A.;__base_dtor::(0,353):_ZN8IObjMoveD2Ev;2A.;__comp_dtor::(0,353):_ZN8IObjMoveD1Ev;2A*0;(0,352);;__deleting_dtor::(0,353):_ZN8IObjMoveD0Ev;2A*1;(0,352);;Update::(0,355)=#(0,352),(0,6),(0,354),(0,18),(0,6);:_ZN8IObjMove6UpdateEl;2A*2;(0,352);;Move::(0,356)=#(0,352),(7,2),(0,354),(7,1),(2,1),(0,6);:_ZN8IObjMove4MoveENS_6e_statE6Vertex;2A*3;(0,352);;MoveParams::(0,357)=#(0,352),(7,3),(0,354),(0,6);:_ZN8IObjMove10MoveParamsEv;2A*4;(0,352);;operator=::(0,358)=#(0,352),(0,359)=&(0,352),(0,354),(0,360)=&(0,361)=k(0,352),(0,6);:_ZN8IObjMoveaSERKS_;2A.;__base_ctor::(0,362)=#(0,352),(0,6),(0,354),(0,360),(0,6);:_ZN8IObjMoveC2ERKS_;2A.;__comp_ctor::(0,362):_ZN8IObjMoveC1ERKS_;2A.;;~%(0,352);",128,0,9,0
	.stabs	"IObjBase:Tt(0,363)=s4_vptr$IObjBase:(0,327),0,32;__base_ctor::(0,364)=#(0,363),(0,6),(0,365)=*(0,363),(0,6);:_ZN8IObjBaseC2Ev;2A.;__comp_ctor::(0,364):_ZN8IObjBaseC1Ev;2A.;__base_dtor::(0,364):_ZN8IObjBaseD2Ev;2A.;__comp_dtor::(0,364):_ZN8IObjBaseD1Ev;2A*0;(0,363);;__deleting_dtor::(0,364):_ZN8IObjBaseD0Ev;2A*1;(0,363);;Update::(0,366)=#(0,363),(0,6),(0,365),(0,18),(0,6);:_ZN8IObjBase6UpdateEl;2A*2;(0,363);;BaseParams::(0,367)=#(0,363),(5,3),(0,365),(0,6);:_ZN8IObjBase10BaseParamsEv;2A*3;(0,363);;operator=::(0,368)=#(0,363),(0,369)=&(0,363),(0,365),(0,370)=&(0,371)=k(0,363),(0,6);:_ZN8IObjBaseaSERKS_;2A.;__base_ctor::(0,372)=#(0,363),(0,6),(0,365),(0,370),(0,6);:_ZN8IObjBaseC2ERKS_;2A.;__comp_ctor::(0,372):_ZN8IObjBaseC1ERKS_;2A.;;~%(0,363);",128,0,9,0
	.global	__ZTV4Game
.data
	.align 4
__ZTV4Game:
	.long	0
	.long	0
	.long	__ZN4GameD1Ev
	.long	__ZN4GameD0Ev
.code
	.stabs	"_ZN4Game8AreaSizeEv:F(0,332)",36,0,18,__ZN4Game8AreaSizeEv
	.stabs	"this:P(0,373)=k(0,329)",64,0,18,12
	.global	__ZN4Game8AreaSizeEv

.func __ZN4Game8AreaSizeEv, 1, int
	.line 18
	push fr,fr
	ld   fr,sp
	add  fr,#0x4
	.line 20
	ld   r14,i0
	add  r14,#0x14
	pop  fr,fr
	ret
Lscope0:
	.stabs	"_ZN4Game9ResourcesEv:F(1,96)",36,0,23,__ZN4Game9ResourcesEv
	.stabs	"this:P(0,373)",64,0,23,12
	.global	__ZN4Game9ResourcesEv

.func __ZN4Game9ResourcesEv, 1, int
	.line 23
	push fr,fr
	ld   fr,sp
	add  fr,#0x4
	.line 25
	ld   r14,i0
	add  r14,#0x4
	pop  fr,fr
	ret
Lscope1:
	.stabs	"_ZN4Game10GetObjectsEv:F(0,98)",36,0,36,__ZN4Game10GetObjectsEv
	.stabs	"this:P(0,373)",64,0,36,12
	.global	__ZN4Game10GetObjectsEv

.func __ZN4Game10GetObjectsEv, 1, int
	.line 36
	push fr,fr
	ld   fr,sp
	add  fr,#0x4
	.line 38
	ld   r14,[i0,16]
	pop  fr,fr
	ret
Lscope2:
	.stabs	"_ZN4Game13UpdateObjectsEl:F(0,3)",36,0,28,__ZN4Game13UpdateObjectsEl
	.stabs	"this:P(0,373)",64,0,28,6
	.stabs	"timestamp:P(0,18)",64,0,28,7
	.global	__ZN4Game13UpdateObjectsEl

.func __ZN4Game13UpdateObjectsEl, 2, int
	.line 28
	push rt,d3
	ld   fr,sp
	add  fr,#0x18
	ld   d2,i0
	ld   d3,i1
	.dlab LBB2
	.dlab LBB3
	.dlab LBB4
	.line 29
	ld   d1,#0x0
	jp   #L14
L16:
	.dlab LBB5
	.dlab LBB6
	.stabs	"/Applications/MoSync/include/newlib/stlport/stl/_vector.h",132,0,0,Ltext1
Ltext1:
	.line 182
	ld   r14,d1
	sll  r14,#0x2
	add  r14,r0
	.dlab LBE6
	.dlab LBE5
	.line 202
	ld   i0,[r14]
	ld   r14,[i0]
	ld   d0,[r14,8]
	ld   i1,d3
	call d0 ; call non-native
	.stabs	"/Users/brzeszczot/workspace/mosync_engine2/Game.cpp",132,0,0,Ltext2
Ltext2:
	.line 29
	add  d1,#0x1
L14:
	.dlab LBB7
	.stabs	"/Applications/MoSync/include/newlib/stlport/stl/_vector.h",132,0,0,Ltext3
Ltext3:
	.line 192
	ld   r0,[d2,16]
	.dlab LBB8
	ld   r14,[r0,4]
	ld   r0,[r0]
	sub  r14,r0
	sra  r14,#0x2
	.dlab LBE8
	.dlab LBE7
	jc   gtu,r14,d1,#L16
	.dlab LBE4
	.dlab LBE3
	.dlab LBE2
	.stabs	"/Users/brzeszczot/workspace/mosync_engine2/Game.cpp",132,0,0,Ltext4
Ltext4:
	.line 33
	pop  rt,d3
	ret
	.stabs	"ii:r(19,2)",64,0,29,5
	.stabn	192,0,0,LBB4-__ZN4Game13UpdateObjectsEl
	.stabs	"this:r(0,374)=k(0,95)",64,0,192,16
	.stabn	192,0,0,LBB7-__ZN4Game13UpdateObjectsEl
	.stabn	224,0,0,LBE7-__ZN4Game13UpdateObjectsEl
	.stabn	224,0,0,LBE4-__ZN4Game13UpdateObjectsEl
Lscope3:
.data
LC0:
	.ascii "vector\0"
.code
	.stabs	"_ZNK11stlpmtx_std4priv12_Vector_baseIP6ObjectNS_9allocatorIS3_EEE21_M_throw_length_errorEv:f(0,6)",36,0,41,__ZNK11stlpmtx_std4priv12_Vector_baseIP6ObjectNS_9allocatorIS3_EEE21_M_throw_length_errorEv
	.stabs	"this:P(0,375)=k(0,87)",64,0,41,12

.func __ZNK11stlpmtx_std4priv12_Vector_baseIP6ObjectNS_9allocatorIS3_EEE21_M_throw_length_errorEv, 1, void
	.stabs	"/Applications/MoSync/include/newlib/stlport/stl/_vector.c",132,0,0,Ltext5
Ltext5:
	.line 41
	push rt,fr
	ld   fr,sp
	add  fr,#0x8
	.dlab LBB9
	.dlab LBB10
	.dlab LBB11
	.stabs	"/Applications/MoSync/include/newlib/stlport/stl/_range_errors.c",132,0,0,Ltext6
Ltext6:
	.line 73
	ld   i0,#LC0
	call &_puts ; call non-native
	call &_abort ; call non-native
	.dlab LBE11
	.dlab LBE10
	.dlab LBE9
Lscope4:
.data
LC1:
	.ascii "out of memory\12\0"
.code
	.stabs	"_ZN11stlpmtx_std6vectorIP6ObjectNS_9allocatorIS2_EEE18_M_insert_overflowEPS2_RKS2_RKNS_11__true_typeEmb:f(0,6)",36,0,109,__ZN11stlpmtx_std6vectorIP6ObjectNS_9allocatorIS2_EEE18_M_insert_overflowEPS2_RKS2_RKNS_11__true_typeEmb
	.stabs	"this:P(0,376)=k(0,98)",64,0,109,5
	.stabs	"__pos:P(0,42)",64,0,109,9
	.stabs	"__x:P(0,50)",64,0,109,7
	.stabs	"__fill_len:p(19,2)",160,0,109,0
	.stabs	"__atend:p(0,4)",160,0,109,4

.func __ZN11stlpmtx_std6vectorIP6ObjectNS_9allocatorIS2_EEE18_M_insert_overflowEPS2_RKS2_RKNS_11__true_typeEmb, 6, void
	.stabs	"/Applications/MoSync/include/newlib/stlport/stl/_vector.c",132,0,0,Ltext7
Ltext7:
	.line 109
	push rt,d6
	sub  sp,#0x20
	ld   fr,sp
	add  fr,#0x44
	ld   d1,i0
	ld   d5,i1
	ld   d3,i2
	ld   d6,[fr]
	.dlab LBB12
	.dlab LBB13
	.dlab LBB14
	.stabs	"/Applications/MoSync/include/newlib/stlport/stl/_vector.h",132,0,0,Ltext8
Ltext8:
	.line 171
	ld   r1,d6
	ld   [fr,-64],d6
	.dlab LBB15
	.dlab LBB16
	.dlab LBB17
	.dlab LBB18
	.line 192
	ld   r0,[i0,4]
	ld   r14,[i0]
	sub  r0,r14
	sra  r0,#0x2
	.dlab LBE18
	.dlab LBE17
	ld   [fr,-68],r0
	.dlab LBB19
	.dlab LBB20
	.dlab LBB21
	.line 194
	ld   r14,#0x3fffffff
	.dlab LBE21
	.dlab LBE20
	.dlab LBE19
	.line 193
	sub  r14,r0
	jc   ltu,r14,d6,#L89
L21:
	.dlab LBB22
	.dlab LBB23
	.stabs	"/Applications/MoSync/include/newlib/stlport/stl/_algobase.h",132,0,0,Ltext9
Ltext9:
	.line 141
	ld   r14,fr
	add  r14,#0xffffffbc
	jc   ltu,r1,r0,#L27
	add  r14,#0x4
L27:
	.dlab LBE23
	.dlab LBE22
	ld   i0,[r14]
	add  i0,r0
	.stabs	"/Applications/MoSync/include/newlib/stlport/stl/_vector.h",132,0,0,Ltext10
Ltext10:
	.line 193
	ld   r14,#0x3fffffff
	jc   gtu,i0,r14,#L29
	jc   geu,i0,r0,#L28
L29:
	ld   i0,#0x3fffffff
L86:
	.dlab LBE16
	.dlab LBE15
	.dlab LBE14
	.dlab LBB24
	.dlab LBB25
	.dlab LBB26
	.dlab LBB27
	.dlab LBB28
	.dlab LBB29
	.dlab LBB30
	.dlab LBB31
	.dlab LBB32
	.dlab LBB33
	.stabs	"/Applications/MoSync/include/newlib/stlport/stl/_alloc.h",132,0,0,Ltext11
Ltext11:
	.line 347
	ld   d0,i0
	sll  d0,#0x2
	.dlab LBB34
	.dlab LBB35
	.dlab LBB36
	.dlab LBB37
	.dlab LBB38
	.stabs	"/Applications/MoSync/include/newlib/stlport/stl/_new.h",132,0,0,Ltext12
Ltext12:
	.line 113
	ld   i0,d0
	call &__Znwm ; call non-native
	ld   i0,r14
	ld   r14,#0x0
	jc   eq,i0,r14,#L87
	.dlab LBE38
	.dlab LBE37
	.dlab LBE36
	.dlab LBE35
	.dlab LBE34
	.stabs	"/Applications/MoSync/include/newlib/stlport/stl/_alloc.h",132,0,0,Ltext13
Ltext13:
	.line 352
	ld   d2,d0
	srl  d2,#0x2
	ld   d4,i0
	.dlab LBE33
	.dlab LBE32
	.dlab LBE31
	.dlab LBE30
	.dlab LBE29
	.dlab LBE28
	.dlab LBE27
	.dlab LBE26
	.dlab LBE25
	.dlab LBE24
	.dlab LBB39
	.stabs	"/Applications/MoSync/include/newlib/stlport/stl/_algobase.h",132,0,0,Ltext14
Ltext14:
	.line 222
	ld   i1,[d1]
	.dlab LBB40
	.dlab LBB41
	.line 223
	ld   d0,d5
	sub  d0,i1
	ld   i0,d4
	ld   r14,#0x0
	jc   ne,d0,r14,#L90
L48:
	.dlab LBE41
	.dlab LBE40
	.dlab LBE39
	.dlab LBB42
	.line 478
	ld   r0,d6
	.dlab LBB43
	.line 480
	ld   r14,#0x0
	jc   eq,d6,r14,#L84
L52:
	.line 481
	ld   r14,[d3]
	ld   [i0],r14
	.line 480
	add  r0,#0xffffffff
	add  i0,#0x4
	ld   r14,#0x0
	jc   ne,r0,r14,#L52
L84:
	.dlab LBE43
	.dlab LBE42
	.line 478
	ld   d0,i0
	.stabs	"/Applications/MoSync/include/newlib/stlport/stl/_vector.c",132,0,0,Ltext15
Ltext15:
	.line 115
	ld.b r1,[fr,4]
	and  r1,#0xff  ; zero extend
	ld   r14,#0x0
	jc   ne,r1,r14,#L85
	.dlab LBB44
	.stabs	"/Applications/MoSync/include/newlib/stlport/stl/_algobase.h",132,0,0,Ltext16
Ltext16:
	.line 222
	ld   r0,[d1,4]
	.dlab LBB45
	.dlab LBB46
	.line 223
	ld   d0,r0
	sub  d0,d5
	ld   r14,i0
	jc   eq,d0,r1,#L57
	ld   i1,d5
	ld   i2,d0
	call &_memmove ; call non-native
	add  r14,d0
	ld   r0,[d1,4]
L57:
	.dlab LBE46
	.dlab LBE45
	.dlab LBE44
	.line 222
	ld   d0,r14
L54:
	.dlab LBB47
	.dlab LBB48
	.dlab LBB49
	.dlab LBB50
	.dlab LBB51
	.dlab LBB52
	.dlab LBB53
	.stabs	"/Applications/MoSync/include/newlib/stlport/stl/_iterator.h",132,0,0,Ltext17
Ltext17:
	.line 64
	ld   [fr,-40],r0
	.dlab LBE53
	.dlab LBE52
	.dlab LBE51
	.dlab LBE50
	.dlab LBB54
	.dlab LBB55
	.dlab LBB56
	.dlab LBB57
	.dlab LBB58
	.stabs	"/Applications/MoSync/include/newlib/stlport/stl/_vector.h",132,0,0,Ltext18
Ltext18:
	.line 182
	ld   i0,[d1]
	.dlab LBE58
	.dlab LBE57
	.dlab LBB59
	.stabs	"/Applications/MoSync/include/newlib/stlport/stl/_iterator.h",132,0,0,Ltext19
Ltext19:
	.line 64
	ld   [fr,-44],i0
	.dlab LBE59
	.dlab LBE56
	.dlab LBE55
	.dlab LBE54
	.dlab LBB60
	.dlab LBB61
	.dlab LBB62
	.dlab LBB63
	.line 65
	ld   [fr,-48],r0
	.dlab LBE63
	.dlab LBE62
	.dlab LBB64
	.dlab LBB65
	ld   [fr,-52],i0
	.dlab LBE65
	.dlab LBE64
	.dlab LBB66
	.dlab LBB67
	.dlab LBB68
	.dlab LBB69
	.dlab LBB70
	ld   [fr,-56],r0
	.dlab LBE70
	.dlab LBE69
	.dlab LBB71
	.dlab LBB72
	ld   [fr,-60],i0
	.dlab LBE72
	.dlab LBE71
	.dlab LBE68
	.dlab LBE67
	.dlab LBE66
	.dlab LBE61
	.dlab LBE60
	.dlab LBE49
	.dlab LBB73
	.dlab LBB74
	.stabs	"/Applications/MoSync/include/newlib/stlport/stl/_alloc.h",132,0,0,Ltext20
Ltext20:
	.line 319
	ld   r14,#0x0
	jc   eq,i0,r14,#L81
	.dlab LBB75
	.dlab LBB76
	.dlab LBB77
	.dlab LBB78
	.stabs	"/Applications/MoSync/include/newlib/stlport/stl/_new.h",132,0,0,Ltext21
Ltext21:
	.line 114
	call &__ZdlPv ; call non-native
L81:
	.dlab LBE78
	.dlab LBE77
	.dlab LBE76
	.dlab LBE75
	.dlab LBE74
	.dlab LBE73
	.dlab LBE48
	.dlab LBE47
	.dlab LBB79
	.stabs	"/Applications/MoSync/include/newlib/stlport/stl/_vector.h",132,0,0,Ltext22
Ltext22:
	.line 665
	sll  d2,#0x2
	add  d2,d4
	.dlab LBB80
	.line 666
	ld   [d1],d4
	.line 667
	ld   [d1,4],d0
	.line 668
	ld   [d1,8],d2
	.dlab LBE80
	.dlab LBE79
	.dlab LBE13
	.dlab LBE12
	add  sp,#0x20
	pop  rt,d6
	ret
L28:
	.dlab LBB81
	.dlab LBB82
	.line 171
	ld   d2,i0
	.dlab LBB83
	.dlab LBB84
	.dlab LBB85
	.dlab LBB86
	.dlab LBB87
	.dlab LBB88
	.dlab LBB89
	.dlab LBB90
	.stabs	"/Applications/MoSync/include/newlib/stlport/stl/_alloc.h",132,0,0,Ltext23
Ltext23:
	.line 330
	ld   r14,#0x3fffffff
	jc   gtu,i0,r14,#L87
	.line 353
	ld   d4,i0
	.dlab LBB91
	.line 346
	ld   r14,#0x0
	jc   ne,i0,r14,#L86
	.dlab LBE91
	.dlab LBE90
	.dlab LBE89
	.dlab LBE88
	.dlab LBE87
	.dlab LBE86
	.dlab LBE85
	.dlab LBE84
	.dlab LBE83
	.dlab LBB92
	.stabs	"/Applications/MoSync/include/newlib/stlport/stl/_algobase.h",132,0,0,Ltext24
Ltext24:
	.line 222
	ld   i1,[d1]
	.dlab LBB93
	.dlab LBB94
	.line 223
	ld   d0,d5
	sub  d0,i1
	ld   i0,d4
	ld   r14,#0x0
	jc   eq,d0,r14,#L48
L90:
	ld   i2,d0
	call &_memmove ; call non-native
	ld   i0,r14
	add  i0,d0
	jp   #L48
L85:
	ld   r0,[d1,4]
	jp   #L54
L89:
	.dlab LBE94
	.dlab LBE93
	.dlab LBE92
	.dlab LBB95
	.dlab LBB96
	.dlab LBB97
	.stabs	"/Applications/MoSync/include/newlib/stlport/stl/_vector.h",132,0,0,Ltext25
Ltext25:
	.line 174
	call &__ZNK11stlpmtx_std4priv12_Vector_baseIP6ObjectNS_9allocatorIS3_EEE21_M_throw_length_errorEv ; call non-native
	ld   r1,[fr,-64]
	ld   r0,[fr,-68]
	jp   #L21
L87:
	.dlab LBE97
	.dlab LBE96
	.dlab LBE95
	.dlab LBB98
	.dlab LBB99
	.dlab LBB100
	.dlab LBB101
	.dlab LBB102
	.dlab LBB103
	.dlab LBB104
	.dlab LBB105
	.dlab LBB106
	.dlab LBB107
	.dlab LBB108
	.dlab LBB109
	.dlab LBB110
	.dlab LBB111
	.dlab LBB112
	.stabs	"/Applications/MoSync/include/newlib/stlport/stl/_new.h",132,0,0,Ltext26
Ltext26:
	.line 113
	ld   i0,#LC1
	call &_puts ; call non-native
	ld   i0,#0x1
	call &_exit ; call non-native
	.dlab LBE112
	.dlab LBE111
	.dlab LBE110
	.dlab LBE109
	.dlab LBE108
	.dlab LBE107
	.dlab LBE106
	.dlab LBE105
	.dlab LBE104
	.dlab LBE103
	.dlab LBE102
	.dlab LBE101
	.dlab LBE100
	.dlab LBE99
	.dlab LBE98
	.dlab LBE82
	.dlab LBE81
	.stabs	"__fill_len:r(19,2)",64,0,109,10
	.stabs	"__len:r(19,2)",64,0,110,6
	.stabs	"__new_finish:r(0,42)",64,0,112,4
	.stabn	192,0,0,LBB13-__ZN11stlpmtx_std6vectorIP6ObjectNS_9allocatorIS2_EEE18_M_insert_overflowEPS2_RKS2_RKNS_11__true_typeEmb
	.stabs	"__n:(19,2)",128,0,171,-64
	.stabn	192,0,0,LBB14-__ZN11stlpmtx_std6vectorIP6ObjectNS_9allocatorIS2_EEE18_M_insert_overflowEPS2_RKS2_RKNS_11__true_typeEmb
	.stabs	"__size:(53,89)",128,0,172,-68
	.stabs	"__len:r(19,2)",64,0,175,12
	.stabn	192,0,0,LBB16-__ZN11stlpmtx_std6vectorIP6ObjectNS_9allocatorIS2_EEE18_M_insert_overflowEPS2_RKS2_RKNS_11__true_typeEmb
	.stabn	224,0,0,LBE16-__ZN11stlpmtx_std6vectorIP6ObjectNS_9allocatorIS2_EEE18_M_insert_overflowEPS2_RKS2_RKNS_11__true_typeEmb
	.stabn	224,0,0,LBE14-__ZN11stlpmtx_std6vectorIP6ObjectNS_9allocatorIS2_EEE18_M_insert_overflowEPS2_RKS2_RKNS_11__true_typeEmb
	.stabs	"__buf_size:r(19,2)",64,0,347,4
	.stabn	192,0,0,LBB33-__ZN11stlpmtx_std6vectorIP6ObjectNS_9allocatorIS2_EEE18_M_insert_overflowEPS2_RKS2_RKNS_11__true_typeEmb
	.stabs	"__y:r(14,28)",64,0,113,12
	.stabn	192,0,0,LBB38-__ZN11stlpmtx_std6vectorIP6ObjectNS_9allocatorIS2_EEE18_M_insert_overflowEPS2_RKS2_RKNS_11__true_typeEmb
	.stabn	224,0,0,LBE38-__ZN11stlpmtx_std6vectorIP6ObjectNS_9allocatorIS2_EEE18_M_insert_overflowEPS2_RKS2_RKNS_11__true_typeEmb
	.stabn	224,0,0,LBE33-__ZN11stlpmtx_std6vectorIP6ObjectNS_9allocatorIS2_EEE18_M_insert_overflowEPS2_RKS2_RKNS_11__true_typeEmb
	.stabs	"__first:r(36,92)",64,0,222,13
	.stabn	192,0,0,LBB39-__ZN11stlpmtx_std6vectorIP6ObjectNS_9allocatorIS2_EEE18_M_insert_overflowEPS2_RKS2_RKNS_11__true_typeEmb
	.stabs	"__n:r(19,2)",64,0,223,4
	.stabn	192,0,0,LBB41-__ZN11stlpmtx_std6vectorIP6ObjectNS_9allocatorIS2_EEE18_M_insert_overflowEPS2_RKS2_RKNS_11__true_typeEmb
	.stabn	224,0,0,LBE41-__ZN11stlpmtx_std6vectorIP6ObjectNS_9allocatorIS2_EEE18_M_insert_overflowEPS2_RKS2_RKNS_11__true_typeEmb
	.stabn	224,0,0,LBE39-__ZN11stlpmtx_std6vectorIP6ObjectNS_9allocatorIS2_EEE18_M_insert_overflowEPS2_RKS2_RKNS_11__true_typeEmb
	.stabs	"__first:r(0,42)",64,0,478,12
	.stabs	"__n:r(0,16)",64,0,478,16
	.stabn	192,0,0,LBB42-__ZN11stlpmtx_std6vectorIP6ObjectNS_9allocatorIS2_EEE18_M_insert_overflowEPS2_RKS2_RKNS_11__true_typeEmb
	.stabn	224,0,0,LBE42-__ZN11stlpmtx_std6vectorIP6ObjectNS_9allocatorIS2_EEE18_M_insert_overflowEPS2_RKS2_RKNS_11__true_typeEmb
	.stabs	"__n:r(19,2)",64,0,223,4
	.stabn	192,0,0,LBB46-__ZN11stlpmtx_std6vectorIP6ObjectNS_9allocatorIS2_EEE18_M_insert_overflowEPS2_RKS2_RKNS_11__true_typeEmb
	.stabn	224,0,0,LBE46-__ZN11stlpmtx_std6vectorIP6ObjectNS_9allocatorIS2_EEE18_M_insert_overflowEPS2_RKS2_RKNS_11__true_typeEmb
	.stabn	224,0,0,LBE13-__ZN11stlpmtx_std6vectorIP6ObjectNS_9allocatorIS2_EEE18_M_insert_overflowEPS2_RKS2_RKNS_11__true_typeEmb
	.stabs	"__len:r(19,2)",64,0,110,6
	.stabs	"__new_finish:r(0,42)",64,0,112,4
	.stabn	192,0,0,LBB82-__ZN11stlpmtx_std6vectorIP6ObjectNS_9allocatorIS2_EEE18_M_insert_overflowEPS2_RKS2_RKNS_11__true_typeEmb
	.stabs	"__first:r(36,92)",64,0,222,13
	.stabn	192,0,0,LBB92-__ZN11stlpmtx_std6vectorIP6ObjectNS_9allocatorIS2_EEE18_M_insert_overflowEPS2_RKS2_RKNS_11__true_typeEmb
	.stabs	"__n:r(19,2)",64,0,223,4
	.stabn	192,0,0,LBB94-__ZN11stlpmtx_std6vectorIP6ObjectNS_9allocatorIS2_EEE18_M_insert_overflowEPS2_RKS2_RKNS_11__true_typeEmb
	.stabn	224,0,0,LBE94-__ZN11stlpmtx_std6vectorIP6ObjectNS_9allocatorIS2_EEE18_M_insert_overflowEPS2_RKS2_RKNS_11__true_typeEmb
	.stabn	224,0,0,LBE92-__ZN11stlpmtx_std6vectorIP6ObjectNS_9allocatorIS2_EEE18_M_insert_overflowEPS2_RKS2_RKNS_11__true_typeEmb
	.stabs	"__n:(19,2)",128,0,171,-64
	.stabn	192,0,0,LBB95-__ZN11stlpmtx_std6vectorIP6ObjectNS_9allocatorIS2_EEE18_M_insert_overflowEPS2_RKS2_RKNS_11__true_typeEmb
	.stabs	"__size:(53,89)",128,0,172,-68
	.stabs	"__len:r(19,2)",64,0,175,12
	.stabn	192,0,0,LBB97-__ZN11stlpmtx_std6vectorIP6ObjectNS_9allocatorIS2_EEE18_M_insert_overflowEPS2_RKS2_RKNS_11__true_typeEmb
	.stabn	224,0,0,LBE97-__ZN11stlpmtx_std6vectorIP6ObjectNS_9allocatorIS2_EEE18_M_insert_overflowEPS2_RKS2_RKNS_11__true_typeEmb
	.stabn	224,0,0,LBE95-__ZN11stlpmtx_std6vectorIP6ObjectNS_9allocatorIS2_EEE18_M_insert_overflowEPS2_RKS2_RKNS_11__true_typeEmb
	.stabs	"__buf_size:r(19,2)",64,0,347,4
	.stabn	192,0,0,LBB107-__ZN11stlpmtx_std6vectorIP6ObjectNS_9allocatorIS2_EEE18_M_insert_overflowEPS2_RKS2_RKNS_11__true_typeEmb
	.stabs	"__y:r(14,28)",64,0,113,12
	.stabn	192,0,0,LBB112-__ZN11stlpmtx_std6vectorIP6ObjectNS_9allocatorIS2_EEE18_M_insert_overflowEPS2_RKS2_RKNS_11__true_typeEmb
	.stabn	224,0,0,LBE112-__ZN11stlpmtx_std6vectorIP6ObjectNS_9allocatorIS2_EEE18_M_insert_overflowEPS2_RKS2_RKNS_11__true_typeEmb
	.stabn	224,0,0,LBE107-__ZN11stlpmtx_std6vectorIP6ObjectNS_9allocatorIS2_EEE18_M_insert_overflowEPS2_RKS2_RKNS_11__true_typeEmb
	.stabn	224,0,0,LBE82-__ZN11stlpmtx_std6vectorIP6ObjectNS_9allocatorIS2_EEE18_M_insert_overflowEPS2_RKS2_RKNS_11__true_typeEmb
Lscope5:
	.stabs	"_ZN4Game6AddObjEv:F(0,6)",36,0,41,__ZN4Game6AddObjEv
	.stabs	"this:P(0,373)",64,0,41,6
	.global	__ZN4Game6AddObjEv

.func __ZN4Game6AddObjEv, 1, void
	.stabs	"/Users/brzeszczot/workspace/mosync_engine2/Game.cpp",132,0,0,Ltext27
Ltext27:
	.line 41
	push rt,d5
	sub  sp,#0x48
	ld   fr,sp
	add  fr,#0x68
	ld   d2,i0
	.dlab LBB113
	.dlab LBB114
	.dlab LBB115
	.line 42
	ld   d3,#0x0
	ld   d4,fr
	add  d4,#0xffffffc4
	ld   d5,fr
	add  d5,#0xffffffc0
L105:
	.dlab LBB116
	.dlab LBB117
	.line 44
	ld   i0,#0x28
	call &__Znwm ; call non-native
	ld   d0,r14
	ld   r0,#0x0
	jc   ne,r14,r0,#L118
L95:
	ld   [fr,-64],d0
	.line 46
	ld   i0,d0
	ld   i1,#0x0
	ld   i2,#0x1
	call &__ZN6Object9ObjManageENS_10e_objtypesEb ; call non-native
	.line 47
	ld   i0,[fr,-64]
	ld   i1,#0x1
	ld   i2,i1
	call &__ZN6Object9ObjManageENS_10e_objtypesEb ; call non-native
	.dlab LBB118
	.stabs	"/Applications/MoSync/include/newlib/stlport/stl/_vector.h",132,0,0,Ltext28
Ltext28:
	.line 202
	ld   i0,d2
	call &__ZN4Game9ResourcesEv ; call non-native
	.dlab LBE118
	ld   i0,d4
	ld   i1,[r14]
	add  i1,#0x1c
	ld   i2,#0x1c
	call &_memcpy ; call non-native
	ld   d0,[fr,-64]
	ld   d1,[d0]
	ld   i0,sp
	ld   i1,d4
	ld   i2,#0x1c
	call &_memcpy ; call non-native
	ld   d1,[d1,24]
	ld   i0,d0
	call d1 ; call non-native
	.dlab LBB119
	.line 376
	ld   i0,[d2,16]
	.dlab LBB120
	.dlab LBB121
	.dlab LBB122
	.line 380
	ld   i1,[i0,4]
	ld   r14,[i0,8]
	jc   eq,i1,r14,#L98
	.dlab LBB123
	.dlab LBB124
	.dlab LBB125
	.dlab LBB126
	.stabs	"/Applications/MoSync/include/newlib/stlport/stl/_construct.h",132,0,0,Ltext29
Ltext29:
	.line 126
	ld   r0,[fr,-64]
	ld   [i1],r0
	.dlab LBE126
	.dlab LBE125
	.dlab LBE124
	.dlab LBE123
	.stabs	"/Applications/MoSync/include/newlib/stlport/stl/_vector.h",132,0,0,Ltext30
Ltext30:
	.line 382
	add  i1,#0x4
	ld   [i0,4],i1
L94:
	.dlab LBE122
	.dlab LBE121
	.dlab LBE120
	.dlab LBE119
	.dlab LBE117
	.dlab LBE116
	.stabs	"/Users/brzeszczot/workspace/mosync_engine2/Game.cpp",132,0,0,Ltext31
Ltext31:
	.line 42
	add  d3,#0x1
	ld   r14,#0x0
	jc   eq,d3,r14,#L105
	.dlab LBE115
	.line 53
	ld   i0,#0x28
	call &__Znwm ; call non-native
	ld   d0,r14
	ld   r0,#0x0
	jc   ne,r14,r0,#L119
L106:
	ld   [fr,-72],d0
	.line 55
	ld   i0,d0
	ld   i1,#0x1
	ld   i2,i1
	call &__ZN6Object9ObjManageENS_10e_objtypesEb ; call non-native
	.dlab LBB127
	.stabs	"/Applications/MoSync/include/newlib/stlport/stl/_vector.h",132,0,0,Ltext32
Ltext32:
	.line 202
	ld   i0,d2
	call &__ZN4Game9ResourcesEv ; call non-native
	.dlab LBE127
	ld   i0,d4
	ld   i1,[r14]
	add  i1,#0x38
	ld   i2,#0x1c
	call &_memcpy ; call non-native
	ld   d1,[fr,-72]
	ld   d0,[d1]
	ld   i0,sp
	ld   i1,d4
	ld   i2,#0x1c
	call &_memcpy ; call non-native
	ld   d0,[d0,24]
	ld   i0,d1
	call d0 ; call non-native
	.stabs	"/Users/brzeszczot/workspace/mosync_engine2/Game.cpp",132,0,0,Ltext33
Ltext33:
	.line 57
	ld   i0,[fr,-72]
	ld   r14,[i0]
	ld   d0,[r14,28]
	call d0 ; call non-native
	ld   r0,#0x1
	ld.b [r14,8],r0
	.line 58
	ld   i0,[fr,-72]
	ld   r14,[i0]
	ld   d0,[r14,28]
	call d0 ; call non-native
	ld   r0,#0x1
	ld.b [r14,9],r0
	.dlab LBB128
	.stabs	"/Applications/MoSync/include/newlib/stlport/stl/_vector.h",132,0,0,Ltext34
Ltext34:
	.line 376
	ld   i0,[d2,16]
	.dlab LBB129
	.dlab LBB130
	.dlab LBB131
	.line 380
	ld   i1,[i0,4]
	ld   r14,[i0,8]
	jc   eq,i1,r14,#L109
	.dlab LBB132
	.dlab LBB133
	.dlab LBB134
	.dlab LBB135
	.stabs	"/Applications/MoSync/include/newlib/stlport/stl/_construct.h",132,0,0,Ltext35
Ltext35:
	.line 126
	ld   r0,[fr,-72]
	ld   [i1],r0
	.dlab LBE135
	.dlab LBE134
	.dlab LBE133
	.dlab LBE132
	.stabs	"/Applications/MoSync/include/newlib/stlport/stl/_vector.h",132,0,0,Ltext36
Ltext36:
	.line 382
	add  i1,#0x4
	ld   [i0,4],i1
	.dlab LBE131
	.dlab LBE130
	.dlab LBE129
	.dlab LBE128
	.dlab LBE114
	.dlab LBE113
	.stabs	"/Users/brzeszczot/workspace/mosync_engine2/Game.cpp",132,0,0,Ltext37
Ltext37:
	.line 60
	add  sp,#0x48
	pop  rt,d5
	ret
L118:
	.dlab LBB136
	.dlab LBB137
	.dlab LBB138
	.dlab LBB139
	.dlab LBB140
	.line 44
	ld   i0,r14
	ld   i1,#0x64
	ld   i2,i1
	call &__ZN6ObjectC1Eii ; call non-native
	jp   #L95
L119:
	.dlab LBE140
	.dlab LBE139
	.dlab LBE138
	.line 53
	ld   i0,r14
	ld   i1,#0x12c
	ld   i2,i1
	call &__ZN6ObjectC1Eii ; call non-native
	jp   #L106
L109:
	.dlab LBB141
	.dlab LBB142
	.dlab LBB143
	.dlab LBB144
	.dlab LBB145
	.stabs	"/Applications/MoSync/include/newlib/stlport/stl/_vector.h",132,0,0,Ltext38
Ltext38:
	.line 386
	ld   r14,#0x1
	ld   [sp],r14
	ld   r0,#0x1
	ld.b [sp,4],r0
	ld   i2,fr
	add  i2,#0xffffffb8
	ld   i3,fr
	add  i3,#0xffffffb7
	call &__ZN11stlpmtx_std6vectorIP6ObjectNS_9allocatorIS2_EEE18_M_insert_overflowEPS2_RKS2_RKNS_11__true_typeEmb ; call non-native
	.dlab LBE145
	.dlab LBE144
	.dlab LBE143
	.dlab LBE142
	.dlab LBE141
	.dlab LBE137
	.dlab LBE136
	.stabs	"/Users/brzeszczot/workspace/mosync_engine2/Game.cpp",132,0,0,Ltext39
Ltext39:
	.line 60
	add  sp,#0x48
	pop  rt,d5
	ret
L98:
	.dlab LBB146
	.dlab LBB147
	.dlab LBB148
	.dlab LBB149
	.dlab LBB150
	.dlab LBB151
	.dlab LBB152
	.dlab LBB153
	.dlab LBB154
	.dlab LBB155
	.stabs	"/Applications/MoSync/include/newlib/stlport/stl/_vector.h",132,0,0,Ltext40
Ltext40:
	.line 386
	ld   r14,#0x1
	ld   [sp],r14
	ld   r0,#0x1
	ld.b [sp,4],r0
	ld   i2,d5
	ld   i3,fr
	add  i3,#0xffffffbf
	call &__ZN11stlpmtx_std6vectorIP6ObjectNS_9allocatorIS2_EEE18_M_insert_overflowEPS2_RKS2_RKNS_11__true_typeEmb ; call non-native
	jp   #L94
	.dlab LBE155
	.dlab LBE154
	.dlab LBE153
	.dlab LBE152
	.dlab LBE151
	.dlab LBE150
	.dlab LBE149
	.dlab LBE148
	.dlab LBE147
	.dlab LBE146
	.stabs	"o:(0,43)",128,0,53,-72
	.stabn	192,0,0,LBB114-__ZN4Game6AddObjEv
	.stabs	"ii:r(19,2)",64,0,42,7
	.stabn	192,0,0,LBB115-__ZN4Game6AddObjEv
	.stabs	"o:(0,43)",128,0,44,-64
	.stabn	192,0,0,LBB117-__ZN4Game6AddObjEv
	.stabs	"this:r(0,376)",64,0,376,12
	.stabn	192,0,0,LBB119-__ZN4Game6AddObjEv
	.stabn	224,0,0,LBE119-__ZN4Game6AddObjEv
	.stabn	224,0,0,LBE117-__ZN4Game6AddObjEv
	.stabn	224,0,0,LBE115-__ZN4Game6AddObjEv
	.stabs	"this:r(0,376)",64,0,376,12
	.stabn	192,0,0,LBB128-__ZN4Game6AddObjEv
	.stabn	224,0,0,LBE128-__ZN4Game6AddObjEv
	.stabn	224,0,0,LBE114-__ZN4Game6AddObjEv
	.stabs	"o:(0,43)",128,0,53,-72
	.stabn	192,0,0,LBB137-__ZN4Game6AddObjEv
	.stabs	"ii:r(19,2)",64,0,42,7
	.stabn	192,0,0,LBB138-__ZN4Game6AddObjEv
	.stabs	"o:(0,43)",128,0,44,-64
	.stabn	192,0,0,LBB140-__ZN4Game6AddObjEv
	.stabn	224,0,0,LBE140-__ZN4Game6AddObjEv
	.stabn	224,0,0,LBE138-__ZN4Game6AddObjEv
	.stabs	"this:r(0,376)",64,0,376,12
	.stabn	192,0,0,LBB141-__ZN4Game6AddObjEv
	.stabn	224,0,0,LBE141-__ZN4Game6AddObjEv
	.stabn	224,0,0,LBE137-__ZN4Game6AddObjEv
	.stabs	"o:(0,43)",128,0,53,-72
	.stabn	192,0,0,LBB147-__ZN4Game6AddObjEv
	.stabs	"ii:r(19,2)",64,0,42,7
	.stabn	192,0,0,LBB148-__ZN4Game6AddObjEv
	.stabs	"o:(0,43)",128,0,44,-64
	.stabn	192,0,0,LBB150-__ZN4Game6AddObjEv
	.stabs	"this:r(0,376)",64,0,376,12
	.stabn	192,0,0,LBB151-__ZN4Game6AddObjEv
	.stabn	224,0,0,LBE151-__ZN4Game6AddObjEv
	.stabn	224,0,0,LBE150-__ZN4Game6AddObjEv
	.stabn	224,0,0,LBE148-__ZN4Game6AddObjEv
	.stabn	224,0,0,LBE147-__ZN4Game6AddObjEv
Lscope6:
	.stabs	"_ZN4GameD0Ev:F(0,6)",36,0,9,__ZN4GameD0Ev
	.stabs	"this:P(0,373)",64,0,9,6
	.global	__ZN4GameD0Ev

.func __ZN4GameD0Ev, 1, void
	.stabs	"/Users/brzeszczot/workspace/mosync_engine2/Game.cpp",132,0,0,Ltext41
Ltext41:
	.line 9
	push rt,d2
	sub  sp,#0x30
	ld   fr,sp
	add  fr,#0x44
	ld   d2,i0
	.dlab LBB156
	.line 9
	ld   r0,#__ZTV4Game+8
	ld   [i0],r0
	.dlab LBB157
	.dlab LBB158
	.line 10
	ld   d1,#0x0
	.dlab LBB159
	.stabs	"/Applications/MoSync/include/newlib/stlport/stl/_vector.h",132,0,0,Ltext42
Ltext42:
	.line 192
	ld   d0,[i0,16]
	.dlab LBB160
	ld   r14,[d0,4]
	ld   r0,[d0]
	sub  r14,r0
	sra  r14,#0x2
	.dlab LBE160
	.dlab LBE159
	jc   leu,r14,d1,#L233
L236:
	.dlab LBB161
	.dlab LBB162
	.line 182
	ld   r14,d1
	sll  r14,#0x2
	add  r14,r0
	.dlab LBE162
	.dlab LBE161
	.line 202
	ld   i0,[r14]
	ld   r1,#0x0
	jc   eq,i0,r1,#L124
	ld   r14,[i0]
	ld   d0,[r14,4]
	call d0 ; call non-native
	ld   d0,[d2,16]
L124:
	.stabs	"/Users/brzeszczot/workspace/mosync_engine2/Game.cpp",132,0,0,Ltext43
Ltext43:
	.line 10
	add  d1,#0x1
	.dlab LBB163
	.dlab LBB164
	.stabs	"/Applications/MoSync/include/newlib/stlport/stl/_vector.h",132,0,0,Ltext44
Ltext44:
	.line 192
	ld   r14,[d0,4]
	ld   r0,[d0]
	sub  r14,r0
	sra  r14,#0x2
	.dlab LBE164
	.dlab LBE163
	jc   gtu,r14,d1,#L236
L233:
	.dlab LBE158
	.dlab LBB165
	.dlab LBB166
	.dlab LBB167
	.dlab LBB168
	.dlab LBB169
	.line 182
	ld   r14,[d0]
	.dlab LBE169
	.dlab LBE168
	.dlab LBB170
	.dlab LBB171
	.line 630
	ld   r0,[d0,4]
	jc   eq,r14,r0,#L143
	.dlab LBB172
	.dlab LBB173
	.dlab LBB174
	.line 615
	ld   [d0,4],r14
L143:
	.dlab LBE174
	.dlab LBE173
	.dlab LBE172
	.dlab LBE171
	.dlab LBE170
	.dlab LBE167
	.dlab LBE166
	.dlab LBE165
	.stabs	"/Users/brzeszczot/workspace/mosync_engine2/Game.cpp",132,0,0,Ltext45
Ltext45:
	.line 14
	ld   r1,#0x0
	jc   eq,d0,r1,#L145
	.dlab LBB175
	.dlab LBB176
	.dlab LBB177
	.dlab LBB178
	.dlab LBB179
	.dlab LBB180
	.dlab LBB181
	.dlab LBB182
	.stabs	"/Applications/MoSync/include/newlib/stlport/stl/_vector.h",132,0,0,Ltext46
Ltext46:
	.line 184
	ld   r0,[d0,4]
	.dlab LBE182
	.dlab LBE181
	.dlab LBB183
	.stabs	"/Applications/MoSync/include/newlib/stlport/stl/_iterator.h",132,0,0,Ltext47
Ltext47:
	.line 64
	ld   [fr,-24],r0
	.dlab LBE183
	.dlab LBE180
	.dlab LBE179
	.dlab LBE178
	.dlab LBB184
	.dlab LBB185
	.dlab LBB186
	.dlab LBB187
	.dlab LBB188
	.stabs	"/Applications/MoSync/include/newlib/stlport/stl/_vector.h",132,0,0,Ltext48
Ltext48:
	.line 182
	ld   r14,[d0]
	.dlab LBE188
	.dlab LBE187
	.dlab LBB189
	.stabs	"/Applications/MoSync/include/newlib/stlport/stl/_iterator.h",132,0,0,Ltext49
Ltext49:
	.line 64
	ld   [fr,-28],r14
	.dlab LBE189
	.dlab LBE186
	.dlab LBE185
	.dlab LBE184
	.dlab LBB190
	.dlab LBB191
	.dlab LBB192
	.dlab LBB193
	.line 65
	ld   [fr,-32],r0
	.dlab LBE193
	.dlab LBE192
	.dlab LBB194
	.dlab LBB195
	ld   [fr,-36],r14
	.dlab LBE195
	.dlab LBE194
	.dlab LBB196
	.dlab LBB197
	.dlab LBB198
	.dlab LBB199
	.dlab LBB200
	ld   [fr,-40],r0
	.dlab LBE200
	.dlab LBE199
	.dlab LBB201
	.dlab LBB202
	ld   [fr,-44],r14
	.dlab LBE202
	.dlab LBE201
	.dlab LBE198
	.dlab LBE197
	.dlab LBE196
	.dlab LBE191
	.dlab LBE190
	.dlab LBE177
	.dlab LBB203
	.dlab LBB204
	.stabs	"/Applications/MoSync/include/newlib/stlport/stl/_vector.h",132,0,0,Ltext50
Ltext50:
	.line 87
	ld   i0,[d0]
	jc   ne,i0,r1,#L237
L167:
	.dlab LBE204
	.dlab LBE203
	.dlab LBE176
	.dlab LBE175
	.stabs	"/Applications/MoSync/include/newlib/stlport/stl/_alloc.h",132,0,0,Ltext51
Ltext51:
	.line 297
	ld   i0,d0
	call &__ZdlPv ; call non-native
L145:
	.dlab LBE157
	.dlab LBB205
	.stabs	"/Applications/MoSync/include/newlib/stlport/stl/_vector.h",132,0,0,Ltext52
Ltext52:
	.line 304
	ld   r0,d2
	add  r0,#0x4
	.dlab LBB206
	.dlab LBB207
	.dlab LBB208
	.dlab LBB209
	.dlab LBB210
	.dlab LBB211
	.dlab LBB212
	.line 184
	ld   r14,[r0,4]
	.dlab LBE212
	.dlab LBE211
	.dlab LBB213
	.stabs	"/Applications/MoSync/include/newlib/stlport/stl/_iterator.h",132,0,0,Ltext53
Ltext53:
	.line 64
	ld   [fr,-48],r14
	.dlab LBE213
	.dlab LBE210
	.dlab LBE209
	.dlab LBE208
	.dlab LBB214
	.dlab LBB215
	.dlab LBB216
	.dlab LBB217
	.dlab LBB218
	.stabs	"/Applications/MoSync/include/newlib/stlport/stl/_vector.h",132,0,0,Ltext54
Ltext54:
	.line 182
	ld   i0,[r0]
	.dlab LBE218
	.dlab LBE217
	.dlab LBB219
	.stabs	"/Applications/MoSync/include/newlib/stlport/stl/_iterator.h",132,0,0,Ltext55
Ltext55:
	.line 64
	ld   [fr,-52],i0
	.dlab LBE219
	.dlab LBE216
	.dlab LBE215
	.dlab LBE214
	.dlab LBB220
	.dlab LBB221
	.dlab LBB222
	.dlab LBB223
	.line 65
	ld   [fr,-56],r14
	.dlab LBE223
	.dlab LBE222
	.dlab LBB224
	.dlab LBB225
	ld   [fr,-60],i0
	.dlab LBE225
	.dlab LBE224
	.dlab LBB226
	.dlab LBB227
	.dlab LBB228
	.dlab LBB229
	.dlab LBB230
	ld   r2,r14
	ld   r1,r14
	.dlab LBE230
	.dlab LBE229
	.dlab LBB231
	.dlab LBB232
	ld   [fr,-68],i0
	jp   #L199
L210:
	.dlab LBE232
	.dlab LBE231
	.dlab LBB233
	.dlab LBB234
	.dlab LBB235
	.dlab LBB236
	.dlab LBB237
	.line 76
	ld   r2,r1
	add  r2,#0xffffffe4
	.dlab LBE237
	.dlab LBE236
	.dlab LBE235
	.dlab LBE234
	.dlab LBB238
	.dlab LBB239
	.line 81
	ld   r1,r2
L199:
	.dlab LBE239
	.dlab LBE238
	.dlab LBB240
	.dlab LBB241
	.dlab LBB242
	.dlab LBB243
	.line 74
	ld   r14,r1
	xor  r14,i0
	neg r0,r14
	or   r0,r14
	srl  r0,#0x1f
	ld   r14,#0x1
	sub  r14,r0
	.dlab LBE243
	.dlab LBE242
	.dlab LBE241
	.dlab LBE240
	.line 126
	xor  r14,#0x1
	and  r14,#0xff  ; zero extend
	ld   r0,#0x0
	jc   ne,r14,r0,#L210
	ld   [fr,-64],r2
	.dlab LBE233
	.dlab LBE228
	.dlab LBE227
	.dlab LBE226
	.dlab LBE221
	.dlab LBE220
	.dlab LBE207
	.dlab LBB244
	.dlab LBB245
	.stabs	"/Applications/MoSync/include/newlib/stlport/stl/_vector.h",132,0,0,Ltext56
Ltext56:
	.line 87
	jc   ne,i0,r0,#L238
	.dlab LBE245
	.dlab LBE244
	.dlab LBE206
	.dlab LBE205
	.dlab LBE156
	.stabs	"/Users/brzeszczot/workspace/mosync_engine2/Game.cpp",132,0,0,Ltext57
Ltext57:
	.line 15
	ld   i0,d2
	call &__ZdlPv ; call non-native
	add  sp,#0x30
	pop  rt,d2
	ret
L237:
	.dlab LBB246
	.dlab LBB247
	.dlab LBB248
	.dlab LBB249
	.dlab LBB250
	.dlab LBB251
	.dlab LBB252
	.dlab LBB253
	.dlab LBB254
	.dlab LBB255
	.dlab LBB256
	.dlab LBB257
	.stabs	"/Applications/MoSync/include/newlib/stlport/stl/_new.h",132,0,0,Ltext58
Ltext58:
	.line 114
	call &__ZdlPv ; call non-native
	jp   #L167
L238:
	.dlab LBE257
	.dlab LBE256
	.dlab LBE255
	.dlab LBE254
	.dlab LBE253
	.dlab LBE252
	.dlab LBE251
	.dlab LBE250
	.dlab LBE249
	.dlab LBE248
	.dlab LBE247
	.dlab LBB258
	.dlab LBB259
	.dlab LBB260
	.dlab LBB261
	.dlab LBB262
	.dlab LBB263
	.dlab LBB264
	.dlab LBB265
	.dlab LBB266
	.dlab LBB267
	call &__ZdlPv ; call non-native
	.dlab LBE267
	.dlab LBE266
	.dlab LBE265
	.dlab LBE264
	.dlab LBE263
	.dlab LBE262
	.dlab LBE261
	.dlab LBE260
	.dlab LBE259
	.dlab LBE258
	.dlab LBE246
	.stabs	"/Users/brzeszczot/workspace/mosync_engine2/Game.cpp",132,0,0,Ltext59
Ltext59:
	.line 15
	ld   i0,d2
	call &__ZdlPv ; call non-native
	add  sp,#0x30
	pop  rt,d2
	ret
	.stabs	"ii:r(19,2)",64,0,10,5
	.stabn	192,0,0,LBB158-__ZN4GameD0Ev
	.stabn	224,0,0,LBE158-__ZN4GameD0Ev
	.stabs	"this:r(0,377)=k(1,68)",64,0,304,16
	.stabn	192,0,0,LBB205-__ZN4GameD0Ev
	.stabn	224,0,0,LBE205-__ZN4GameD0Ev
	.stabs	"this:r(0,377)",64,0,304,16
	.stabn	192,0,0,LBB258-__ZN4GameD0Ev
	.stabn	224,0,0,LBE258-__ZN4GameD0Ev
Lscope7:
	.stabs	"_ZN4GameD1Ev:F(0,6)",36,0,9,__ZN4GameD1Ev
	.stabs	"this:P(0,373)",64,0,9,6
	.global	__ZN4GameD1Ev

.func __ZN4GameD1Ev, 1, void
	.line 9
	push rt,d2
	sub  sp,#0x30
	ld   fr,sp
	add  fr,#0x44
	ld   d2,i0
	.dlab LBB268
	.line 9
	ld   r0,#__ZTV4Game+8
	ld   [i0],r0
	.dlab LBB269
	.dlab LBB270
	.line 10
	ld   d1,#0x0
	.dlab LBB271
	.stabs	"/Applications/MoSync/include/newlib/stlport/stl/_vector.h",132,0,0,Ltext60
Ltext60:
	.line 192
	ld   d0,[i0,16]
	.dlab LBB272
	ld   r14,[d0,4]
	ld   r0,[d0]
	sub  r14,r0
	sra  r14,#0x2
	.dlab LBE272
	.dlab LBE271
	jc   leu,r14,d1,#L352
L354:
	.dlab LBB273
	.dlab LBB274
	.line 182
	ld   r14,d1
	sll  r14,#0x2
	add  r14,r0
	.dlab LBE274
	.dlab LBE273
	.line 202
	ld   i0,[r14]
	ld   r1,#0x0
	jc   eq,i0,r1,#L243
	ld   r14,[i0]
	ld   d0,[r14,4]
	call d0 ; call non-native
	ld   d0,[d2,16]
L243:
	.stabs	"/Users/brzeszczot/workspace/mosync_engine2/Game.cpp",132,0,0,Ltext61
Ltext61:
	.line 10
	add  d1,#0x1
	.dlab LBB275
	.dlab LBB276
	.stabs	"/Applications/MoSync/include/newlib/stlport/stl/_vector.h",132,0,0,Ltext62
Ltext62:
	.line 192
	ld   r14,[d0,4]
	ld   r0,[d0]
	sub  r14,r0
	sra  r14,#0x2
	.dlab LBE276
	.dlab LBE275
	jc   gtu,r14,d1,#L354
L352:
	.dlab LBE270
	.dlab LBB277
	.dlab LBB278
	.dlab LBB279
	.dlab LBB280
	.dlab LBB281
	.line 182
	ld   r14,[d0]
	.dlab LBE281
	.dlab LBE280
	.dlab LBB282
	.dlab LBB283
	.line 630
	ld   r0,[d0,4]
	jc   eq,r14,r0,#L262
	.dlab LBB284
	.dlab LBB285
	.dlab LBB286
	.line 615
	ld   [d0,4],r14
L262:
	.dlab LBE286
	.dlab LBE285
	.dlab LBE284
	.dlab LBE283
	.dlab LBE282
	.dlab LBE279
	.dlab LBE278
	.dlab LBE277
	.stabs	"/Users/brzeszczot/workspace/mosync_engine2/Game.cpp",132,0,0,Ltext63
Ltext63:
	.line 14
	ld   r1,#0x0
	jc   eq,d0,r1,#L264
	.dlab LBB287
	.dlab LBB288
	.dlab LBB289
	.dlab LBB290
	.dlab LBB291
	.dlab LBB292
	.dlab LBB293
	.dlab LBB294
	.stabs	"/Applications/MoSync/include/newlib/stlport/stl/_vector.h",132,0,0,Ltext64
Ltext64:
	.line 184
	ld   r0,[d0,4]
	.dlab LBE294
	.dlab LBE293
	.dlab LBB295
	.stabs	"/Applications/MoSync/include/newlib/stlport/stl/_iterator.h",132,0,0,Ltext65
Ltext65:
	.line 64
	ld   [fr,-24],r0
	.dlab LBE295
	.dlab LBE292
	.dlab LBE291
	.dlab LBE290
	.dlab LBB296
	.dlab LBB297
	.dlab LBB298
	.dlab LBB299
	.dlab LBB300
	.stabs	"/Applications/MoSync/include/newlib/stlport/stl/_vector.h",132,0,0,Ltext66
Ltext66:
	.line 182
	ld   r14,[d0]
	.dlab LBE300
	.dlab LBE299
	.dlab LBB301
	.stabs	"/Applications/MoSync/include/newlib/stlport/stl/_iterator.h",132,0,0,Ltext67
Ltext67:
	.line 64
	ld   [fr,-28],r14
	.dlab LBE301
	.dlab LBE298
	.dlab LBE297
	.dlab LBE296
	.dlab LBB302
	.dlab LBB303
	.dlab LBB304
	.dlab LBB305
	.line 65
	ld   [fr,-32],r0
	.dlab LBE305
	.dlab LBE304
	.dlab LBB306
	.dlab LBB307
	ld   [fr,-36],r14
	.dlab LBE307
	.dlab LBE306
	.dlab LBB308
	.dlab LBB309
	.dlab LBB310
	.dlab LBB311
	.dlab LBB312
	ld   [fr,-40],r0
	.dlab LBE312
	.dlab LBE311
	.dlab LBB313
	.dlab LBB314
	ld   [fr,-44],r14
	.dlab LBE314
	.dlab LBE313
	.dlab LBE310
	.dlab LBE309
	.dlab LBE308
	.dlab LBE303
	.dlab LBE302
	.dlab LBE289
	.dlab LBB315
	.dlab LBB316
	.stabs	"/Applications/MoSync/include/newlib/stlport/stl/_vector.h",132,0,0,Ltext68
Ltext68:
	.line 87
	ld   i0,[d0]
	jc   ne,i0,r1,#L355
L286:
	.dlab LBE316
	.dlab LBE315
	.dlab LBE288
	.dlab LBE287
	.stabs	"/Applications/MoSync/include/newlib/stlport/stl/_alloc.h",132,0,0,Ltext69
Ltext69:
	.line 297
	ld   i0,d0
	call &__ZdlPv ; call non-native
L264:
	.dlab LBE269
	.dlab LBB317
	.stabs	"/Applications/MoSync/include/newlib/stlport/stl/_vector.h",132,0,0,Ltext70
Ltext70:
	.line 304
	ld   r0,d2
	add  r0,#0x4
	.dlab LBB318
	.dlab LBB319
	.dlab LBB320
	.dlab LBB321
	.dlab LBB322
	.dlab LBB323
	.dlab LBB324
	.line 184
	ld   r14,[r0,4]
	.dlab LBE324
	.dlab LBE323
	.dlab LBB325
	.stabs	"/Applications/MoSync/include/newlib/stlport/stl/_iterator.h",132,0,0,Ltext71
Ltext71:
	.line 64
	ld   [fr,-48],r14
	.dlab LBE325
	.dlab LBE322
	.dlab LBE321
	.dlab LBE320
	.dlab LBB326
	.dlab LBB327
	.dlab LBB328
	.dlab LBB329
	.dlab LBB330
	.stabs	"/Applications/MoSync/include/newlib/stlport/stl/_vector.h",132,0,0,Ltext72
Ltext72:
	.line 182
	ld   i0,[r0]
	.dlab LBE330
	.dlab LBE329
	.dlab LBB331
	.stabs	"/Applications/MoSync/include/newlib/stlport/stl/_iterator.h",132,0,0,Ltext73
Ltext73:
	.line 64
	ld   [fr,-52],i0
	.dlab LBE331
	.dlab LBE328
	.dlab LBE327
	.dlab LBE326
	.dlab LBB332
	.dlab LBB333
	.dlab LBB334
	.dlab LBB335
	.line 65
	ld   [fr,-56],r14
	.dlab LBE335
	.dlab LBE334
	.dlab LBB336
	.dlab LBB337
	ld   [fr,-60],i0
	.dlab LBE337
	.dlab LBE336
	.dlab LBB338
	.dlab LBB339
	.dlab LBB340
	.dlab LBB341
	.dlab LBB342
	ld   r2,r14
	ld   r1,r14
	.dlab LBE342
	.dlab LBE341
	.dlab LBB343
	.dlab LBB344
	ld   [fr,-68],i0
	jp   #L318
L329:
	.dlab LBE344
	.dlab LBE343
	.dlab LBB345
	.dlab LBB346
	.dlab LBB347
	.dlab LBB348
	.dlab LBB349
	.line 76
	ld   r2,r1
	add  r2,#0xffffffe4
	.dlab LBE349
	.dlab LBE348
	.dlab LBE347
	.dlab LBE346
	.dlab LBB350
	.dlab LBB351
	.line 81
	ld   r1,r2
L318:
	.dlab LBE351
	.dlab LBE350
	.dlab LBB352
	.dlab LBB353
	.dlab LBB354
	.dlab LBB355
	.line 74
	ld   r14,r1
	xor  r14,i0
	neg r0,r14
	or   r0,r14
	srl  r0,#0x1f
	ld   r14,#0x1
	sub  r14,r0
	.dlab LBE355
	.dlab LBE354
	.dlab LBE353
	.dlab LBE352
	.line 126
	xor  r14,#0x1
	and  r14,#0xff  ; zero extend
	ld   r0,#0x0
	jc   ne,r14,r0,#L329
	ld   [fr,-64],r2
	.dlab LBE345
	.dlab LBE340
	.dlab LBE339
	.dlab LBE338
	.dlab LBE333
	.dlab LBE332
	.dlab LBE319
	.dlab LBB356
	.dlab LBB357
	.stabs	"/Applications/MoSync/include/newlib/stlport/stl/_vector.h",132,0,0,Ltext74
Ltext74:
	.line 87
	jc   ne,i0,r0,#L356
	.dlab LBE357
	.dlab LBE356
	.dlab LBE318
	.dlab LBE317
	.dlab LBE268
	.stabs	"/Users/brzeszczot/workspace/mosync_engine2/Game.cpp",132,0,0,Ltext75
Ltext75:
	.line 15
	add  sp,#0x30
	pop  rt,d2
	ret
L355:
	.dlab LBB358
	.dlab LBB359
	.dlab LBB360
	.dlab LBB361
	.dlab LBB362
	.dlab LBB363
	.dlab LBB364
	.dlab LBB365
	.dlab LBB366
	.dlab LBB367
	.dlab LBB368
	.dlab LBB369
	.stabs	"/Applications/MoSync/include/newlib/stlport/stl/_new.h",132,0,0,Ltext76
Ltext76:
	.line 114
	call &__ZdlPv ; call non-native
	jp   #L286
L356:
	.dlab LBE369
	.dlab LBE368
	.dlab LBE367
	.dlab LBE366
	.dlab LBE365
	.dlab LBE364
	.dlab LBE363
	.dlab LBE362
	.dlab LBE361
	.dlab LBE360
	.dlab LBE359
	.dlab LBB370
	.dlab LBB371
	.dlab LBB372
	.dlab LBB373
	.dlab LBB374
	.dlab LBB375
	.dlab LBB376
	.dlab LBB377
	.dlab LBB378
	.dlab LBB379
	call &__ZdlPv ; call non-native
	.dlab LBE379
	.dlab LBE378
	.dlab LBE377
	.dlab LBE376
	.dlab LBE375
	.dlab LBE374
	.dlab LBE373
	.dlab LBE372
	.dlab LBE371
	.dlab LBE370
	.dlab LBE358
	.stabs	"/Users/brzeszczot/workspace/mosync_engine2/Game.cpp",132,0,0,Ltext77
Ltext77:
	.line 15
	add  sp,#0x30
	pop  rt,d2
	ret
	.stabs	"ii:r(19,2)",64,0,10,5
	.stabn	192,0,0,LBB270-__ZN4GameD1Ev
	.stabn	224,0,0,LBE270-__ZN4GameD1Ev
	.stabs	"this:r(0,377)",64,0,304,16
	.stabn	192,0,0,LBB317-__ZN4GameD1Ev
	.stabn	224,0,0,LBE317-__ZN4GameD1Ev
	.stabs	"this:r(0,377)",64,0,304,16
	.stabn	192,0,0,LBB370-__ZN4GameD1Ev
	.stabn	224,0,0,LBE370-__ZN4GameD1Ev
Lscope8:
	.stabs	"_ZN4GameD2Ev:F(0,6)",36,0,9,__ZN4GameD2Ev
	.stabs	"this:P(0,373)",64,0,9,6
	.global	__ZN4GameD2Ev

.func __ZN4GameD2Ev, 1, void
	.line 9
	push rt,d2
	sub  sp,#0x30
	ld   fr,sp
	add  fr,#0x44
	ld   d2,i0
	.dlab LBB380
	.line 9
	ld   r0,#__ZTV4Game+8
	ld   [i0],r0
	.dlab LBB381
	.dlab LBB382
	.line 10
	ld   d1,#0x0
	.dlab LBB383
	.stabs	"/Applications/MoSync/include/newlib/stlport/stl/_vector.h",132,0,0,Ltext78
Ltext78:
	.line 192
	ld   d0,[i0,16]
	.dlab LBB384
	ld   r14,[d0,4]
	ld   r0,[d0]
	sub  r14,r0
	sra  r14,#0x2
	.dlab LBE384
	.dlab LBE383
	jc   leu,r14,d1,#L470
L472:
	.dlab LBB385
	.dlab LBB386
	.line 182
	ld   r14,d1
	sll  r14,#0x2
	add  r14,r0
	.dlab LBE386
	.dlab LBE385
	.line 202
	ld   i0,[r14]
	ld   r1,#0x0
	jc   eq,i0,r1,#L361
	ld   r14,[i0]
	ld   d0,[r14,4]
	call d0 ; call non-native
	ld   d0,[d2,16]
L361:
	.stabs	"/Users/brzeszczot/workspace/mosync_engine2/Game.cpp",132,0,0,Ltext79
Ltext79:
	.line 10
	add  d1,#0x1
	.dlab LBB387
	.dlab LBB388
	.stabs	"/Applications/MoSync/include/newlib/stlport/stl/_vector.h",132,0,0,Ltext80
Ltext80:
	.line 192
	ld   r14,[d0,4]
	ld   r0,[d0]
	sub  r14,r0
	sra  r14,#0x2
	.dlab LBE388
	.dlab LBE387
	jc   gtu,r14,d1,#L472
L470:
	.dlab LBE382
	.dlab LBB389
	.dlab LBB390
	.dlab LBB391
	.dlab LBB392
	.dlab LBB393
	.line 182
	ld   r14,[d0]
	.dlab LBE393
	.dlab LBE392
	.dlab LBB394
	.dlab LBB395
	.line 630
	ld   r0,[d0,4]
	jc   eq,r14,r0,#L380
	.dlab LBB396
	.dlab LBB397
	.dlab LBB398
	.line 615
	ld   [d0,4],r14
L380:
	.dlab LBE398
	.dlab LBE397
	.dlab LBE396
	.dlab LBE395
	.dlab LBE394
	.dlab LBE391
	.dlab LBE390
	.dlab LBE389
	.stabs	"/Users/brzeszczot/workspace/mosync_engine2/Game.cpp",132,0,0,Ltext81
Ltext81:
	.line 14
	ld   r1,#0x0
	jc   eq,d0,r1,#L382
	.dlab LBB399
	.dlab LBB400
	.dlab LBB401
	.dlab LBB402
	.dlab LBB403
	.dlab LBB404
	.dlab LBB405
	.dlab LBB406
	.stabs	"/Applications/MoSync/include/newlib/stlport/stl/_vector.h",132,0,0,Ltext82
Ltext82:
	.line 184
	ld   r0,[d0,4]
	.dlab LBE406
	.dlab LBE405
	.dlab LBB407
	.stabs	"/Applications/MoSync/include/newlib/stlport/stl/_iterator.h",132,0,0,Ltext83
Ltext83:
	.line 64
	ld   [fr,-24],r0
	.dlab LBE407
	.dlab LBE404
	.dlab LBE403
	.dlab LBE402
	.dlab LBB408
	.dlab LBB409
	.dlab LBB410
	.dlab LBB411
	.dlab LBB412
	.stabs	"/Applications/MoSync/include/newlib/stlport/stl/_vector.h",132,0,0,Ltext84
Ltext84:
	.line 182
	ld   r14,[d0]
	.dlab LBE412
	.dlab LBE411
	.dlab LBB413
	.stabs	"/Applications/MoSync/include/newlib/stlport/stl/_iterator.h",132,0,0,Ltext85
Ltext85:
	.line 64
	ld   [fr,-28],r14
	.dlab LBE413
	.dlab LBE410
	.dlab LBE409
	.dlab LBE408
	.dlab LBB414
	.dlab LBB415
	.dlab LBB416
	.dlab LBB417
	.line 65
	ld   [fr,-32],r0
	.dlab LBE417
	.dlab LBE416
	.dlab LBB418
	.dlab LBB419
	ld   [fr,-36],r14
	.dlab LBE419
	.dlab LBE418
	.dlab LBB420
	.dlab LBB421
	.dlab LBB422
	.dlab LBB423
	.dlab LBB424
	ld   [fr,-40],r0
	.dlab LBE424
	.dlab LBE423
	.dlab LBB425
	.dlab LBB426
	ld   [fr,-44],r14
	.dlab LBE426
	.dlab LBE425
	.dlab LBE422
	.dlab LBE421
	.dlab LBE420
	.dlab LBE415
	.dlab LBE414
	.dlab LBE401
	.dlab LBB427
	.dlab LBB428
	.stabs	"/Applications/MoSync/include/newlib/stlport/stl/_vector.h",132,0,0,Ltext86
Ltext86:
	.line 87
	ld   i0,[d0]
	jc   ne,i0,r1,#L473
L404:
	.dlab LBE428
	.dlab LBE427
	.dlab LBE400
	.dlab LBE399
	.stabs	"/Applications/MoSync/include/newlib/stlport/stl/_alloc.h",132,0,0,Ltext87
Ltext87:
	.line 297
	ld   i0,d0
	call &__ZdlPv ; call non-native
L382:
	.dlab LBE381
	.dlab LBB429
	.stabs	"/Applications/MoSync/include/newlib/stlport/stl/_vector.h",132,0,0,Ltext88
Ltext88:
	.line 304
	ld   r0,d2
	add  r0,#0x4
	.dlab LBB430
	.dlab LBB431
	.dlab LBB432
	.dlab LBB433
	.dlab LBB434
	.dlab LBB435
	.dlab LBB436
	.line 184
	ld   r14,[r0,4]
	.dlab LBE436
	.dlab LBE435
	.dlab LBB437
	.stabs	"/Applications/MoSync/include/newlib/stlport/stl/_iterator.h",132,0,0,Ltext89
Ltext89:
	.line 64
	ld   [fr,-48],r14
	.dlab LBE437
	.dlab LBE434
	.dlab LBE433
	.dlab LBE432
	.dlab LBB438
	.dlab LBB439
	.dlab LBB440
	.dlab LBB441
	.dlab LBB442
	.stabs	"/Applications/MoSync/include/newlib/stlport/stl/_vector.h",132,0,0,Ltext90
Ltext90:
	.line 182
	ld   i0,[r0]
	.dlab LBE442
	.dlab LBE441
	.dlab LBB443
	.stabs	"/Applications/MoSync/include/newlib/stlport/stl/_iterator.h",132,0,0,Ltext91
Ltext91:
	.line 64
	ld   [fr,-52],i0
	.dlab LBE443
	.dlab LBE440
	.dlab LBE439
	.dlab LBE438
	.dlab LBB444
	.dlab LBB445
	.dlab LBB446
	.dlab LBB447
	.line 65
	ld   [fr,-56],r14
	.dlab LBE447
	.dlab LBE446
	.dlab LBB448
	.dlab LBB449
	ld   [fr,-60],i0
	.dlab LBE449
	.dlab LBE448
	.dlab LBB450
	.dlab LBB451
	.dlab LBB452
	.dlab LBB453
	.dlab LBB454
	ld   r2,r14
	ld   r1,r14
	.dlab LBE454
	.dlab LBE453
	.dlab LBB455
	.dlab LBB456
	ld   [fr,-68],i0
	jp   #L436
L447:
	.dlab LBE456
	.dlab LBE455
	.dlab LBB457
	.dlab LBB458
	.dlab LBB459
	.dlab LBB460
	.dlab LBB461
	.line 76
	ld   r2,r1
	add  r2,#0xffffffe4
	.dlab LBE461
	.dlab LBE460
	.dlab LBE459
	.dlab LBE458
	.dlab LBB462
	.dlab LBB463
	.line 81
	ld   r1,r2
L436:
	.dlab LBE463
	.dlab LBE462
	.dlab LBB464
	.dlab LBB465
	.dlab LBB466
	.dlab LBB467
	.line 74
	ld   r14,r1
	xor  r14,i0
	neg r0,r14
	or   r0,r14
	srl  r0,#0x1f
	ld   r14,#0x1
	sub  r14,r0
	.dlab LBE467
	.dlab LBE466
	.dlab LBE465
	.dlab LBE464
	.line 126
	xor  r14,#0x1
	and  r14,#0xff  ; zero extend
	ld   r0,#0x0
	jc   ne,r14,r0,#L447
	ld   [fr,-64],r2
	.dlab LBE457
	.dlab LBE452
	.dlab LBE451
	.dlab LBE450
	.dlab LBE445
	.dlab LBE444
	.dlab LBE431
	.dlab LBB468
	.dlab LBB469
	.stabs	"/Applications/MoSync/include/newlib/stlport/stl/_vector.h",132,0,0,Ltext92
Ltext92:
	.line 87
	jc   ne,i0,r0,#L474
	.dlab LBE469
	.dlab LBE468
	.dlab LBE430
	.dlab LBE429
	.dlab LBE380
	.stabs	"/Users/brzeszczot/workspace/mosync_engine2/Game.cpp",132,0,0,Ltext93
Ltext93:
	.line 15
	add  sp,#0x30
	pop  rt,d2
	ret
L473:
	.dlab LBB470
	.dlab LBB471
	.dlab LBB472
	.dlab LBB473
	.dlab LBB474
	.dlab LBB475
	.dlab LBB476
	.dlab LBB477
	.dlab LBB478
	.dlab LBB479
	.dlab LBB480
	.dlab LBB481
	.stabs	"/Applications/MoSync/include/newlib/stlport/stl/_new.h",132,0,0,Ltext94
Ltext94:
	.line 114
	call &__ZdlPv ; call non-native
	jp   #L404
L474:
	.dlab LBE481
	.dlab LBE480
	.dlab LBE479
	.dlab LBE478
	.dlab LBE477
	.dlab LBE476
	.dlab LBE475
	.dlab LBE474
	.dlab LBE473
	.dlab LBE472
	.dlab LBE471
	.dlab LBB482
	.dlab LBB483
	.dlab LBB484
	.dlab LBB485
	.dlab LBB486
	.dlab LBB487
	.dlab LBB488
	.dlab LBB489
	.dlab LBB490
	.dlab LBB491
	call &__ZdlPv ; call non-native
	.dlab LBE491
	.dlab LBE490
	.dlab LBE489
	.dlab LBE488
	.dlab LBE487
	.dlab LBE486
	.dlab LBE485
	.dlab LBE484
	.dlab LBE483
	.dlab LBE482
	.dlab LBE470
	.stabs	"/Users/brzeszczot/workspace/mosync_engine2/Game.cpp",132,0,0,Ltext95
Ltext95:
	.line 15
	add  sp,#0x30
	pop  rt,d2
	ret
	.stabs	"ii:r(19,2)",64,0,10,5
	.stabn	192,0,0,LBB382-__ZN4GameD2Ev
	.stabn	224,0,0,LBE382-__ZN4GameD2Ev
	.stabs	"this:r(0,377)",64,0,304,16
	.stabn	192,0,0,LBB429-__ZN4GameD2Ev
	.stabn	224,0,0,LBE429-__ZN4GameD2Ev
	.stabs	"this:r(0,377)",64,0,304,16
	.stabn	192,0,0,LBB482-__ZN4GameD2Ev
	.stabn	224,0,0,LBE482-__ZN4GameD2Ev
Lscope9:
	.stabs	"_ZN4GameC1E6Vertex:F(0,6)",36,0,3,__ZN4GameC1E6Vertex
	.stabs	"this:P(0,373)",64,0,3,4
	.stabs	"area_size_in:p(2,1)",160,0,3,-28
	.global	__ZN4GameC1E6Vertex

.func __ZN4GameC1E6Vertex, 3, void
	.line 3
	push rt,d0
	sub  sp,#0x10
	ld   fr,sp
	add  fr,#0x1c
	ld   d0,i0
	ld   [fr,-28],i1
	ld   [fr,-24],i2
	.dlab LBB492
	.line 4
	ld   r0,#__ZTV4Game+8
	ld   [i0],r0
	.dlab LBB493
	.stabs	"/Applications/MoSync/include/newlib/stlport/stl/_vector.h",132,0,0,Ltext96
Ltext96:
	.line 220
	ld   r14,i0
	add  r14,#0x4
	.dlab LBB494
	.dlab LBB495
	.dlab LBB496
	.line 67
	ld   r1,#0x0
	ld   [r14],r1
	ld   [r14,4],r1
	.dlab LBB497
	.dlab LBB498
	.stabs	"/Applications/MoSync/include/newlib/stlport/stl/_alloc.h",132,0,0,Ltext97
Ltext97:
	.line 481
	ld   [i0,12],r1
	.dlab LBE498
	.dlab LBE497
	.dlab LBE496
	.dlab LBE495
	.dlab LBE494
	.dlab LBE493
	.stabs	"/Users/brzeszczot/workspace/mosync_engine2/Game.cpp",132,0,0,Ltext98
Ltext98:
	.line 4
	ld   [i0,20],i1
	ld   [i0,24],i2
	.stabs	"/Applications/MoSync/include/newlib/stlport/stl/_alloc.h",132,0,0,Ltext99
Ltext99:
	.line 289
	ld   i0,#0xc
	call &__Znwm ; call non-native
	.line 481
	ld   r0,r14
	.line 289
	ld   r1,#0x0
	jc   eq,r14,r1,#L489
	.dlab LBB499
	.dlab LBB500
	.dlab LBB501
	.dlab LBB502
	.stabs	"/Applications/MoSync/include/newlib/stlport/stl/_vector.h",132,0,0,Ltext100
Ltext100:
	.line 67
	ld   [r14],r1
	ld   [r14,4],r1
	.dlab LBB503
	.dlab LBB504
	.stabs	"/Applications/MoSync/include/newlib/stlport/stl/_alloc.h",132,0,0,Ltext101
Ltext101:
	.line 481
	ld   [r14,8],r1
L489:
	.dlab LBE504
	.dlab LBE503
	.dlab LBE502
	.dlab LBE501
	.dlab LBE500
	.dlab LBE499
	ld   [d0,16],r0
	.dlab LBE492
	.line 297
	add  sp,#0x10
	pop  rt,d0
	ret
	.stabs	"this:r(0,377)",64,0,220,30
	.stabn	192,0,0,LBB493-__ZN4GameC1E6Vertex
	.stabn	224,0,0,LBE493-__ZN4GameC1E6Vertex
Lscope10:
	.stabs	"_ZN4GameC2E6Vertex:F(0,6)",36,0,3,__ZN4GameC2E6Vertex
	.stabs	"this:P(0,373)",64,0,3,4
	.stabs	"area_size_in:p(2,1)",160,0,3,-28
	.global	__ZN4GameC2E6Vertex

.func __ZN4GameC2E6Vertex, 3, void
	.stabs	"/Users/brzeszczot/workspace/mosync_engine2/Game.cpp",132,0,0,Ltext102
Ltext102:
	.line 3
	push rt,d0
	sub  sp,#0x10
	ld   fr,sp
	add  fr,#0x1c
	ld   d0,i0
	ld   [fr,-28],i1
	ld   [fr,-24],i2
	.dlab LBB505
	.line 4
	ld   r0,#__ZTV4Game+8
	ld   [i0],r0
	.dlab LBB506
	.stabs	"/Applications/MoSync/include/newlib/stlport/stl/_vector.h",132,0,0,Ltext103
Ltext103:
	.line 220
	ld   r14,i0
	add  r14,#0x4
	.dlab LBB507
	.dlab LBB508
	.dlab LBB509
	.line 67
	ld   r1,#0x0
	ld   [r14],r1
	ld   [r14,4],r1
	.dlab LBB510
	.dlab LBB511
	.stabs	"/Applications/MoSync/include/newlib/stlport/stl/_alloc.h",132,0,0,Ltext104
Ltext104:
	.line 481
	ld   [i0,12],r1
	.dlab LBE511
	.dlab LBE510
	.dlab LBE509
	.dlab LBE508
	.dlab LBE507
	.dlab LBE506
	.stabs	"/Users/brzeszczot/workspace/mosync_engine2/Game.cpp",132,0,0,Ltext105
Ltext105:
	.line 4
	ld   [i0,20],i1
	ld   [i0,24],i2
	.stabs	"/Applications/MoSync/include/newlib/stlport/stl/_alloc.h",132,0,0,Ltext106
Ltext106:
	.line 289
	ld   i0,#0xc
	call &__Znwm ; call non-native
	.line 481
	ld   r0,r14
	.line 289
	ld   r1,#0x0
	jc   eq,r14,r1,#L512
	.dlab LBB512
	.dlab LBB513
	.dlab LBB514
	.dlab LBB515
	.stabs	"/Applications/MoSync/include/newlib/stlport/stl/_vector.h",132,0,0,Ltext107
Ltext107:
	.line 67
	ld   [r14],r1
	ld   [r14,4],r1
	.dlab LBB516
	.dlab LBB517
	.stabs	"/Applications/MoSync/include/newlib/stlport/stl/_alloc.h",132,0,0,Ltext108
Ltext108:
	.line 481
	ld   [r14,8],r1
L512:
	.dlab LBE517
	.dlab LBE516
	.dlab LBE515
	.dlab LBE514
	.dlab LBE513
	.dlab LBE512
	ld   [d0,16],r0
	.dlab LBE505
	.line 297
	add  sp,#0x10
	pop  rt,d0
	ret
	.stabs	"this:r(0,377)",64,0,220,30
	.stabn	192,0,0,LBB506-__ZN4GameC2E6Vertex
	.stabn	224,0,0,LBE506-__ZN4GameC2E6Vertex
Lscope11:
	.text
	.stabs "",100,0,0,Letext
Letext:
