.model full
	.sourcedir '/Users/brzeszczot/workspace/mosync_engine2/'
	.sourcefile '/Users/brzeszczot/workspace/mosync_engine2/Object.cpp'
	.stabs	"gcc2_compiled.",60,0,0,0
	.stabs	"__vtbl_ptr_type:t(0,1)=*(0,2)=f(0,3)=r(0,3);-2147483648;2147483647;",128,0,0,0
	.stabs	"bool:t(0,4)=@s8;-16;",128,0,0,0
	.stabs	"wchar_t:t(0,5)=@s16;r(0,5);0;65535;",128,0,0,0
	.stabs	"void:t(0,6)=(0,6)",128,0,0,0
	.stabs	"long double:t(0,7)=r(0,3);8;0;",128,0,0,0
	.stabs	"double:t(0,8)=r(0,3);8;0;",128,0,0,0
	.stabs	"float:t(0,9)=r(0,3);4;0;",128,0,0,0
	.stabs	"unsigned char:t(0,10)=@s8;r(0,10);0;255;",128,0,0,0
	.stabs	"signed char:t(0,11)=@s8;r(0,11);-128;127;",128,0,0,0
	.stabs	"short unsigned int:t(0,12)=@s16;r(0,12);0;65535;",128,0,0,0
	.stabs	"short int:t(0,13)=@s16;r(0,13);-32768;32767;",128,0,0,0
	.stabs	"long long unsigned int:t(0,14)=@s64;r(0,14);0000000000000;01777777777777777777777;",128,0,0,0
	.stabs	"long long int:t(0,15)=@s64;r(0,15);01000000000000000000000;0777777777777777777777;",128,0,0,0
	.stabs	"long unsigned int:t(0,16)=r(0,16);0000000000000;0037777777777;",128,0,0,0
	.stabs	"unsigned int:t(0,17)=r(0,17);0000000000000;0037777777777;",128,0,0,0
	.stabs	"long int:t(0,18)=r(0,18);-2147483648;2147483647;",128,0,0,0
	.stabs	"int:t(0,3)",128,0,0,0
	.stabs	"char:t(0,19)=r(0,19);0;127;",128,0,0,0
	.stabs	"__builtin_va_list:t(0,20)=*(0,6)",128,0,0,0
	.stabs	"complex long double:t(0,21)=R3;16;0;",128,0,0,0
	.stabs	"complex double:t(0,22)=R3;16;0;",128,0,0,0
	.stabs	"complex float:t(0,23)=R3;8;0;",128,0,0,0
	.stabs	"complex int:t(0,24)=s8real:(0,3),0,32;imag:(0,3),32,32;;",128,0,0,0
	.stabs	"/Users/brzeszczot/workspace/mosync_engine2/Object.hpp",130,0,0,0
	.stabs	"/Users/brzeszczot/workspace/mosync_engine2/ObjBase.hpp",130,0,0,0
	.stabs	"/Users/brzeszczot/workspace/mosync_engine2/IObjBase.hpp",130,0,0,0
	.stabs	"/Users/brzeszczot/workspace/mosync_engine2/Vertex.hpp",130,0,0,0
	.stabs	"Vertex:Tt(4,1)=s8x:(0,3),0,32;y:(0,3),32,32;__base_ctor::(4,2)=#(4,1),(0,6),(4,3)=*(4,1),(0,6);:_ZN6VertexC2Ev;2A.;__comp_ctor::(4,2):_ZN6VertexC1Ev;2A.;__base_ctor::(4,4)=#(4,1),(0,6),(4,3),(0,3),(0,3),(0,6);:_ZN6VertexC2Eii;2A.;__comp_ctor::(4,4):_ZN6VertexC1Eii;2A.;__base_ctor::(4,5)=#(4,1),(0,6),(4,3),(0,3),(0,6);:_ZN6VertexC2Ei;2A.;__comp_ctor::(4,5):_ZN6VertexC1Ei;2A.;operator+::(4,6)=#(4,1),(4,1),(4,3),(4,1),(0,6);:_ZN6VertexplES_;2A.;operator-::(4,6):_ZN6VertexmiES_;2A.;operator*::(4,6):_ZN6VertexmlES_;2A.;operator/::(4,6):_ZN6VertexdvES_;2A.;operator==::(4,7)=#(4,1),(0,4),(4,3),(4,1),(0,6);:_ZN6VertexeqES_;2A.;operator!=::(4,7):_ZN6VertexneES_;2A.;operator++::(4,8)=#(4,1),(4,1),(4,3),(0,3),(0,6);:_ZN6VertexppEi;2A.;operator--::(4,8):_ZN6VertexmmEi;2A.;operator=::(4,6):_ZN6VertexaSES_;2A.;operator+=::(4,6):_ZN6VertexpLES_;2A.;operator-=::(4,6):_ZN6VertexmIES_;2A.;operator*=::(4,6):_ZN6VertexmLES_;2A.;operator/=::(4,6):_ZN6VertexdVES_;2A.;__base_ctor::(4,9)=#(4,1),(0,6),(4,3),(4,10)=&(4,11)=k(4,1),(0,6);:_ZN6VertexC2ERKS_;2A.;__comp_ctor::(4,9):_ZN6VertexC1ERKS_;2A.;;",128,0,13,0
	.stabn	162,0,0,0
	.stabs	"IObjBase::s_properties:Tt(3,1)=s20visible:(0,4),0,8;is_wall:(0,4),8,8;border:(0,4),16,8;enabled:(0,4),24,8;size:(4,1),32,64;coords:(4,1),96,64;operator=::(3,2)=#(3,1),(3,3)=&(3,1),(3,4)=*(3,1),(3,5)=&(3,6)=k(3,1),(0,6);:_ZN8IObjBase12s_propertiesaSERKS0_;2A.;__base_ctor::(3,7)=#(3,1),(0,6),(3,4),(3,5),(0,6);:_ZN8IObjBase12s_propertiesC2ERKS0_;2A.;__comp_ctor::(3,7):_ZN8IObjBase12s_propertiesC1ERKS0_;2A.;__base_ctor::(3,8)=#(3,1),(0,6),(3,4),(0,6);:_ZN8IObjBase12s_propertiesC2Ev;2A.;__comp_ctor::(3,8):_ZN8IObjBase12s_propertiesC1Ev;2A.;;",128,0,12,0
	.stabn	162,0,0,0
	.stabn	162,0,0,0
	.stabs	"/Users/brzeszczot/workspace/mosync_engine2/ObjMove.hpp",130,0,0,0
	.stabs	"/Users/brzeszczot/workspace/mosync_engine2/IObjMove.hpp",130,0,0,0
	.stabs	"IObjMove::e_stat:t(6,1)=eSTOP:0,MOVE:1,HOLD:2,RESUME:3,;",128,0,11,0
	.stabs	"IObjMove::e_directions:t(6,2)=eNONE:-1,UP:0,DOWN:1,LEFT:2,RIGHT:3,;",128,0,12,0
	.stabs	"IObjMove::s_moveparam:Tt(6,3)=s24destination:(4,1),0,64;move_speed:(0,3),64,32;destination_current:(0,3),96,32;status:(6,1),128,32;direction:(6,2),160,32;operator=::(6,4)=#(6,3),(6,5)=&(6,3),(6,6)=*(6,3),(6,7)=&(6,8)=k(6,3),(0,6);:_ZN8IObjMove11s_moveparamaSERKS0_;2A.;__base_ctor::(6,9)=#(6,3),(0,6),(6,6),(6,7),(0,6);:_ZN8IObjMove11s_moveparamC2ERKS0_;2A.;__comp_ctor::(6,9):_ZN8IObjMove11s_moveparamC1ERKS0_;2A.;__base_ctor::(6,10)=#(6,3),(0,6),(6,6),(0,6);:_ZN8IObjMove11s_moveparamC2Ev;2A.;__comp_ctor::(6,10):_ZN8IObjMove11s_moveparamC1Ev;2A.;;",128,0,14,0
	.stabn	162,0,0,0
	.stabs	"/Users/brzeszczot/workspace/mosync_engine2/Alg.hpp",130,0,0,0
	.stabs	"/Applications/MoSync/include/newlib/stlport/cmath",130,0,0,0
	.stabs	"/Applications/MoSync/include/newlib/stlport/stl/_cmath.h",130,0,0,0
	.stabs	"/Applications/MoSync/include/newlib/stlport/math.h",130,0,0,0
	.stabs	"/Applications/MoSync/include/newlib/stlport/../math.h",130,0,0,0
	.stabs	"/Applications/MoSync/include/newlib/sys/reent.h",130,0,0,0
	.stabs	"/Applications/MoSync/include/newlib/sys/_types.h",130,0,0,0
	.stabs	"/Applications/MoSync/include/newlib/machine/_types.h",130,0,0,0
	.stabs	"/Applications/MoSync/include/newlib/machine/_default_types.h",130,0,0,0
	.stabs	"__int8_t:t(15,1)=(0,11)",128,0,26,0
	.stabs	"__uint8_t:t(15,2)=(0,10)",128,0,27,0
	.stabs	"__int16_t:t(15,3)=(0,13)",128,0,36,0
	.stabs	"__uint16_t:t(15,4)=(0,12)",128,0,37,0
	.stabs	"__int_least16_t:t(15,5)=(15,3)",128,0,46,0
	.stabs	"__uint_least16_t:t(15,6)=(15,4)",128,0,47,0
	.stabs	"__int32_t:t(15,7)=(0,3)",128,0,58,0
	.stabs	"__uint32_t:t(15,8)=(0,17)",128,0,59,0
	.stabs	"__int_least32_t:t(15,9)=(15,7)",128,0,76,0
	.stabs	"__uint_least32_t:t(15,10)=(15,8)",128,0,77,0
	.stabs	"__int64_t:t(15,11)=(0,15)",128,0,99,0
	.stabs	"__uint64_t:t(15,12)=(0,14)",128,0,100,0
	.stabn	162,0,0,0
	.stabn	162,0,0,0
	.stabs	"/Applications/MoSync/include/newlib/sys/lock.h",130,0,0,0
	.stabs	"_LOCK_T:t(16,1)=(0,3)",128,0,6,0
	.stabs	"_LOCK_RECURSIVE_T:t(16,2)=(0,3)",128,0,7,0
	.stabn	162,0,0,0
	.stabs	"_off_t:t(13,1)=(0,18)",128,0,16,0
	.stabs	"__dev_t:t(13,2)=(0,13)",128,0,24,0
	.stabs	"__uid_t:t(13,3)=(0,12)",128,0,29,0
	.stabs	"__gid_t:t(13,4)=(0,12)",128,0,32,0
	.stabs	"_off64_t:t(13,5)=(0,15)",128,0,36,0
	.stabs	"_fpos_t:t(13,6)=(0,18)",128,0,44,0
	.stabs	"_ssize_t:t(13,7)=(0,3)",128,0,56,0
	.stabs	"/Applications/MoSync/include/newlib/stlport/stddef.h",130,0,0,0
	.stabs	"/Applications/MoSync/include/newlib/stlport/../stddef.h",130,0,0,0
	.stabs	"wint_t:t(18,1)=(0,3)",128,0,6,0
	.stabs	"size_t:t(18,2)=(0,16)",128,0,7,0
	.stabs	"ptrdiff_t:t(18,3)=(0,3)",128,0,8,0
	.stabs	"wchar:t(18,4)=(0,5)",128,0,13,0
	.stabn	162,0,0,0
	.stabn	162,0,0,0
	.stabs	"_mbstate_t:t(13,8)=s8__count:(0,3),0,32;__value:(13,9)=u4__wch:(18,1),0,32;__wchb:(13,10)=ar(13,11)=r(13,11);0000000000000;0037777777777;;0;3;(0,10),0,32;operator=::(13,12)=#(13,9),(13,13)=&(13,9),(13,14)=*(13,9),(13,15)=&(13,16)=k(13,9),(0,6);:_ZN10_mbstate_t3$_1aSERKS0_;2A.;__base_ctor::(13,17)=#(13,9),(0,6),(13,14),(13,15),(0,6);:_ZN10_mbstate_t3$_1C2ERKS0_;2A.;__comp_ctor::(13,17):_ZN10_mbstate_t3$_1C1ERKS0_;2A.;__base_ctor::(13,18)=#(13,9),(0,6),(13,14),(0,6);:_ZN10_mbstate_t3$_1C2Ev;2A.;__comp_ctor::(13,18):_ZN10_mbstate_t3$_1C1Ev;2A.;;,32,32;operator=::(13,19)=#(13,8),(13,20)=&(13,8),(13,21)=*(13,8),(13,22)=&(13,23)=k(13,8),(0,6);:_ZN10_mbstate_taSERKS_;2A.;__base_ctor::(13,24)=#(13,8),(0,6),(13,21),(13,22),(0,6);:_ZN10_mbstate_tC2ERKS_;2A.;__comp_ctor::(13,24):_ZN10_mbstate_tC1ERKS_;2A.;__base_ctor::(13,25)=#(13,8),(0,6),(13,21),(0,6);:_ZN10_mbstate_tC2Ev;2A.;__comp_ctor::(13,25):_ZN10_mbstate_tC1Ev;2A.;;",128,0,75,0
	.stabs	"_flock_t:t(13,26)=(16,2)",128,0,79,0
	.stabs	"_iconv_t:t(13,27)=(13,28)=*(0,6)",128,0,84,0
	.stabn	162,0,0,0
	.stabs	"__ULong:t(12,1)=(0,16)",128,0,21,0
	.stabs	"_Bigint:Tt(12,2)=s24_next:(12,3)=*(12,2),0,32;_k:(0,3),32,32;_maxwds:(0,3),64,32;_sign:(0,3),96,32;_wds:(0,3),128,32;_x:(12,4)=ar(13,11);0;0;(12,1),160,32;operator=::(12,5)=#(12,2),(12,6)=&(12,2),(12,3),(12,7)=&(12,8)=k(12,2),(0,6);:_ZN7_BigintaSERKS_;2A.;__base_ctor::(12,9)=#(12,2),(0,6),(12,3),(12,7),(0,6);:_ZN7_BigintC2ERKS_;2A.;__comp_ctor::(12,9):_ZN7_BigintC1ERKS_;2A.;__base_ctor::(12,10)=#(12,2),(0,6),(12,3),(0,6);:_ZN7_BigintC2Ev;2A.;__comp_ctor::(12,10):_ZN7_BigintC1Ev;2A.;;",128,0,45,0
	.stabs	"__tm:Tt(12,11)=s36__tm_sec:(0,3),0,32;__tm_min:(0,3),32,32;__tm_hour:(0,3),64,32;__tm_mday:(0,3),96,32;__tm_mon:(0,3),128,32;__tm_year:(0,3),160,32;__tm_wday:(0,3),192,32;__tm_yday:(0,3),224,32;__tm_isdst:(0,3),256,32;operator=::(12,12)=#(12,11),(12,13)=&(12,11),(12,14)=*(12,11),(12,15)=&(12,16)=k(12,11),(0,6);:_ZN4__tmaSERKS_;2A.;__base_ctor::(12,17)=#(12,11),(0,6),(12,14),(12,15),(0,6);:_ZN4__tmC2ERKS_;2A.;__comp_ctor::(12,17):_ZN4__tmC1ERKS_;2A.;__base_ctor::(12,18)=#(12,11),(0,6),(12,14),(0,6);:_ZN4__tmC2Ev;2A.;__comp_ctor::(12,18):_ZN4__tmC1Ev;2A.;;",128,0,53,0
	.stabs	"_on_exit_args:Tt(12,19)=s264_fnargs:(12,20)=ar(13,11);0;31;(13,28),0,1024;_dso_handle:(12,20),1024,1024;_fntypes:(12,1),2048,32;_is_cxa:(12,1),2080,32;operator=::(12,21)=#(12,19),(12,22)=&(12,19),(12,23)=*(12,19),(12,24)=&(12,25)=k(12,19),(0,6);:_ZN13_on_exit_argsaSERKS_;2A.;__base_ctor::(12,26)=#(12,19),(0,6),(12,23),(12,24),(0,6);:_ZN13_on_exit_argsC2ERKS_;2A.;__comp_ctor::(12,26):_ZN13_on_exit_argsC1ERKS_;2A.;__base_ctor::(12,27)=#(12,19),(0,6),(12,23),(0,6);:_ZN13_on_exit_argsC2Ev;2A.;__comp_ctor::(12,27):_ZN13_on_exit_argsC1Ev;2A.;;",128,0,71,0
	.stabs	"_atexit:Tt(12,28)=s400_next:(12,29)=*(12,28),0,32;_ind:(0,3),32,32;_fns:(12,30)=ar(13,11);0;31;(12,31)=*(12,32)=f(0,6),64,1024;_on_exit_args:(12,19),1088,2112;operator=::(12,33)=#(12,28),(12,34)=&(12,28),(12,29),(12,35)=&(12,36)=k(12,28),(0,6);:_ZN7_atexitaSERKS_;2A.;__base_ctor::(12,37)=#(12,28),(0,6),(12,29),(12,35),(0,6);:_ZN7_atexitC2ERKS_;2A.;__comp_ctor::(12,37):_ZN7_atexitC1ERKS_;2A.;__base_ctor::(12,38)=#(12,28),(0,6),(12,29),(0,6);:_ZN7_atexitC2Ev;2A.;__comp_ctor::(12,38):_ZN7_atexitC1Ev;2A.;;",128,0,89,0
	.stabs	"__sbuf:Tt(12,39)=s8_base:(12,40)=*(0,10),0,32;_size:(0,3),32,32;operator=::(12,41)=#(12,39),(12,42)=&(12,39),(12,43)=*(12,39),(12,44)=&(12,45)=k(12,39),(0,6);:_ZN6__sbufaSERKS_;2A.;__base_ctor::(12,46)=#(12,39),(0,6),(12,43),(12,44),(0,6);:_ZN6__sbufC2ERKS_;2A.;__comp_ctor::(12,46):_ZN6__sbufC1ERKS_;2A.;__base_ctor::(12,47)=#(12,39),(0,6),(12,43),(0,6);:_ZN6__sbufC2Ev;2A.;__comp_ctor::(12,47):_ZN6__sbufC1Ev;2A.;;",128,0,105,0
	.stabs	"__sFILE:Tt(12,48)=s100_p:(12,40),0,32;_r:(0,3),32,32;_w:(0,3),64,32;_flags:(0,13),96,16;_file:(0,13),112,16;_bf:(12,39),128,64;_lbfsize:(0,3),192,32;_cookie:(13,28),224,32;_read:(12,49)=*(12,50)=f(0,3),256,32;_write:(12,51)=*(12,52)=f(0,3),288,32;_seek:(12,53)=*(12,54)=f(13,6),320,32;_close:(12,55)=*(12,56)=f(0,3),352,32;_ub:(12,39),384,64;_up:(12,40),448,32;_ur:(0,3),480,32;_ubuf:(12,57)=ar(13,11);0;2;(0,10),512,24;_nbuf:(12,58)=ar(13,11);0;0;(0,10),536,8;_lb:(12,39),544,64;_blksize:(0,3),608,32;_offset:(0,3),640,32;_data:(12,59)=*(12,60)=xs_reent:,672,32;_mbstate:(13,8),704,64;_flags2:(0,3),768,32;operator=::(12,61)=#(12,48),(12,62)=&(12,48),(12,63)=*(12,48),(12,64)=&(12,65)=k(12,48),(0,6);:_ZN7__sFILEaSERKS_;2A.;__base_ctor::(12,66)=#(12,48),(0,6),(12,63),(12,64),(0,6);:_ZN7__sFILEC2ERKS_;2A.;__comp_ctor::(12,66):_ZN7__sFILEC1ERKS_;2A.;__base_ctor::(12,67)=#(12,48),(0,6),(12,63),(0,6);:_ZN7__sFILEC2Ev;2A.;__comp_ctor::(12,67):_ZN7__sFILEC1Ev;2A.;;",128,0,169,0
	.stabs	"__FILE:t(12,68)=(12,48)",128,0,273,0
	.stabs	"_glue:Tt(12,69)=s12_next:(12,70)=*(12,69),0,32;_niobs:(0,3),32,32;_iobs:(12,71)=*(12,68),64,32;operator=::(12,72)=#(12,69),(12,73)=&(12,69),(12,70),(12,74)=&(12,75)=k(12,69),(0,6);:_ZN5_glueaSERKS_;2A.;__base_ctor::(12,76)=#(12,69),(0,6),(12,70),(12,74),(0,6);:_ZN5_glueC2ERKS_;2A.;__comp_ctor::(12,76):_ZN5_glueC1ERKS_;2A.;__base_ctor::(12,77)=#(12,69),(0,6),(12,70),(0,6);:_ZN5_glueC2Ev;2A.;__comp_ctor::(12,77):_ZN5_glueC1Ev;2A.;;",128,0,278,0
	.stabs	"_rand48:Tt(12,78)=s14_seed:(12,79)=ar(13,11);0;2;(0,12),0,48;_mult:(12,79),48,48;_add:(0,12),96,16;operator=::(12,80)=#(12,78),(12,81)=&(12,78),(12,82)=*(12,78),(12,83)=&(12,84)=k(12,78),(0,6);:_ZN7_rand48aSERKS_;2A.;__base_ctor::(12,85)=#(12,78),(0,6),(12,82),(12,83),(0,6);:_ZN7_rand48C2ERKS_;2A.;__comp_ctor::(12,85):_ZN7_rand48C1ERKS_;2A.;__base_ctor::(12,86)=#(12,78),(0,6),(12,82),(0,6);:_ZN7_rand48C2Ev;2A.;__comp_ctor::(12,86):_ZN7_rand48C1Ev;2A.;;",128,0,305,0
	.stabs	"_reent:Tt(12,60)=s1048_errno:(0,3),0,32;_stdin:(12,71),32,32;_stdout:(12,71),64,32;_stderr:(12,71),96,32;_inc:(0,3),128,32;_emergency:(12,87)=ar(13,11);0;24;(0,19),160,200;_current_category:(0,3),384,32;_current_locale:(12,88)=*(12,89)=k(0,19),416,32;__sdidinit:(0,3),448,32;__cleanup:(12,90)=*(12,91)=f(0,6),480,32;_result:(12,3),512,32;_result_k:(0,3),544,32;_p5s:(12,3),576,32;_freelist:(12,92)=*(12,3),608,32;_cvtlen:(0,3),640,32;_cvtbuf:(12,93)=*(0,19),672,32;_new:(12,94)=u240_reent:(12,95)=s204_unused_rand:(0,17),0,32;_strtok_last:(12,93),32,32;_asctime_buf:(12,96)=ar(13,11);0;25;(0,19),64,208;_localtime_buf:(12,11),288,288;_gamma_signgam:(0,3),576,32;_rand_next:(0,14),608,64;_r48:(12,78),672,112;_mblen_state:(13,8),800,64;_mbtowc_state:(13,8),864,64;_wctomb_state:(13,8),928,64;_l64a_buf:(12,97)=ar(13,11);0;7;(0,19),992,64;_signal_buf:(12,98)=ar(13,11);0;23;(0,19),1056,192;_getdate_err:(0,3),1248,32;_mbrlen_state:(13,8),1280,64;_mbrtowc_state:(13,8),1344,64;_mbsrtowcs_state:(13,8),1408,64;_wcrtomb_state:(13,8),1472,64;_wcsrtombs_state:(13,8),1536,64;_h_errno:(0,3),1600,32;operator=::(12,99)=#(12,95),(12,100)=&(12,95),(12,101)=*(12,95),(12,102)=&(12,103)=k(12,95),(0,6);:_ZN6_reent3$_23$_3aSERKS1_;2A.;__base_ctor::(12,104)=#(12,95),(0,6),(12,101),(12,102),(0,6);:_ZN6_reent3$_23$_3C2ERKS1_;2A.;__comp_ctor::(12,104):_ZN6_reent3$_23$_3C1ERKS1_;2A.;__base_ctor::(12,105)=#(12,95),(0,6),(12,101),(0,6);:_ZN6_reent3$_23$_3C2Ev;2A.;__comp_ctor::(12,105):_ZN6_reent3$_23$_3C1Ev;2A.;;,0,1632;_unused:(12,106)=s240_nextf:(12,107)=ar(13,11);0;29;(12,40),0,960;_nmalloc:(12,108)=ar(13,11);0;29;(0,17),960,960;operator=::(12,109)=#(12,106),(12,110)=&(12,106),(12,111)=*(12,106),(12,112)=&(12,113)=k(12,106),(0,6);:_ZN6_reent3$_23$_4aSERKS1_;2A.;__base_ctor::(12,114)=#(12,106),(0,6),(12,111),(12,112),(0,6);:_ZN6_reent3$_23$_4C2ERKS1_;2A.;__comp_ctor::(12,114):_ZN6_reent3$_23$_4C1ERKS1_;2A.;__base_ctor::(12,115)=#(12,106),(0,6),(12,111),(0,6);:_ZN6_reent3$_23$_4C2Ev;2A.;__comp_ctor::(12,115):_ZN6_reent3$_23$_4C1Ev;2A.;;,0,1920;operator=::(12,116)=#(12,94),(12,117)=&(12,94),(12,118)=*(12,94),(12,119)=&(12,120)=k(12,94),(0,6);:_ZN6_reent3$_2aSERKS0_;2A.;__base_ctor::(12,121)=#(12,94),(0,6),(12,118),(12,119),(0,6);:_ZN6_reent3$_2C2ERKS0_;2A.;__comp_ctor::(12,121):_ZN6_reent3$_2C1ERKS0_;2A.;__base_ctor::(12,122)=#(12,94),(0,6),(12,118),(0,6);:_ZN6_reent3$_2C2Ev;2A.;__comp_ctor::(12,122):_ZN6_reent3$_2C1Ev;2A.;;,704,1920;_atexit:(12,29),2624,32;_atexit0:(12,28),2656,3200;_sig_func:(12,123)=*(12,124)=*(12,125)=f(0,6),5856,32;__sglue:(12,69),5888,96;__sf:(12,126)=ar(13,11);0;2;(12,68),5984,2400;operator=::(12,127)=#(12,60),(12,128)=&(12,60),(12,59),(12,129)=&(12,130)=k(12,60),(0,6);:_ZN6_reentaSERKS_;2A.;__base_ctor::(12,131)=#(12,60),(0,6),(12,59),(12,129),(0,6);:_ZN6_reentC2ERKS_;2A.;__comp_ctor::(12,131):_ZN6_reentC1ERKS_;2A.;__base_ctor::(12,132)=#(12,60),(0,6),(12,59),(0,6);:_ZN6_reentC2Ev;2A.;__comp_ctor::(12,132):_ZN6_reentC1Ev;2A.;;",128,0,581,0
	.stabn	162,0,0,0
	.stabs	"__dmath:Tt(11,1)=u8d:(0,8),0,64;i:(11,2)=ar(13,11);0;1;(12,1),0,64;operator=::(11,3)=#(11,1),(11,4)=&(11,1),(11,5)=*(11,1),(11,6)=&(11,7)=k(11,1),(0,6);:_ZN7__dmathaSERKS_;2A.;__base_ctor::(11,8)=#(11,1),(0,6),(11,5),(11,6),(0,6);:_ZN7__dmathC2ERKS_;2A.;__comp_ctor::(11,8):_ZN7__dmathC1ERKS_;2A.;__base_ctor::(11,9)=#(11,1),(0,6),(11,5),(0,6);:_ZN7__dmathC2Ev;2A.;__comp_ctor::(11,9):_ZN7__dmathC1Ev;2A.;;",128,0,15,0
	.stabs	"__fmath:Tt(11,10)=u4f:(0,9),0,32;i:(12,4),0,32;operator=::(11,11)=#(11,10),(11,12)=&(11,10),(11,13)=*(11,10),(11,14)=&(11,15)=k(11,10),(0,6);:_ZN7__fmathaSERKS_;2A.;__base_ctor::(11,16)=#(11,10),(0,6),(11,13),(11,14),(0,6);:_ZN7__fmathC2ERKS_;2A.;__comp_ctor::(11,16):_ZN7__fmathC1ERKS_;2A.;__base_ctor::(11,17)=#(11,10),(0,6),(11,13),(0,6);:_ZN7__fmathC2Ev;2A.;__comp_ctor::(11,17):_ZN7__fmathC1Ev;2A.;;",128,0,21,0
	.stabs	"float_t:t(11,18)=(0,9)",128,0,148,0
	.stabs	"double_t:t(11,19)=(0,8)",128,0,149,0
	.stabs	"__exception:Tt(11,20)=s36type:(0,3),0,32;name:(12,88),32,32;arg1:(0,8),64,64;arg2:(0,8),128,64;retval:(0,8),192,64;err:(0,3),256,32;operator=::(11,21)=#(11,20),(11,22)=&(11,20),(11,23)=*(11,20),(11,24)=&(11,25)=k(11,20),(0,6);:_ZN11__exceptionaSERKS_;2A.;__base_ctor::(11,26)=#(11,20),(0,6),(11,23),(11,24),(0,6);:_ZN11__exceptionC2ERKS_;2A.;__comp_ctor::(11,26):_ZN11__exceptionC1ERKS_;2A.;__base_ctor::(11,27)=#(11,20),(0,6),(11,23),(0,6);:_ZN11__exceptionC2Ev;2A.;__comp_ctor::(11,27):_ZN11__exceptionC1Ev;2A.;;",128,0,501,0
	.stabs	"__fdlibm_version:t(11,28)=e__fdlibm_ieee:-1,__fdlibm_svid:0,__fdlibm_xopen:1,__fdlibm_posix:2,;",128,0,555,0
	.stabn	162,0,0,0
	.stabn	162,0,0,0
	.stabs	"/Applications/MoSync/include/newlib/stlport/stl/_cstdlib.h",130,0,0,0
	.stabs	"/Applications/MoSync/include/newlib/stlport/stdlib.h",130,0,0,0
	.stabs	"/Applications/MoSync/include/newlib/stlport/../stdlib.h",130,0,0,0
	.stabs	"/Applications/MoSync/include/newlib/malloc.h",130,0,0,0
	.stabs	"mallinfo:Tt(22,1)=s40arena:(0,3),0,32;ordblks:(0,3),32,32;smblks:(0,3),64,32;hblks:(0,3),96,32;hblkhd:(0,3),128,32;usmblks:(0,3),160,32;fsmblks:(0,3),192,32;uordblks:(0,3),224,32;fordblks:(0,3),256,32;keepcost:(0,3),288,32;operator=::(22,2)=#(22,1),(22,3)=&(22,1),(22,4)=*(22,1),(22,5)=&(22,6)=k(22,1),(0,6);:_ZN8mallinfoaSERKS_;2A.;__base_ctor::(22,7)=#(22,1),(0,6),(22,4),(22,5),(0,6);:_ZN8mallinfoC2ERKS_;2A.;__comp_ctor::(22,7):_ZN8mallinfoC1ERKS_;2A.;__base_ctor::(22,8)=#(22,1),(0,6),(22,4),(0,6);:_ZN8mallinfoC2Ev;2A.;__comp_ctor::(22,8):_ZN8mallinfoC1Ev;2A.;;",128,0,24,0
	.stabn	162,0,0,0
	.stabs	"div_t:t(21,1)=s8quot:(0,3),0,32;rem:(0,3),32,32;operator=::(21,2)=#(21,1),(21,3)=&(21,1),(21,4)=*(21,1),(21,5)=&(21,6)=k(21,1),(0,6);:_ZN5div_taSERKS_;2A.;__base_ctor::(21,7)=#(21,1),(0,6),(21,4),(21,5),(0,6);:_ZN5div_tC2ERKS_;2A.;__comp_ctor::(21,7):_ZN5div_tC1ERKS_;2A.;__base_ctor::(21,8)=#(21,1),(0,6),(21,4),(0,6);:_ZN5div_tC2Ev;2A.;__comp_ctor::(21,8):_ZN5div_tC1Ev;2A.;;",128,0,35,0
	.stabs	"ldiv_t:t(21,9)=s8quot:(0,18),0,32;rem:(0,18),32,32;operator=::(21,10)=#(21,9),(21,11)=&(21,9),(21,12)=*(21,9),(21,13)=&(21,14)=k(21,9),(0,6);:_ZN6ldiv_taSERKS_;2A.;__base_ctor::(21,15)=#(21,9),(0,6),(21,12),(21,13),(0,6);:_ZN6ldiv_tC2ERKS_;2A.;__comp_ctor::(21,15):_ZN6ldiv_tC1ERKS_;2A.;__base_ctor::(21,16)=#(21,9),(0,6),(21,12),(0,6);:_ZN6ldiv_tC2Ev;2A.;__comp_ctor::(21,16):_ZN6ldiv_tC1Ev;2A.;;",128,0,41,0
	.stabs	"lldiv_t:t(21,17)=s16quot:(0,15),0,64;rem:(0,15),64,64;operator=::(21,18)=#(21,17),(21,19)=&(21,17),(21,20)=*(21,17),(21,21)=&(21,22)=k(21,17),(0,6);:_ZN7lldiv_taSERKS_;2A.;__base_ctor::(21,23)=#(21,17),(0,6),(21,20),(21,21),(0,6);:_ZN7lldiv_tC2ERKS_;2A.;__comp_ctor::(21,23):_ZN7lldiv_tC1ERKS_;2A.;__base_ctor::(21,24)=#(21,17),(0,6),(21,20),(0,6);:_ZN7lldiv_tC2Ev;2A.;__comp_ctor::(21,24):_ZN7lldiv_tC1Ev;2A.;;",128,0,48,0
	.stabn	162,0,0,0
	.stabn	162,0,0,0
	.stabn	162,0,0,0
	.stabn	162,0,0,0
	.stabn	162,0,0,0
	.stabs	"/Applications/MoSync/include/newlib/stlport/algorithm",130,0,0,0
	.stabs	"/Applications/MoSync/include/newlib/stlport/stl/_cstdio.h",130,0,0,0
	.stabs	"/Applications/MoSync/include/newlib/stlport/stdio.h",130,0,0,0
	.stabs	"/Applications/MoSync/include/newlib/stlport/../stdio.h",130,0,0,0
	.stabs	"/Applications/MoSync/include/newlib/stlport/stdarg.h",130,0,0,0
	.stabs	"/Applications/MoSync/include/newlib/stlport/../stdarg.h",130,0,0,0
	.stabs	"__gnuc_va_list:t(28,1)=(0,20)",128,0,34,0
	.stabs	"va_list:t(28,2)=(28,1)",128,0,35,0
	.stabn	162,0,0,0
	.stabn	162,0,0,0
	.stabs	"/Applications/MoSync/include/newlib/sys/types.h",130,0,0,0
	.stabs	"u_int8_t:t(29,1)=(15,2)",128,0,36,0
	.stabs	"u_int16_t:t(29,2)=(15,4)",128,0,39,0
	.stabs	"u_int32_t:t(29,3)=(15,8)",128,0,42,0
	.stabs	"u_int64_t:t(29,4)=(15,12)",128,0,46,0
	.stabs	"u_quad_t:t(29,5)=(15,12)",128,0,49,0
	.stabs	"quad_t:t(29,6)=(15,11)",128,0,50,0
	.stabs	"qaddr_t:t(29,7)=(29,8)=*(29,6)",128,0,51,0
	.stabs	"/Applications/MoSync/include/newlib/machine/types.h",130,0,0,0
	.stabs	"__off_t:t(30,1)=(0,18)",128,0,19,0
	.stabs	"__pid_t:t(30,2)=(0,3)",128,0,20,0
	.stabs	"__loff_t:t(30,3)=(0,15)",128,0,22,0
	.stabn	162,0,0,0
	.stabs	"u_char:t(29,9)=(0,10)",128,0,92,0
	.stabs	"u_short:t(29,10)=(0,12)",128,0,93,0
	.stabs	"u_int:t(29,11)=(0,17)",128,0,94,0
	.stabs	"u_long:t(29,12)=(0,16)",128,0,95,0
	.stabs	"ushort:t(29,13)=(0,12)",128,0,101,0
	.stabs	"uint:t(29,14)=(0,17)",128,0,102,0
	.stabs	"clock_t:t(29,15)=(0,16)",128,0,107,0
	.stabs	"time_t:t(29,16)=(0,18)",128,0,112,0
	.stabs	"timespec:Tt(29,17)=s8tv_sec:(29,16),0,32;tv_nsec:(0,18),32,32;operator=::(29,18)=#(29,17),(29,19)=&(29,17),(29,20)=*(29,17),(29,21)=&(29,22)=k(29,17),(0,6);:_ZN8timespecaSERKS_;2A.;__base_ctor::(29,23)=#(29,17),(0,6),(29,20),(29,21),(0,6);:_ZN8timespecC2ERKS_;2A.;__comp_ctor::(29,23):_ZN8timespecC1ERKS_;2A.;__base_ctor::(29,24)=#(29,17),(0,6),(29,20),(0,6);:_ZN8timespecC2Ev;2A.;__comp_ctor::(29,24):_ZN8timespecC1Ev;2A.;;",128,0,117,0
	.stabs	"itimerspec:Tt(29,25)=s16it_interval:(29,17),0,64;it_value:(29,17),64,64;operator=::(29,26)=#(29,25),(29,27)=&(29,25),(29,28)=*(29,25),(29,29)=&(29,30)=k(29,25),(0,6);:_ZN10itimerspecaSERKS_;2A.;__base_ctor::(29,31)=#(29,25),(0,6),(29,28),(29,29),(0,6);:_ZN10itimerspecC2ERKS_;2A.;__comp_ctor::(29,31):_ZN10itimerspecC1ERKS_;2A.;__base_ctor::(29,32)=#(29,25),(0,6),(29,28),(0,6);:_ZN10itimerspecC2Ev;2A.;__comp_ctor::(29,32):_ZN10itimerspecC1Ev;2A.;;",128,0,122,0
	.stabs	"daddr_t:t(29,33)=(0,18)",128,0,128,0
	.stabs	"caddr_t:t(29,34)=(12,93)",128,0,129,0
	.stabs	"ino_t:t(29,35)=(0,12)",128,0,136,0
	.stabs	"off_t:t(29,36)=(13,1)",128,0,165,0
	.stabs	"dev_t:t(29,37)=(13,2)",128,0,166,0
	.stabs	"uid_t:t(29,38)=(13,3)",128,0,167,0
	.stabs	"gid_t:t(29,39)=(13,4)",128,0,168,0
	.stabs	"pid_t:t(29,40)=(0,3)",128,0,174,0
	.stabs	"key_t:t(29,41)=(0,18)",128,0,182,0
	.stabs	"ssize_t:t(29,42)=(13,7)",128,0,184,0
	.stabs	"mode_t:t(29,43)=(0,17)",128,0,198,0
	.stabs	"nlink_t:t(29,44)=(0,12)",128,0,203,0
	.stabs	"fd_mask:t(29,45)=(0,18)",128,0,225,0
	.stabs	"_types_fd_set:Tt(29,46)=s8fds_bits:(29,47)=ar(13,11);0;1;(29,45),0,64;operator=::(29,48)=#(29,46),(29,49)=&(29,46),(29,50)=*(29,46),(29,51)=&(29,52)=k(29,46),(0,6);:_ZN13_types_fd_setaSERKS_;2A.;__base_ctor::(29,53)=#(29,46),(0,6),(29,50),(29,51),(0,6);:_ZN13_types_fd_setC2ERKS_;2A.;__comp_ctor::(29,53):_ZN13_types_fd_setC1ERKS_;2A.;__base_ctor::(29,54)=#(29,46),(0,6),(29,50),(0,6);:_ZN13_types_fd_setC2Ev;2A.;__comp_ctor::(29,54):_ZN13_types_fd_setC1Ev;2A.;;",128,0,233,0
	.stabs	"_types_fd_set:t(29,55)=(29,46)",128,0,235,0
	.stabs	"clockid_t:t(29,56)=(0,16)",128,0,256,0
	.stabs	"timer_t:t(29,57)=(0,16)",128,0,261,0
	.stabs	"useconds_t:t(29,58)=(0,16)",128,0,265,0
	.stabs	"suseconds_t:t(29,59)=(0,18)",128,0,266,0
	.stabn	162,0,0,0
	.stabs	"FILE:t(26,1)=(12,68)",128,0,50,0
	.stabs	"fpos_t:t(26,2)=(13,6)",128,0,55,0
	.stabs	"cookie_read_function_t:t(26,3)=(26,4)=f(29,42)",128,0,552,0
	.stabs	"cookie_write_function_t:t(26,5)=(26,6)=f(29,42)",128,0,554,0
	.stabs	"cookie_seek_function_t:t(26,7)=(26,8)=f(0,3)",128,0,559,0
	.stabs	"cookie_close_function_t:t(26,9)=(26,10)=f(0,3)",128,0,561,0
	.stabs	"cookie_io_functions_t:t(26,11)=s16read:(26,12)=*(26,3),0,32;write:(26,13)=*(26,5),32,32;seek:(26,14)=*(26,7),64,32;close:(26,15)=*(26,9),96,32;operator=::(26,16)=#(26,11),(26,17)=&(26,11),(26,18)=*(26,11),(26,19)=&(26,20)=k(26,11),(0,6);:_ZN21cookie_io_functions_taSERKS_;2A.;__base_ctor::(26,21)=#(26,11),(0,6),(26,18),(26,19),(0,6);:_ZN21cookie_io_functions_tC2ERKS_;2A.;__comp_ctor::(26,21):_ZN21cookie_io_functions_tC1ERKS_;2A.;__base_ctor::(26,22)=#(26,11),(0,6),(26,18),(0,6);:_ZN21cookie_io_functions_tC2Ev;2A.;__comp_ctor::(26,22):_ZN21cookie_io_functions_tC1Ev;2A.;;",128,0,570,0
	.stabn	162,0,0,0
	.stabn	162,0,0,0
	.stabn	162,0,0,0
	.stabs	"/Applications/MoSync/include/newlib/stlport/stl/_algo.h",130,0,0,0
	.stabs	"/Applications/MoSync/include/newlib/stlport/stl/_algobase.h",130,0,0,0
	.stabs	"/Applications/MoSync/include/newlib/stlport/stl/_pair.h",130,0,0,0
	.stabs	"/Applications/MoSync/include/newlib/stlport/stl/type_traits.h",130,0,0,0
	.stabs	"/Applications/MoSync/include/newlib/stlport/stl/type_manips.h",130,0,0,0
	.stabs	"__true_type:Tt(35,1)=s1operator=::(35,2)=#(35,1),(35,3)=&(35,1),(35,4)=*(35,1),(35,5)=&(35,6)=k(35,1),(0,6);:_ZN11stlpmtx_std11__true_typeaSERKS0_;2A.;__base_ctor::(35,7)=#(35,1),(0,6),(35,4),(35,5),(0,6);:_ZN11stlpmtx_std11__true_typeC2ERKS0_;2A.;__comp_ctor::(35,7):_ZN11stlpmtx_std11__true_typeC1ERKS0_;2A.;__base_ctor::(35,8)=#(35,1),(0,6),(35,4),(0,6);:_ZN11stlpmtx_std11__true_typeC2Ev;2A.;__comp_ctor::(35,8):_ZN11stlpmtx_std11__true_typeC1Ev;2A.;;",128,0,23,0
	.stabs	"__false_type:Tt(35,9)=s1operator=::(35,10)=#(35,9),(35,11)=&(35,9),(35,12)=*(35,9),(35,13)=&(35,14)=k(35,9),(0,6);:_ZN11stlpmtx_std12__false_typeaSERKS0_;2A.;__base_ctor::(35,15)=#(35,9),(0,6),(35,12),(35,13),(0,6);:_ZN11stlpmtx_std12__false_typeC2ERKS0_;2A.;__comp_ctor::(35,15):_ZN11stlpmtx_std12__false_typeC1ERKS0_;2A.;__base_ctor::(35,16)=#(35,9),(0,6),(35,12),(0,6);:_ZN11stlpmtx_std12__false_typeC2Ev;2A.;__comp_ctor::(35,16):_ZN11stlpmtx_std12__false_typeC1Ev;2A.;;",128,0,24,0
	.stabs	"__bool2type<1>:Tt(35,17)=s1operator=::(35,18)=#(35,17),(35,19)=&(35,17),(35,20)=*(35,17),(35,21)=&(35,22)=k(35,17),(0,6);:_ZN11stlpmtx_std11__bool2typeILi1EEaSERKS1_;2A.;__base_ctor::(35,23)=#(35,17),(0,6),(35,20),(35,21),(0,6);:_ZN11stlpmtx_std11__bool2typeILi1EEC2ERKS1_;2A.;__comp_ctor::(35,23):_ZN11stlpmtx_std11__bool2typeILi1EEC1ERKS1_;2A.;__base_ctor::(35,24)=#(35,17),(0,6),(35,20),(0,6);:_ZN11stlpmtx_std11__bool2typeILi1EEC2Ev;2A.;__comp_ctor::(35,24):_ZN11stlpmtx_std11__bool2typeILi1EEC1Ev;2A.;;",128,0,39,0
	.stabs	"__bool2type<0>:Tt(35,25)=s1operator=::(35,26)=#(35,25),(35,27)=&(35,25),(35,28)=*(35,25),(35,29)=&(35,30)=k(35,25),(0,6);:_ZN11stlpmtx_std11__bool2typeILi0EEaSERKS1_;2A.;__base_ctor::(35,31)=#(35,25),(0,6),(35,28),(35,29),(0,6);:_ZN11stlpmtx_std11__bool2typeILi0EEC2ERKS1_;2A.;__comp_ctor::(35,31):_ZN11stlpmtx_std11__bool2typeILi0EEC1ERKS1_;2A.;__base_ctor::(35,32)=#(35,25),(0,6),(35,28),(0,6);:_ZN11stlpmtx_std11__bool2typeILi0EEC2Ev;2A.;__comp_ctor::(35,32):_ZN11stlpmtx_std11__bool2typeILi0EEC1Ev;2A.;;",128,0,42,0
	.stabs	"__type2bool<stlpmtx_std::__true_type>:Tt(35,33)=s1operator=::(35,34)=#(35,33),(35,35)=&(35,33),(35,36)=*(35,33),(35,37)=&(35,38)=k(35,33),(0,6);:_ZN11stlpmtx_std11__type2boolINS_11__true_typeEEaSERKS2_;2A.;__base_ctor::(35,39)=#(35,33),(0,6),(35,36),(35,37),(0,6);:_ZN11stlpmtx_std11__type2boolINS_11__true_typeEEC2ERKS2_;2A.;__comp_ctor::(35,39):_ZN11stlpmtx_std11__type2boolINS_11__true_typeEEC1ERKS2_;2A.;__base_ctor::(35,40)=#(35,33),(0,6),(35,36),(0,6);:_ZN11stlpmtx_std11__type2boolINS_11__true_typeEEC2Ev;2A.;__comp_ctor::(35,40):_ZN11stlpmtx_std11__type2boolINS_11__true_typeEEC1Ev;2A.;;",128,0,49,0
	.stabs	"__type2bool<stlpmtx_std::__false_type>:Tt(35,41)=s1operator=::(35,42)=#(35,41),(35,43)=&(35,41),(35,44)=*(35,41),(35,45)=&(35,46)=k(35,41),(0,6);:_ZN11stlpmtx_std11__type2boolINS_12__false_typeEEaSERKS2_;2A.;__base_ctor::(35,47)=#(35,41),(0,6),(35,44),(35,45),(0,6);:_ZN11stlpmtx_std11__type2boolINS_12__false_typeEEC2ERKS2_;2A.;__comp_ctor::(35,47):_ZN11stlpmtx_std11__type2boolINS_12__false_typeEEC1ERKS2_;2A.;__base_ctor::(35,48)=#(35,41),(0,6),(35,44),(0,6);:_ZN11stlpmtx_std11__type2boolINS_12__false_typeEEC2Ev;2A.;__comp_ctor::(35,48):_ZN11stlpmtx_std11__type2boolINS_12__false_typeEEC1Ev;2A.;;",128,0,52,0
	.stabs	"_Not<stlpmtx_std::__false_type>:Tt(35,49)=s1operator=::(35,50)=#(35,49),(35,51)=&(35,49),(35,52)=*(35,49),(35,53)=&(35,54)=k(35,49),(0,6);:_ZN11stlpmtx_std4_NotINS_12__false_typeEEaSERKS2_;2A.;__base_ctor::(35,55)=#(35,49),(0,6),(35,52),(35,53),(0,6);:_ZN11stlpmtx_std4_NotINS_12__false_typeEEC2ERKS2_;2A.;__comp_ctor::(35,55):_ZN11stlpmtx_std4_NotINS_12__false_typeEEC1ERKS2_;2A.;__base_ctor::(35,56)=#(35,49),(0,6),(35,52),(0,6);:_ZN11stlpmtx_std4_NotINS_12__false_typeEEC2Ev;2A.;__comp_ctor::(35,56):_ZN11stlpmtx_std4_NotINS_12__false_typeEEC1Ev;2A.;;",128,0,59,0
	.stabs	"_Land2<stlpmtx_std::__true_type,stlpmtx_std::__true_type>:Tt(35,57)=s1operator=::(35,58)=#(35,57),(35,59)=&(35,57),(35,60)=*(35,57),(35,61)=&(35,62)=k(35,57),(0,6);:_ZN11stlpmtx_std6_Land2INS_11__true_typeES1_EaSERKS2_;2A.;__base_ctor::(35,63)=#(35,57),(0,6),(35,60),(35,61),(0,6);:_ZN11stlpmtx_std6_Land2INS_11__true_typeES1_EC2ERKS2_;2A.;__comp_ctor::(35,63):_ZN11stlpmtx_std6_Land2INS_11__true_typeES1_EC1ERKS2_;2A.;__base_ctor::(35,64)=#(35,57),(0,6),(35,60),(0,6);:_ZN11stlpmtx_std6_Land2INS_11__true_typeES1_EC2Ev;2A.;__comp_ctor::(35,64):_ZN11stlpmtx_std6_Land2INS_11__true_typeES1_EC1Ev;2A.;;",128,0,66,0
	.stabs	"_Land3<stlpmtx_std::__true_type,stlpmtx_std::__true_type,stlpmtx_std::__true_type>:Tt(35,65)=s1operator=::(35,66)=#(35,65),(35,67)=&(35,65),(35,68)=*(35,65),(35,69)=&(35,70)=k(35,65),(0,6);:_ZN11stlpmtx_std6_Land3INS_11__true_typeES1_S1_EaSERKS2_;2A.;__base_ctor::(35,71)=#(35,65),(0,6),(35,68),(35,69),(0,6);:_ZN11stlpmtx_std6_Land3INS_11__true_typeES1_S1_EC2ERKS2_;2A.;__comp_ctor::(35,71):_ZN11stlpmtx_std6_Land3INS_11__true_typeES1_S1_EC1ERKS2_;2A.;__base_ctor::(35,72)=#(35,65),(0,6),(35,68),(0,6);:_ZN11stlpmtx_std6_Land3INS_11__true_typeES1_S1_EC2Ev;2A.;__comp_ctor::(35,72):_ZN11stlpmtx_std6_Land3INS_11__true_typeES1_S1_EC1Ev;2A.;;",128,0,73,0
	.stabs	"_Lor2<stlpmtx_std::__false_type,stlpmtx_std::__false_type>:Tt(35,73)=s1operator=::(35,74)=#(35,73),(35,75)=&(35,73),(35,76)=*(35,73),(35,77)=&(35,78)=k(35,73),(0,6);:_ZN11stlpmtx_std5_Lor2INS_12__false_typeES1_EaSERKS2_;2A.;__base_ctor::(35,79)=#(35,73),(0,6),(35,76),(35,77),(0,6);:_ZN11stlpmtx_std5_Lor2INS_12__false_typeES1_EC2ERKS2_;2A.;__comp_ctor::(35,79):_ZN11stlpmtx_std5_Lor2INS_12__false_typeES1_EC1ERKS2_;2A.;__base_ctor::(35,80)=#(35,73),(0,6),(35,76),(0,6);:_ZN11stlpmtx_std5_Lor2INS_12__false_typeES1_EC2Ev;2A.;__comp_ctor::(35,80):_ZN11stlpmtx_std5_Lor2INS_12__false_typeES1_EC1Ev;2A.;;",128,0,80,0
	.stabs	"_Lor3<stlpmtx_std::__false_type,stlpmtx_std::__false_type,stlpmtx_std::__false_type>:Tt(35,81)=s1operator=::(35,82)=#(35,81),(35,83)=&(35,81),(35,84)=*(35,81),(35,85)=&(35,86)=k(35,81),(0,6);:_ZN11stlpmtx_std5_Lor3INS_12__false_typeES1_S1_EaSERKS2_;2A.;__base_ctor::(35,87)=#(35,81),(0,6),(35,84),(35,85),(0,6);:_ZN11stlpmtx_std5_Lor3INS_12__false_typeES1_S1_EC2ERKS2_;2A.;__comp_ctor::(35,87):_ZN11stlpmtx_std5_Lor3INS_12__false_typeES1_S1_EC1ERKS2_;2A.;__base_ctor::(35,88)=#(35,81),(0,6),(35,84),(0,6);:_ZN11stlpmtx_std5_Lor3INS_12__false_typeES1_S1_EC2Ev;2A.;__comp_ctor::(35,88):_ZN11stlpmtx_std5_Lor3INS_12__false_typeES1_S1_EC1Ev;2A.;;",128,0,87,0
	.stabs	"_NoVolatilePointerShim:Tt(35,89)=s1__base_ctor::(35,90)=#(35,89),(0,6),(35,91)=*(35,89),(35,92)=*(35,93)=k(0,6),(0,6);:_ZN11stlpmtx_std22_NoVolatilePointerShimC2EPKv;2A.;__comp_ctor::(35,90):_ZN11stlpmtx_std22_NoVolatilePointerShimC1EPKv;2A.;operator=::(35,94)=#(35,89),(35,95)=&(35,89),(35,91),(35,96)=&(35,97)=k(35,89),(0,6);:_ZN11stlpmtx_std22_NoVolatilePointerShimaSERKS0_;2A.;__base_ctor::(35,98)=#(35,89),(0,6),(35,91),(35,96),(0,6);:_ZN11stlpmtx_std22_NoVolatilePointerShimC2ERKS0_;2A.;__comp_ctor::(35,98):_ZN11stlpmtx_std22_NoVolatilePointerShimC1ERKS0_;2A.;;",128,0,164,0
	.stabn	162,0,0,0
	.stabs	"_IsIntegral<bool>:Tt(34,1)=s1operator=::(34,2)=#(34,1),(34,3)=&(34,1),(34,4)=*(34,1),(34,5)=&(34,6)=k(34,1),(0,6);:_ZN11stlpmtx_std11_IsIntegralIbEaSERKS1_;2A.;__base_ctor::(34,7)=#(34,1),(0,6),(34,4),(34,5),(0,6);:_ZN11stlpmtx_std11_IsIntegralIbEC2ERKS1_;2A.;__comp_ctor::(34,7):_ZN11stlpmtx_std11_IsIntegralIbEC1ERKS1_;2A.;__base_ctor::(34,8)=#(34,1),(0,6),(34,4),(0,6);:_ZN11stlpmtx_std11_IsIntegralIbEC2Ev;2A.;__comp_ctor::(34,8):_ZN11stlpmtx_std11_IsIntegralIbEC1Ev;2A.;;",128,0,84,0
	.stabs	"_IsIntegral<char>:Tt(34,9)=s1operator=::(34,10)=#(34,9),(34,11)=&(34,9),(34,12)=*(34,9),(34,13)=&(34,14)=k(34,9),(0,6);:_ZN11stlpmtx_std11_IsIntegralIcEaSERKS1_;2A.;__base_ctor::(34,15)=#(34,9),(0,6),(34,12),(34,13),(0,6);:_ZN11stlpmtx_std11_IsIntegralIcEC2ERKS1_;2A.;__comp_ctor::(34,15):_ZN11stlpmtx_std11_IsIntegralIcEC1ERKS1_;2A.;__base_ctor::(34,16)=#(34,9),(0,6),(34,12),(0,6);:_ZN11stlpmtx_std11_IsIntegralIcEC2Ev;2A.;__comp_ctor::(34,16):_ZN11stlpmtx_std11_IsIntegralIcEC1Ev;2A.;;",128,0,88,0
	.stabs	"_IsIntegral<signed char>:Tt(34,17)=s1operator=::(34,18)=#(34,17),(34,19)=&(34,17),(34,20)=*(34,17),(34,21)=&(34,22)=k(34,17),(0,6);:_ZN11stlpmtx_std11_IsIntegralIaEaSERKS1_;2A.;__base_ctor::(34,23)=#(34,17),(0,6),(34,20),(34,21),(0,6);:_ZN11stlpmtx_std11_IsIntegralIaEC2ERKS1_;2A.;__comp_ctor::(34,23):_ZN11stlpmtx_std11_IsIntegralIaEC1ERKS1_;2A.;__base_ctor::(34,24)=#(34,17),(0,6),(34,20),(0,6);:_ZN11stlpmtx_std11_IsIntegralIaEC2Ev;2A.;__comp_ctor::(34,24):_ZN11stlpmtx_std11_IsIntegralIaEC1Ev;2A.;;",128,0,92,0
	.stabs	"_IsIntegral<unsigned char>:Tt(34,25)=s1operator=::(34,26)=#(34,25),(34,27)=&(34,25),(34,28)=*(34,25),(34,29)=&(34,30)=k(34,25),(0,6);:_ZN11stlpmtx_std11_IsIntegralIhEaSERKS1_;2A.;__base_ctor::(34,31)=#(34,25),(0,6),(34,28),(34,29),(0,6);:_ZN11stlpmtx_std11_IsIntegralIhEC2ERKS1_;2A.;__comp_ctor::(34,31):_ZN11stlpmtx_std11_IsIntegralIhEC1ERKS1_;2A.;__base_ctor::(34,32)=#(34,25),(0,6),(34,28),(0,6);:_ZN11stlpmtx_std11_IsIntegralIhEC2Ev;2A.;__comp_ctor::(34,32):_ZN11stlpmtx_std11_IsIntegralIhEC1Ev;2A.;;",128,0,96,0
	.stabs	"_IsIntegral<short int>:Tt(34,33)=s1operator=::(34,34)=#(34,33),(34,35)=&(34,33),(34,36)=*(34,33),(34,37)=&(34,38)=k(34,33),(0,6);:_ZN11stlpmtx_std11_IsIntegralIsEaSERKS1_;2A.;__base_ctor::(34,39)=#(34,33),(0,6),(34,36),(34,37),(0,6);:_ZN11stlpmtx_std11_IsIntegralIsEC2ERKS1_;2A.;__comp_ctor::(34,39):_ZN11stlpmtx_std11_IsIntegralIsEC1ERKS1_;2A.;__base_ctor::(34,40)=#(34,33),(0,6),(34,36),(0,6);:_ZN11stlpmtx_std11_IsIntegralIsEC2Ev;2A.;__comp_ctor::(34,40):_ZN11stlpmtx_std11_IsIntegralIsEC1Ev;2A.;;",128,0,104,0
	.stabs	"_IsIntegral<short unsigned int>:Tt(34,41)=s1operator=::(34,42)=#(34,41),(34,43)=&(34,41),(34,44)=*(34,41),(34,45)=&(34,46)=k(34,41),(0,6);:_ZN11stlpmtx_std11_IsIntegralItEaSERKS1_;2A.;__base_ctor::(34,47)=#(34,41),(0,6),(34,44),(34,45),(0,6);:_ZN11stlpmtx_std11_IsIntegralItEC2ERKS1_;2A.;__comp_ctor::(34,47):_ZN11stlpmtx_std11_IsIntegralItEC1ERKS1_;2A.;__base_ctor::(34,48)=#(34,41),(0,6),(34,44),(0,6);:_ZN11stlpmtx_std11_IsIntegralItEC2Ev;2A.;__comp_ctor::(34,48):_ZN11stlpmtx_std11_IsIntegralItEC1Ev;2A.;;",128,0,107,0
	.stabs	"_IsIntegral<int>:Tt(34,49)=s1operator=::(34,50)=#(34,49),(34,51)=&(34,49),(34,52)=*(34,49),(34,53)=&(34,54)=k(34,49),(0,6);:_ZN11stlpmtx_std11_IsIntegralIiEaSERKS1_;2A.;__base_ctor::(34,55)=#(34,49),(0,6),(34,52),(34,53),(0,6);:_ZN11stlpmtx_std11_IsIntegralIiEC2ERKS1_;2A.;__comp_ctor::(34,55):_ZN11stlpmtx_std11_IsIntegralIiEC1ERKS1_;2A.;__base_ctor::(34,56)=#(34,49),(0,6),(34,52),(0,6);:_ZN11stlpmtx_std11_IsIntegralIiEC2Ev;2A.;__comp_ctor::(34,56):_ZN11stlpmtx_std11_IsIntegralIiEC1Ev;2A.;;",128,0,110,0
	.stabs	"_IsIntegral<unsigned int>:Tt(34,57)=s1operator=::(34,58)=#(34,57),(34,59)=&(34,57),(34,60)=*(34,57),(34,61)=&(34,62)=k(34,57),(0,6);:_ZN11stlpmtx_std11_IsIntegralIjEaSERKS1_;2A.;__base_ctor::(34,63)=#(34,57),(0,6),(34,60),(34,61),(0,6);:_ZN11stlpmtx_std11_IsIntegralIjEC2ERKS1_;2A.;__comp_ctor::(34,63):_ZN11stlpmtx_std11_IsIntegralIjEC1ERKS1_;2A.;__base_ctor::(34,64)=#(34,57),(0,6),(34,60),(0,6);:_ZN11stlpmtx_std11_IsIntegralIjEC2Ev;2A.;__comp_ctor::(34,64):_ZN11stlpmtx_std11_IsIntegralIjEC1Ev;2A.;;",128,0,113,0
	.stabs	"_IsIntegral<long int>:Tt(34,65)=s1operator=::(34,66)=#(34,65),(34,67)=&(34,65),(34,68)=*(34,65),(34,69)=&(34,70)=k(34,65),(0,6);:_ZN11stlpmtx_std11_IsIntegralIlEaSERKS1_;2A.;__base_ctor::(34,71)=#(34,65),(0,6),(34,68),(34,69),(0,6);:_ZN11stlpmtx_std11_IsIntegralIlEC2ERKS1_;2A.;__comp_ctor::(34,71):_ZN11stlpmtx_std11_IsIntegralIlEC1ERKS1_;2A.;__base_ctor::(34,72)=#(34,65),(0,6),(34,68),(0,6);:_ZN11stlpmtx_std11_IsIntegralIlEC2Ev;2A.;__comp_ctor::(34,72):_ZN11stlpmtx_std11_IsIntegralIlEC1Ev;2A.;;",128,0,116,0
	.stabs	"_IsIntegral<long unsigned int>:Tt(34,73)=s1operator=::(34,74)=#(34,73),(34,75)=&(34,73),(34,76)=*(34,73),(34,77)=&(34,78)=k(34,73),(0,6);:_ZN11stlpmtx_std11_IsIntegralImEaSERKS1_;2A.;__base_ctor::(34,79)=#(34,73),(0,6),(34,76),(34,77),(0,6);:_ZN11stlpmtx_std11_IsIntegralImEC2ERKS1_;2A.;__comp_ctor::(34,79):_ZN11stlpmtx_std11_IsIntegralImEC1ERKS1_;2A.;__base_ctor::(34,80)=#(34,73),(0,6),(34,76),(0,6);:_ZN11stlpmtx_std11_IsIntegralImEC2Ev;2A.;__comp_ctor::(34,80):_ZN11stlpmtx_std11_IsIntegralImEC1Ev;2A.;;",128,0,119,0
	.stabs	"_IsIntegral<long long int>:Tt(34,81)=s1operator=::(34,82)=#(34,81),(34,83)=&(34,81),(34,84)=*(34,81),(34,85)=&(34,86)=k(34,81),(0,6);:_ZN11stlpmtx_std11_IsIntegralIxEaSERKS1_;2A.;__base_ctor::(34,87)=#(34,81),(0,6),(34,84),(34,85),(0,6);:_ZN11stlpmtx_std11_IsIntegralIxEC2ERKS1_;2A.;__comp_ctor::(34,87):_ZN11stlpmtx_std11_IsIntegralIxEC1ERKS1_;2A.;__base_ctor::(34,88)=#(34,81),(0,6),(34,84),(0,6);:_ZN11stlpmtx_std11_IsIntegralIxEC2Ev;2A.;__comp_ctor::(34,88):_ZN11stlpmtx_std11_IsIntegralIxEC1Ev;2A.;;",128,0,123,0
	.stabs	"_IsIntegral<long long unsigned int>:Tt(34,89)=s1operator=::(34,90)=#(34,89),(34,91)=&(34,89),(34,92)=*(34,89),(34,93)=&(34,94)=k(34,89),(0,6);:_ZN11stlpmtx_std11_IsIntegralIyEaSERKS1_;2A.;__base_ctor::(34,95)=#(34,89),(0,6),(34,92),(34,93),(0,6);:_ZN11stlpmtx_std11_IsIntegralIyEC2ERKS1_;2A.;__comp_ctor::(34,95):_ZN11stlpmtx_std11_IsIntegralIyEC1ERKS1_;2A.;__base_ctor::(34,96)=#(34,89),(0,6),(34,92),(0,6);:_ZN11stlpmtx_std11_IsIntegralIyEC2Ev;2A.;__comp_ctor::(34,96):_ZN11stlpmtx_std11_IsIntegralIyEC1Ev;2A.;;",128,0,126,0
	.stabs	"_IsRational<float>:Tt(34,97)=s1operator=::(34,98)=#(34,97),(34,99)=&(34,97),(34,100)=*(34,97),(34,101)=&(34,102)=k(34,97),(0,6);:_ZN11stlpmtx_std11_IsRationalIfEaSERKS1_;2A.;__base_ctor::(34,103)=#(34,97),(0,6),(34,100),(34,101),(0,6);:_ZN11stlpmtx_std11_IsRationalIfEC2ERKS1_;2A.;__comp_ctor::(34,103):_ZN11stlpmtx_std11_IsRationalIfEC1ERKS1_;2A.;__base_ctor::(34,104)=#(34,97),(0,6),(34,100),(0,6);:_ZN11stlpmtx_std11_IsRationalIfEC2Ev;2A.;__comp_ctor::(34,104):_ZN11stlpmtx_std11_IsRationalIfEC1Ev;2A.;;",128,0,133,0
	.stabs	"_IsRational<double>:Tt(34,105)=s1operator=::(34,106)=#(34,105),(34,107)=&(34,105),(34,108)=*(34,105),(34,109)=&(34,110)=k(34,105),(0,6);:_ZN11stlpmtx_std11_IsRationalIdEaSERKS1_;2A.;__base_ctor::(34,111)=#(34,105),(0,6),(34,108),(34,109),(0,6);:_ZN11stlpmtx_std11_IsRationalIdEC2ERKS1_;2A.;__comp_ctor::(34,111):_ZN11stlpmtx_std11_IsRationalIdEC1ERKS1_;2A.;__base_ctor::(34,112)=#(34,105),(0,6),(34,108),(0,6);:_ZN11stlpmtx_std11_IsRationalIdEC2Ev;2A.;__comp_ctor::(34,112):_ZN11stlpmtx_std11_IsRationalIdEC1Ev;2A.;;",128,0,136,0
	.stabs	"__type_traits_aux<stlpmtx_std::__false_type>:Tt(34,113)=s1operator=::(34,114)=#(34,113),(34,115)=&(34,113),(34,116)=*(34,113),(34,117)=&(34,118)=k(34,113),(0,6);:_ZN11stlpmtx_std17__type_traits_auxINS_12__false_typeEEaSERKS2_;2A.;__base_ctor::(34,119)=#(34,113),(0,6),(34,116),(34,117),(0,6);:_ZN11stlpmtx_std17__type_traits_auxINS_12__false_typeEEC2ERKS2_;2A.;__comp_ctor::(34,119):_ZN11stlpmtx_std17__type_traits_auxINS_12__false_typeEEC1ERKS2_;2A.;__base_ctor::(34,120)=#(34,113),(0,6),(34,116),(0,6);:_ZN11stlpmtx_std17__type_traits_auxINS_12__false_typeEEC2Ev;2A.;__comp_ctor::(34,120):_ZN11stlpmtx_std17__type_traits_auxINS_12__false_typeEEC1Ev;2A.;;",128,0,154,0
	.stabs	"__type_traits_aux<stlpmtx_std::__true_type>:Tt(34,121)=s1operator=::(34,122)=#(34,121),(34,123)=&(34,121),(34,124)=*(34,121),(34,125)=&(34,126)=k(34,121),(0,6);:_ZN11stlpmtx_std17__type_traits_auxINS_11__true_typeEEaSERKS2_;2A.;__base_ctor::(34,127)=#(34,121),(0,6),(34,124),(34,125),(0,6);:_ZN11stlpmtx_std17__type_traits_auxINS_11__true_typeEEC2ERKS2_;2A.;__comp_ctor::(34,127):_ZN11stlpmtx_std17__type_traits_auxINS_11__true_typeEEC1ERKS2_;2A.;__base_ctor::(34,128)=#(34,121),(0,6),(34,124),(0,6);:_ZN11stlpmtx_std17__type_traits_auxINS_11__true_typeEEC2Ev;2A.;__comp_ctor::(34,128):_ZN11stlpmtx_std17__type_traits_auxINS_11__true_typeEEC1Ev;2A.;;",128,0,163,0
	.stabs	"__type_traits<bool>:Tt(34,129)=s1!1,020,(34,121);operator=::(34,130)=#(34,129),(34,131)=&(34,129),(34,132)=*(34,129),(34,133)=&(34,134)=k(34,129),(0,6);:_ZN11stlpmtx_std13__type_traitsIbEaSERKS1_;2A.;__base_ctor::(34,135)=#(34,129),(0,6),(34,132),(34,133),(0,6);:_ZN11stlpmtx_std13__type_traitsIbEC2ERKS1_;2A.;__comp_ctor::(34,135):_ZN11stlpmtx_std13__type_traitsIbEC1ERKS1_;2A.;__base_ctor::(34,136)=#(34,129),(0,6),(34,132),(0,6);:_ZN11stlpmtx_std13__type_traitsIbEC2Ev;2A.;__comp_ctor::(34,136):_ZN11stlpmtx_std13__type_traitsIbEC1Ev;2A.;;",128,0,284,0
	.stabs	"__type_traits<const bool>:Tt(34,137)=s1!1,020,(34,121);operator=::(34,138)=#(34,137),(34,139)=&(34,137),(34,140)=*(34,137),(34,141)=&(34,142)=k(34,137),(0,6);:_ZN11stlpmtx_std13__type_traitsIKbEaSERKS2_;2A.;__base_ctor::(34,143)=#(34,137),(0,6),(34,140),(34,141),(0,6);:_ZN11stlpmtx_std13__type_traitsIKbEC2ERKS2_;2A.;__comp_ctor::(34,143):_ZN11stlpmtx_std13__type_traitsIKbEC1ERKS2_;2A.;__base_ctor::(34,144)=#(34,137),(0,6),(34,140),(0,6);:_ZN11stlpmtx_std13__type_traitsIKbEC2Ev;2A.;__comp_ctor::(34,144):_ZN11stlpmtx_std13__type_traitsIKbEC1Ev;2A.;;",128,0,284,0
	.stabs	"__type_traits<volatile bool>:Tt(34,145)=s1!1,020,(34,121);operator=::(34,146)=#(34,145),(34,147)=&(34,145),(34,148)=*(34,145),(34,149)=&(34,150)=k(34,145),(0,6);:_ZN11stlpmtx_std13__type_traitsIVbEaSERKS2_;2A.;__base_ctor::(34,151)=#(34,145),(0,6),(34,148),(34,149),(0,6);:_ZN11stlpmtx_std13__type_traitsIVbEC2ERKS2_;2A.;__comp_ctor::(34,151):_ZN11stlpmtx_std13__type_traitsIVbEC1ERKS2_;2A.;__base_ctor::(34,152)=#(34,145),(0,6),(34,148),(0,6);:_ZN11stlpmtx_std13__type_traitsIVbEC2Ev;2A.;__comp_ctor::(34,152):_ZN11stlpmtx_std13__type_traitsIVbEC1Ev;2A.;;",128,0,284,0
	.stabs	"__type_traits<const volatile bool>:Tt(34,153)=s1!1,020,(34,121);operator=::(34,154)=#(34,153),(34,155)=&(34,153),(34,156)=*(34,153),(34,157)=&(34,158)=k(34,153),(0,6);:_ZN11stlpmtx_std13__type_traitsIVKbEaSERKS2_;2A.;__base_ctor::(34,159)=#(34,153),(0,6),(34,156),(34,157),(0,6);:_ZN11stlpmtx_std13__type_traitsIVKbEC2ERKS2_;2A.;__comp_ctor::(34,159):_ZN11stlpmtx_std13__type_traitsIVKbEC1ERKS2_;2A.;__base_ctor::(34,160)=#(34,153),(0,6),(34,156),(0,6);:_ZN11stlpmtx_std13__type_traitsIVKbEC2Ev;2A.;__comp_ctor::(34,160):_ZN11stlpmtx_std13__type_traitsIVKbEC1Ev;2A.;;",128,0,284,0
	.stabs	"__type_traits<char>:Tt(34,161)=s1!1,020,(34,121);operator=::(34,162)=#(34,161),(34,163)=&(34,161),(34,164)=*(34,161),(34,165)=&(34,166)=k(34,161),(0,6);:_ZN11stlpmtx_std13__type_traitsIcEaSERKS1_;2A.;__base_ctor::(34,167)=#(34,161),(0,6),(34,164),(34,165),(0,6);:_ZN11stlpmtx_std13__type_traitsIcEC2ERKS1_;2A.;__comp_ctor::(34,167):_ZN11stlpmtx_std13__type_traitsIcEC1ERKS1_;2A.;__base_ctor::(34,168)=#(34,161),(0,6),(34,164),(0,6);:_ZN11stlpmtx_std13__type_traitsIcEC2Ev;2A.;__comp_ctor::(34,168):_ZN11stlpmtx_std13__type_traitsIcEC1Ev;2A.;;",128,0,286,0
	.stabs	"__type_traits<const char>:Tt(34,169)=s1!1,020,(34,121);operator=::(34,170)=#(34,169),(34,171)=&(34,169),(34,172)=*(34,169),(34,173)=&(34,174)=k(34,169),(0,6);:_ZN11stlpmtx_std13__type_traitsIKcEaSERKS2_;2A.;__base_ctor::(34,175)=#(34,169),(0,6),(34,172),(34,173),(0,6);:_ZN11stlpmtx_std13__type_traitsIKcEC2ERKS2_;2A.;__comp_ctor::(34,175):_ZN11stlpmtx_std13__type_traitsIKcEC1ERKS2_;2A.;__base_ctor::(34,176)=#(34,169),(0,6),(34,172),(0,6);:_ZN11stlpmtx_std13__type_traitsIKcEC2Ev;2A.;__comp_ctor::(34,176):_ZN11stlpmtx_std13__type_traitsIKcEC1Ev;2A.;;",128,0,286,0
	.stabs	"__type_traits<volatile char>:Tt(34,177)=s1!1,020,(34,121);operator=::(34,178)=#(34,177),(34,179)=&(34,177),(34,180)=*(34,177),(34,181)=&(34,182)=k(34,177),(0,6);:_ZN11stlpmtx_std13__type_traitsIVcEaSERKS2_;2A.;__base_ctor::(34,183)=#(34,177),(0,6),(34,180),(34,181),(0,6);:_ZN11stlpmtx_std13__type_traitsIVcEC2ERKS2_;2A.;__comp_ctor::(34,183):_ZN11stlpmtx_std13__type_traitsIVcEC1ERKS2_;2A.;__base_ctor::(34,184)=#(34,177),(0,6),(34,180),(0,6);:_ZN11stlpmtx_std13__type_traitsIVcEC2Ev;2A.;__comp_ctor::(34,184):_ZN11stlpmtx_std13__type_traitsIVcEC1Ev;2A.;;",128,0,286,0
	.stabs	"__type_traits<const volatile char>:Tt(34,185)=s1!1,020,(34,121);operator=::(34,186)=#(34,185),(34,187)=&(34,185),(34,188)=*(34,185),(34,189)=&(34,190)=k(34,185),(0,6);:_ZN11stlpmtx_std13__type_traitsIVKcEaSERKS2_;2A.;__base_ctor::(34,191)=#(34,185),(0,6),(34,188),(34,189),(0,6);:_ZN11stlpmtx_std13__type_traitsIVKcEC2ERKS2_;2A.;__comp_ctor::(34,191):_ZN11stlpmtx_std13__type_traitsIVKcEC1ERKS2_;2A.;__base_ctor::(34,192)=#(34,185),(0,6),(34,188),(0,6);:_ZN11stlpmtx_std13__type_traitsIVKcEC2Ev;2A.;__comp_ctor::(34,192):_ZN11stlpmtx_std13__type_traitsIVKcEC1Ev;2A.;;",128,0,286,0
	.stabs	"__type_traits<signed char>:Tt(34,193)=s1!1,020,(34,121);operator=::(34,194)=#(34,193),(34,195)=&(34,193),(34,196)=*(34,193),(34,197)=&(34,198)=k(34,193),(0,6);:_ZN11stlpmtx_std13__type_traitsIaEaSERKS1_;2A.;__base_ctor::(34,199)=#(34,193),(0,6),(34,196),(34,197),(0,6);:_ZN11stlpmtx_std13__type_traitsIaEC2ERKS1_;2A.;__comp_ctor::(34,199):_ZN11stlpmtx_std13__type_traitsIaEC1ERKS1_;2A.;__base_ctor::(34,200)=#(34,193),(0,6),(34,196),(0,6);:_ZN11stlpmtx_std13__type_traitsIaEC2Ev;2A.;__comp_ctor::(34,200):_ZN11stlpmtx_std13__type_traitsIaEC1Ev;2A.;;",128,0,288,0
	.stabs	"__type_traits<const signed char>:Tt(34,201)=s1!1,020,(34,121);operator=::(34,202)=#(34,201),(34,203)=&(34,201),(34,204)=*(34,201),(34,205)=&(34,206)=k(34,201),(0,6);:_ZN11stlpmtx_std13__type_traitsIKaEaSERKS2_;2A.;__base_ctor::(34,207)=#(34,201),(0,6),(34,204),(34,205),(0,6);:_ZN11stlpmtx_std13__type_traitsIKaEC2ERKS2_;2A.;__comp_ctor::(34,207):_ZN11stlpmtx_std13__type_traitsIKaEC1ERKS2_;2A.;__base_ctor::(34,208)=#(34,201),(0,6),(34,204),(0,6);:_ZN11stlpmtx_std13__type_traitsIKaEC2Ev;2A.;__comp_ctor::(34,208):_ZN11stlpmtx_std13__type_traitsIKaEC1Ev;2A.;;",128,0,288,0
	.stabs	"__type_traits<volatile signed char>:Tt(34,209)=s1!1,020,(34,121);operator=::(34,210)=#(34,209),(34,211)=&(34,209),(34,212)=*(34,209),(34,213)=&(34,214)=k(34,209),(0,6);:_ZN11stlpmtx_std13__type_traitsIVaEaSERKS2_;2A.;__base_ctor::(34,215)=#(34,209),(0,6),(34,212),(34,213),(0,6);:_ZN11stlpmtx_std13__type_traitsIVaEC2ERKS2_;2A.;__comp_ctor::(34,215):_ZN11stlpmtx_std13__type_traitsIVaEC1ERKS2_;2A.;__base_ctor::(34,216)=#(34,209),(0,6),(34,212),(0,6);:_ZN11stlpmtx_std13__type_traitsIVaEC2Ev;2A.;__comp_ctor::(34,216):_ZN11stlpmtx_std13__type_traitsIVaEC1Ev;2A.;;",128,0,288,0
	.stabs	"__type_traits<const volatile signed char>:Tt(34,217)=s1!1,020,(34,121);operator=::(34,218)=#(34,217),(34,219)=&(34,217),(34,220)=*(34,217),(34,221)=&(34,222)=k(34,217),(0,6);:_ZN11stlpmtx_std13__type_traitsIVKaEaSERKS2_;2A.;__base_ctor::(34,223)=#(34,217),(0,6),(34,220),(34,221),(0,6);:_ZN11stlpmtx_std13__type_traitsIVKaEC2ERKS2_;2A.;__comp_ctor::(34,223):_ZN11stlpmtx_std13__type_traitsIVKaEC1ERKS2_;2A.;__base_ctor::(34,224)=#(34,217),(0,6),(34,220),(0,6);:_ZN11stlpmtx_std13__type_traitsIVKaEC2Ev;2A.;__comp_ctor::(34,224):_ZN11stlpmtx_std13__type_traitsIVKaEC1Ev;2A.;;",128,0,288,0
	.stabs	"__type_traits<unsigned char>:Tt(34,225)=s1!1,020,(34,121);operator=::(34,226)=#(34,225),(34,227)=&(34,225),(34,228)=*(34,225),(34,229)=&(34,230)=k(34,225),(0,6);:_ZN11stlpmtx_std13__type_traitsIhEaSERKS1_;2A.;__base_ctor::(34,231)=#(34,225),(0,6),(34,228),(34,229),(0,6);:_ZN11stlpmtx_std13__type_traitsIhEC2ERKS1_;2A.;__comp_ctor::(34,231):_ZN11stlpmtx_std13__type_traitsIhEC1ERKS1_;2A.;__base_ctor::(34,232)=#(34,225),(0,6),(34,228),(0,6);:_ZN11stlpmtx_std13__type_traitsIhEC2Ev;2A.;__comp_ctor::(34,232):_ZN11stlpmtx_std13__type_traitsIhEC1Ev;2A.;;",128,0,290,0
	.stabs	"__type_traits<const unsigned char>:Tt(34,233)=s1!1,020,(34,121);operator=::(34,234)=#(34,233),(34,235)=&(34,233),(34,236)=*(34,233),(34,237)=&(34,238)=k(34,233),(0,6);:_ZN11stlpmtx_std13__type_traitsIKhEaSERKS2_;2A.;__base_ctor::(34,239)=#(34,233),(0,6),(34,236),(34,237),(0,6);:_ZN11stlpmtx_std13__type_traitsIKhEC2ERKS2_;2A.;__comp_ctor::(34,239):_ZN11stlpmtx_std13__type_traitsIKhEC1ERKS2_;2A.;__base_ctor::(34,240)=#(34,233),(0,6),(34,236),(0,6);:_ZN11stlpmtx_std13__type_traitsIKhEC2Ev;2A.;__comp_ctor::(34,240):_ZN11stlpmtx_std13__type_traitsIKhEC1Ev;2A.;;",128,0,290,0
	.stabs	"__type_traits<volatile unsigned char>:Tt(34,241)=s1!1,020,(34,121);operator=::(34,242)=#(34,241),(34,243)=&(34,241),(34,244)=*(34,241),(34,245)=&(34,246)=k(34,241),(0,6);:_ZN11stlpmtx_std13__type_traitsIVhEaSERKS2_;2A.;__base_ctor::(34,247)=#(34,241),(0,6),(34,244),(34,245),(0,6);:_ZN11stlpmtx_std13__type_traitsIVhEC2ERKS2_;2A.;__comp_ctor::(34,247):_ZN11stlpmtx_std13__type_traitsIVhEC1ERKS2_;2A.;__base_ctor::(34,248)=#(34,241),(0,6),(34,244),(0,6);:_ZN11stlpmtx_std13__type_traitsIVhEC2Ev;2A.;__comp_ctor::(34,248):_ZN11stlpmtx_std13__type_traitsIVhEC1Ev;2A.;;",128,0,290,0
	.stabs	"__type_traits<const volatile unsigned char>:Tt(34,249)=s1!1,020,(34,121);operator=::(34,250)=#(34,249),(34,251)=&(34,249),(34,252)=*(34,249),(34,253)=&(34,254)=k(34,249),(0,6);:_ZN11stlpmtx_std13__type_traitsIVKhEaSERKS2_;2A.;__base_ctor::(34,255)=#(34,249),(0,6),(34,252),(34,253),(0,6);:_ZN11stlpmtx_std13__type_traitsIVKhEC2ERKS2_;2A.;__comp_ctor::(34,255):_ZN11stlpmtx_std13__type_traitsIVKhEC1ERKS2_;2A.;__base_ctor::(34,256)=#(34,249),(0,6),(34,252),(0,6);:_ZN11stlpmtx_std13__type_traitsIVKhEC2Ev;2A.;__comp_ctor::(34,256):_ZN11stlpmtx_std13__type_traitsIVKhEC1Ev;2A.;;",128,0,290,0
	.stabs	"__type_traits<short int>:Tt(34,257)=s1!1,020,(34,121);operator=::(34,258)=#(34,257),(34,259)=&(34,257),(34,260)=*(34,257),(34,261)=&(34,262)=k(34,257),(0,6);:_ZN11stlpmtx_std13__type_traitsIsEaSERKS1_;2A.;__base_ctor::(34,263)=#(34,257),(0,6),(34,260),(34,261),(0,6);:_ZN11stlpmtx_std13__type_traitsIsEC2ERKS1_;2A.;__comp_ctor::(34,263):_ZN11stlpmtx_std13__type_traitsIsEC1ERKS1_;2A.;__base_ctor::(34,264)=#(34,257),(0,6),(34,260),(0,6);:_ZN11stlpmtx_std13__type_traitsIsEC2Ev;2A.;__comp_ctor::(34,264):_ZN11stlpmtx_std13__type_traitsIsEC1Ev;2A.;;",128,0,295,0
	.stabs	"__type_traits<const short int>:Tt(34,265)=s1!1,020,(34,121);operator=::(34,266)=#(34,265),(34,267)=&(34,265),(34,268)=*(34,265),(34,269)=&(34,270)=k(34,265),(0,6);:_ZN11stlpmtx_std13__type_traitsIKsEaSERKS2_;2A.;__base_ctor::(34,271)=#(34,265),(0,6),(34,268),(34,269),(0,6);:_ZN11stlpmtx_std13__type_traitsIKsEC2ERKS2_;2A.;__comp_ctor::(34,271):_ZN11stlpmtx_std13__type_traitsIKsEC1ERKS2_;2A.;__base_ctor::(34,272)=#(34,265),(0,6),(34,268),(0,6);:_ZN11stlpmtx_std13__type_traitsIKsEC2Ev;2A.;__comp_ctor::(34,272):_ZN11stlpmtx_std13__type_traitsIKsEC1Ev;2A.;;",128,0,295,0
	.stabs	"__type_traits<volatile short int>:Tt(34,273)=s1!1,020,(34,121);operator=::(34,274)=#(34,273),(34,275)=&(34,273),(34,276)=*(34,273),(34,277)=&(34,278)=k(34,273),(0,6);:_ZN11stlpmtx_std13__type_traitsIVsEaSERKS2_;2A.;__base_ctor::(34,279)=#(34,273),(0,6),(34,276),(34,277),(0,6);:_ZN11stlpmtx_std13__type_traitsIVsEC2ERKS2_;2A.;__comp_ctor::(34,279):_ZN11stlpmtx_std13__type_traitsIVsEC1ERKS2_;2A.;__base_ctor::(34,280)=#(34,273),(0,6),(34,276),(0,6);:_ZN11stlpmtx_std13__type_traitsIVsEC2Ev;2A.;__comp_ctor::(34,280):_ZN11stlpmtx_std13__type_traitsIVsEC1Ev;2A.;;",128,0,295,0
	.stabs	"__type_traits<const volatile short int>:Tt(34,281)=s1!1,020,(34,121);operator=::(34,282)=#(34,281),(34,283)=&(34,281),(34,284)=*(34,281),(34,285)=&(34,286)=k(34,281),(0,6);:_ZN11stlpmtx_std13__type_traitsIVKsEaSERKS2_;2A.;__base_ctor::(34,287)=#(34,281),(0,6),(34,284),(34,285),(0,6);:_ZN11stlpmtx_std13__type_traitsIVKsEC2ERKS2_;2A.;__comp_ctor::(34,287):_ZN11stlpmtx_std13__type_traitsIVKsEC1ERKS2_;2A.;__base_ctor::(34,288)=#(34,281),(0,6),(34,284),(0,6);:_ZN11stlpmtx_std13__type_traitsIVKsEC2Ev;2A.;__comp_ctor::(34,288):_ZN11stlpmtx_std13__type_traitsIVKsEC1Ev;2A.;;",128,0,295,0
	.stabs	"__type_traits<short unsigned int>:Tt(34,289)=s1!1,020,(34,121);operator=::(34,290)=#(34,289),(34,291)=&(34,289),(34,292)=*(34,289),(34,293)=&(34,294)=k(34,289),(0,6);:_ZN11stlpmtx_std13__type_traitsItEaSERKS1_;2A.;__base_ctor::(34,295)=#(34,289),(0,6),(34,292),(34,293),(0,6);:_ZN11stlpmtx_std13__type_traitsItEC2ERKS1_;2A.;__comp_ctor::(34,295):_ZN11stlpmtx_std13__type_traitsItEC1ERKS1_;2A.;__base_ctor::(34,296)=#(34,289),(0,6),(34,292),(0,6);:_ZN11stlpmtx_std13__type_traitsItEC2Ev;2A.;__comp_ctor::(34,296):_ZN11stlpmtx_std13__type_traitsItEC1Ev;2A.;;",128,0,296,0
	.stabs	"__type_traits<const short unsigned int>:Tt(34,297)=s1!1,020,(34,121);operator=::(34,298)=#(34,297),(34,299)=&(34,297),(34,300)=*(34,297),(34,301)=&(34,302)=k(34,297),(0,6);:_ZN11stlpmtx_std13__type_traitsIKtEaSERKS2_;2A.;__base_ctor::(34,303)=#(34,297),(0,6),(34,300),(34,301),(0,6);:_ZN11stlpmtx_std13__type_traitsIKtEC2ERKS2_;2A.;__comp_ctor::(34,303):_ZN11stlpmtx_std13__type_traitsIKtEC1ERKS2_;2A.;__base_ctor::(34,304)=#(34,297),(0,6),(34,300),(0,6);:_ZN11stlpmtx_std13__type_traitsIKtEC2Ev;2A.;__comp_ctor::(34,304):_ZN11stlpmtx_std13__type_traitsIKtEC1Ev;2A.;;",128,0,296,0
	.stabs	"__type_traits<volatile short unsigned int>:Tt(34,305)=s1!1,020,(34,121);operator=::(34,306)=#(34,305),(34,307)=&(34,305),(34,308)=*(34,305),(34,309)=&(34,310)=k(34,305),(0,6);:_ZN11stlpmtx_std13__type_traitsIVtEaSERKS2_;2A.;__base_ctor::(34,311)=#(34,305),(0,6),(34,308),(34,309),(0,6);:_ZN11stlpmtx_std13__type_traitsIVtEC2ERKS2_;2A.;__comp_ctor::(34,311):_ZN11stlpmtx_std13__type_traitsIVtEC1ERKS2_;2A.;__base_ctor::(34,312)=#(34,305),(0,6),(34,308),(0,6);:_ZN11stlpmtx_std13__type_traitsIVtEC2Ev;2A.;__comp_ctor::(34,312):_ZN11stlpmtx_std13__type_traitsIVtEC1Ev;2A.;;",128,0,296,0
	.stabs	"__type_traits<const volatile short unsigned int>:Tt(34,313)=s1!1,020,(34,121);operator=::(34,314)=#(34,313),(34,315)=&(34,313),(34,316)=*(34,313),(34,317)=&(34,318)=k(34,313),(0,6);:_ZN11stlpmtx_std13__type_traitsIVKtEaSERKS2_;2A.;__base_ctor::(34,319)=#(34,313),(0,6),(34,316),(34,317),(0,6);:_ZN11stlpmtx_std13__type_traitsIVKtEC2ERKS2_;2A.;__comp_ctor::(34,319):_ZN11stlpmtx_std13__type_traitsIVKtEC1ERKS2_;2A.;__base_ctor::(34,320)=#(34,313),(0,6),(34,316),(0,6);:_ZN11stlpmtx_std13__type_traitsIVKtEC2Ev;2A.;__comp_ctor::(34,320):_ZN11stlpmtx_std13__type_traitsIVKtEC1Ev;2A.;;",128,0,296,0
	.stabs	"__type_traits<int>:Tt(34,321)=s1!1,020,(34,121);operator=::(34,322)=#(34,321),(34,323)=&(34,321),(34,324)=*(34,321),(34,325)=&(34,326)=k(34,321),(0,6);:_ZN11stlpmtx_std13__type_traitsIiEaSERKS1_;2A.;__base_ctor::(34,327)=#(34,321),(0,6),(34,324),(34,325),(0,6);:_ZN11stlpmtx_std13__type_traitsIiEC2ERKS1_;2A.;__comp_ctor::(34,327):_ZN11stlpmtx_std13__type_traitsIiEC1ERKS1_;2A.;__base_ctor::(34,328)=#(34,321),(0,6),(34,324),(0,6);:_ZN11stlpmtx_std13__type_traitsIiEC2Ev;2A.;__comp_ctor::(34,328):_ZN11stlpmtx_std13__type_traitsIiEC1Ev;2A.;;",128,0,297,0
	.stabs	"__type_traits<const int>:Tt(34,329)=s1!1,020,(34,121);operator=::(34,330)=#(34,329),(34,331)=&(34,329),(34,332)=*(34,329),(34,333)=&(34,334)=k(34,329),(0,6);:_ZN11stlpmtx_std13__type_traitsIKiEaSERKS2_;2A.;__base_ctor::(34,335)=#(34,329),(0,6),(34,332),(34,333),(0,6);:_ZN11stlpmtx_std13__type_traitsIKiEC2ERKS2_;2A.;__comp_ctor::(34,335):_ZN11stlpmtx_std13__type_traitsIKiEC1ERKS2_;2A.;__base_ctor::(34,336)=#(34,329),(0,6),(34,332),(0,6);:_ZN11stlpmtx_std13__type_traitsIKiEC2Ev;2A.;__comp_ctor::(34,336):_ZN11stlpmtx_std13__type_traitsIKiEC1Ev;2A.;;",128,0,297,0
	.stabs	"__type_traits<volatile int>:Tt(34,337)=s1!1,020,(34,121);operator=::(34,338)=#(34,337),(34,339)=&(34,337),(34,340)=*(34,337),(34,341)=&(34,342)=k(34,337),(0,6);:_ZN11stlpmtx_std13__type_traitsIViEaSERKS2_;2A.;__base_ctor::(34,343)=#(34,337),(0,6),(34,340),(34,341),(0,6);:_ZN11stlpmtx_std13__type_traitsIViEC2ERKS2_;2A.;__comp_ctor::(34,343):_ZN11stlpmtx_std13__type_traitsIViEC1ERKS2_;2A.;__base_ctor::(34,344)=#(34,337),(0,6),(34,340),(0,6);:_ZN11stlpmtx_std13__type_traitsIViEC2Ev;2A.;__comp_ctor::(34,344):_ZN11stlpmtx_std13__type_traitsIViEC1Ev;2A.;;",128,0,297,0
	.stabs	"__type_traits<const volatile int>:Tt(34,345)=s1!1,020,(34,121);operator=::(34,346)=#(34,345),(34,347)=&(34,345),(34,348)=*(34,345),(34,349)=&(34,350)=k(34,345),(0,6);:_ZN11stlpmtx_std13__type_traitsIVKiEaSERKS2_;2A.;__base_ctor::(34,351)=#(34,345),(0,6),(34,348),(34,349),(0,6);:_ZN11stlpmtx_std13__type_traitsIVKiEC2ERKS2_;2A.;__comp_ctor::(34,351):_ZN11stlpmtx_std13__type_traitsIVKiEC1ERKS2_;2A.;__base_ctor::(34,352)=#(34,345),(0,6),(34,348),(0,6);:_ZN11stlpmtx_std13__type_traitsIVKiEC2Ev;2A.;__comp_ctor::(34,352):_ZN11stlpmtx_std13__type_traitsIVKiEC1Ev;2A.;;",128,0,297,0
	.stabs	"__type_traits<unsigned int>:Tt(34,353)=s1!1,020,(34,121);operator=::(34,354)=#(34,353),(34,355)=&(34,353),(34,356)=*(34,353),(34,357)=&(34,358)=k(34,353),(0,6);:_ZN11stlpmtx_std13__type_traitsIjEaSERKS1_;2A.;__base_ctor::(34,359)=#(34,353),(0,6),(34,356),(34,357),(0,6);:_ZN11stlpmtx_std13__type_traitsIjEC2ERKS1_;2A.;__comp_ctor::(34,359):_ZN11stlpmtx_std13__type_traitsIjEC1ERKS1_;2A.;__base_ctor::(34,360)=#(34,353),(0,6),(34,356),(0,6);:_ZN11stlpmtx_std13__type_traitsIjEC2Ev;2A.;__comp_ctor::(34,360):_ZN11stlpmtx_std13__type_traitsIjEC1Ev;2A.;;",128,0,298,0
	.stabs	"__type_traits<const unsigned int>:Tt(34,361)=s1!1,020,(34,121);operator=::(34,362)=#(34,361),(34,363)=&(34,361),(34,364)=*(34,361),(34,365)=&(34,366)=k(34,361),(0,6);:_ZN11stlpmtx_std13__type_traitsIKjEaSERKS2_;2A.;__base_ctor::(34,367)=#(34,361),(0,6),(34,364),(34,365),(0,6);:_ZN11stlpmtx_std13__type_traitsIKjEC2ERKS2_;2A.;__comp_ctor::(34,367):_ZN11stlpmtx_std13__type_traitsIKjEC1ERKS2_;2A.;__base_ctor::(34,368)=#(34,361),(0,6),(34,364),(0,6);:_ZN11stlpmtx_std13__type_traitsIKjEC2Ev;2A.;__comp_ctor::(34,368):_ZN11stlpmtx_std13__type_traitsIKjEC1Ev;2A.;;",128,0,298,0
	.stabs	"__type_traits<volatile unsigned int>:Tt(34,369)=s1!1,020,(34,121);operator=::(34,370)=#(34,369),(34,371)=&(34,369),(34,372)=*(34,369),(34,373)=&(34,374)=k(34,369),(0,6);:_ZN11stlpmtx_std13__type_traitsIVjEaSERKS2_;2A.;__base_ctor::(34,375)=#(34,369),(0,6),(34,372),(34,373),(0,6);:_ZN11stlpmtx_std13__type_traitsIVjEC2ERKS2_;2A.;__comp_ctor::(34,375):_ZN11stlpmtx_std13__type_traitsIVjEC1ERKS2_;2A.;__base_ctor::(34,376)=#(34,369),(0,6),(34,372),(0,6);:_ZN11stlpmtx_std13__type_traitsIVjEC2Ev;2A.;__comp_ctor::(34,376):_ZN11stlpmtx_std13__type_traitsIVjEC1Ev;2A.;;",128,0,298,0
	.stabs	"__type_traits<const volatile unsigned int>:Tt(34,377)=s1!1,020,(34,121);operator=::(34,378)=#(34,377),(34,379)=&(34,377),(34,380)=*(34,377),(34,381)=&(34,382)=k(34,377),(0,6);:_ZN11stlpmtx_std13__type_traitsIVKjEaSERKS2_;2A.;__base_ctor::(34,383)=#(34,377),(0,6),(34,380),(34,381),(0,6);:_ZN11stlpmtx_std13__type_traitsIVKjEC2ERKS2_;2A.;__comp_ctor::(34,383):_ZN11stlpmtx_std13__type_traitsIVKjEC1ERKS2_;2A.;__base_ctor::(34,384)=#(34,377),(0,6),(34,380),(0,6);:_ZN11stlpmtx_std13__type_traitsIVKjEC2Ev;2A.;__comp_ctor::(34,384):_ZN11stlpmtx_std13__type_traitsIVKjEC1Ev;2A.;;",128,0,298,0
	.stabs	"__type_traits<long int>:Tt(34,385)=s1!1,020,(34,121);operator=::(34,386)=#(34,385),(34,387)=&(34,385),(34,388)=*(34,385),(34,389)=&(34,390)=k(34,385),(0,6);:_ZN11stlpmtx_std13__type_traitsIlEaSERKS1_;2A.;__base_ctor::(34,391)=#(34,385),(0,6),(34,388),(34,389),(0,6);:_ZN11stlpmtx_std13__type_traitsIlEC2ERKS1_;2A.;__comp_ctor::(34,391):_ZN11stlpmtx_std13__type_traitsIlEC1ERKS1_;2A.;__base_ctor::(34,392)=#(34,385),(0,6),(34,388),(0,6);:_ZN11stlpmtx_std13__type_traitsIlEC2Ev;2A.;__comp_ctor::(34,392):_ZN11stlpmtx_std13__type_traitsIlEC1Ev;2A.;;",128,0,299,0
	.stabs	"__type_traits<const long int>:Tt(34,393)=s1!1,020,(34,121);operator=::(34,394)=#(34,393),(34,395)=&(34,393),(34,396)=*(34,393),(34,397)=&(34,398)=k(34,393),(0,6);:_ZN11stlpmtx_std13__type_traitsIKlEaSERKS2_;2A.;__base_ctor::(34,399)=#(34,393),(0,6),(34,396),(34,397),(0,6);:_ZN11stlpmtx_std13__type_traitsIKlEC2ERKS2_;2A.;__comp_ctor::(34,399):_ZN11stlpmtx_std13__type_traitsIKlEC1ERKS2_;2A.;__base_ctor::(34,400)=#(34,393),(0,6),(34,396),(0,6);:_ZN11stlpmtx_std13__type_traitsIKlEC2Ev;2A.;__comp_ctor::(34,400):_ZN11stlpmtx_std13__type_traitsIKlEC1Ev;2A.;;",128,0,299,0
	.stabs	"__type_traits<volatile long int>:Tt(34,401)=s1!1,020,(34,121);operator=::(34,402)=#(34,401),(34,403)=&(34,401),(34,404)=*(34,401),(34,405)=&(34,406)=k(34,401),(0,6);:_ZN11stlpmtx_std13__type_traitsIVlEaSERKS2_;2A.;__base_ctor::(34,407)=#(34,401),(0,6),(34,404),(34,405),(0,6);:_ZN11stlpmtx_std13__type_traitsIVlEC2ERKS2_;2A.;__comp_ctor::(34,407):_ZN11stlpmtx_std13__type_traitsIVlEC1ERKS2_;2A.;__base_ctor::(34,408)=#(34,401),(0,6),(34,404),(0,6);:_ZN11stlpmtx_std13__type_traitsIVlEC2Ev;2A.;__comp_ctor::(34,408):_ZN11stlpmtx_std13__type_traitsIVlEC1Ev;2A.;;",128,0,299,0
	.stabs	"__type_traits<const volatile long int>:Tt(34,409)=s1!1,020,(34,121);operator=::(34,410)=#(34,409),(34,411)=&(34,409),(34,412)=*(34,409),(34,413)=&(34,414)=k(34,409),(0,6);:_ZN11stlpmtx_std13__type_traitsIVKlEaSERKS2_;2A.;__base_ctor::(34,415)=#(34,409),(0,6),(34,412),(34,413),(0,6);:_ZN11stlpmtx_std13__type_traitsIVKlEC2ERKS2_;2A.;__comp_ctor::(34,415):_ZN11stlpmtx_std13__type_traitsIVKlEC1ERKS2_;2A.;__base_ctor::(34,416)=#(34,409),(0,6),(34,412),(0,6);:_ZN11stlpmtx_std13__type_traitsIVKlEC2Ev;2A.;__comp_ctor::(34,416):_ZN11stlpmtx_std13__type_traitsIVKlEC1Ev;2A.;;",128,0,299,0
	.stabs	"__type_traits<long unsigned int>:Tt(34,417)=s1!1,020,(34,121);operator=::(34,418)=#(34,417),(34,419)=&(34,417),(34,420)=*(34,417),(34,421)=&(34,422)=k(34,417),(0,6);:_ZN11stlpmtx_std13__type_traitsImEaSERKS1_;2A.;__base_ctor::(34,423)=#(34,417),(0,6),(34,420),(34,421),(0,6);:_ZN11stlpmtx_std13__type_traitsImEC2ERKS1_;2A.;__comp_ctor::(34,423):_ZN11stlpmtx_std13__type_traitsImEC1ERKS1_;2A.;__base_ctor::(34,424)=#(34,417),(0,6),(34,420),(0,6);:_ZN11stlpmtx_std13__type_traitsImEC2Ev;2A.;__comp_ctor::(34,424):_ZN11stlpmtx_std13__type_traitsImEC1Ev;2A.;;",128,0,300,0
	.stabs	"__type_traits<const long unsigned int>:Tt(34,425)=s1!1,020,(34,121);operator=::(34,426)=#(34,425),(34,427)=&(34,425),(34,428)=*(34,425),(34,429)=&(34,430)=k(34,425),(0,6);:_ZN11stlpmtx_std13__type_traitsIKmEaSERKS2_;2A.;__base_ctor::(34,431)=#(34,425),(0,6),(34,428),(34,429),(0,6);:_ZN11stlpmtx_std13__type_traitsIKmEC2ERKS2_;2A.;__comp_ctor::(34,431):_ZN11stlpmtx_std13__type_traitsIKmEC1ERKS2_;2A.;__base_ctor::(34,432)=#(34,425),(0,6),(34,428),(0,6);:_ZN11stlpmtx_std13__type_traitsIKmEC2Ev;2A.;__comp_ctor::(34,432):_ZN11stlpmtx_std13__type_traitsIKmEC1Ev;2A.;;",128,0,300,0
	.stabs	"__type_traits<volatile long unsigned int>:Tt(34,433)=s1!1,020,(34,121);operator=::(34,434)=#(34,433),(34,435)=&(34,433),(34,436)=*(34,433),(34,437)=&(34,438)=k(34,433),(0,6);:_ZN11stlpmtx_std13__type_traitsIVmEaSERKS2_;2A.;__base_ctor::(34,439)=#(34,433),(0,6),(34,436),(34,437),(0,6);:_ZN11stlpmtx_std13__type_traitsIVmEC2ERKS2_;2A.;__comp_ctor::(34,439):_ZN11stlpmtx_std13__type_traitsIVmEC1ERKS2_;2A.;__base_ctor::(34,440)=#(34,433),(0,6),(34,436),(0,6);:_ZN11stlpmtx_std13__type_traitsIVmEC2Ev;2A.;__comp_ctor::(34,440):_ZN11stlpmtx_std13__type_traitsIVmEC1Ev;2A.;;",128,0,300,0
	.stabs	"__type_traits<const volatile long unsigned int>:Tt(34,441)=s1!1,020,(34,121);operator=::(34,442)=#(34,441),(34,443)=&(34,441),(34,444)=*(34,441),(34,445)=&(34,446)=k(34,441),(0,6);:_ZN11stlpmtx_std13__type_traitsIVKmEaSERKS2_;2A.;__base_ctor::(34,447)=#(34,441),(0,6),(34,444),(34,445),(0,6);:_ZN11stlpmtx_std13__type_traitsIVKmEC2ERKS2_;2A.;__comp_ctor::(34,447):_ZN11stlpmtx_std13__type_traitsIVKmEC1ERKS2_;2A.;__base_ctor::(34,448)=#(34,441),(0,6),(34,444),(0,6);:_ZN11stlpmtx_std13__type_traitsIVKmEC2Ev;2A.;__comp_ctor::(34,448):_ZN11stlpmtx_std13__type_traitsIVKmEC1Ev;2A.;;",128,0,300,0
	.stabs	"__type_traits<long long int>:Tt(34,449)=s1!1,020,(34,121);operator=::(34,450)=#(34,449),(34,451)=&(34,449),(34,452)=*(34,449),(34,453)=&(34,454)=k(34,449),(0,6);:_ZN11stlpmtx_std13__type_traitsIxEaSERKS1_;2A.;__base_ctor::(34,455)=#(34,449),(0,6),(34,452),(34,453),(0,6);:_ZN11stlpmtx_std13__type_traitsIxEC2ERKS1_;2A.;__comp_ctor::(34,455):_ZN11stlpmtx_std13__type_traitsIxEC1ERKS1_;2A.;__base_ctor::(34,456)=#(34,449),(0,6),(34,452),(0,6);:_ZN11stlpmtx_std13__type_traitsIxEC2Ev;2A.;__comp_ctor::(34,456):_ZN11stlpmtx_std13__type_traitsIxEC1Ev;2A.;;",128,0,303,0
	.stabs	"__type_traits<const long long int>:Tt(34,457)=s1!1,020,(34,121);operator=::(34,458)=#(34,457),(34,459)=&(34,457),(34,460)=*(34,457),(34,461)=&(34,462)=k(34,457),(0,6);:_ZN11stlpmtx_std13__type_traitsIKxEaSERKS2_;2A.;__base_ctor::(34,463)=#(34,457),(0,6),(34,460),(34,461),(0,6);:_ZN11stlpmtx_std13__type_traitsIKxEC2ERKS2_;2A.;__comp_ctor::(34,463):_ZN11stlpmtx_std13__type_traitsIKxEC1ERKS2_;2A.;__base_ctor::(34,464)=#(34,457),(0,6),(34,460),(0,6);:_ZN11stlpmtx_std13__type_traitsIKxEC2Ev;2A.;__comp_ctor::(34,464):_ZN11stlpmtx_std13__type_traitsIKxEC1Ev;2A.;;",128,0,303,0
	.stabs	"__type_traits<volatile long long int>:Tt(34,465)=s1!1,020,(34,121);operator=::(34,466)=#(34,465),(34,467)=&(34,465),(34,468)=*(34,465),(34,469)=&(34,470)=k(34,465),(0,6);:_ZN11stlpmtx_std13__type_traitsIVxEaSERKS2_;2A.;__base_ctor::(34,471)=#(34,465),(0,6),(34,468),(34,469),(0,6);:_ZN11stlpmtx_std13__type_traitsIVxEC2ERKS2_;2A.;__comp_ctor::(34,471):_ZN11stlpmtx_std13__type_traitsIVxEC1ERKS2_;2A.;__base_ctor::(34,472)=#(34,465),(0,6),(34,468),(0,6);:_ZN11stlpmtx_std13__type_traitsIVxEC2Ev;2A.;__comp_ctor::(34,472):_ZN11stlpmtx_std13__type_traitsIVxEC1Ev;2A.;;",128,0,303,0
	.stabs	"__type_traits<const volatile long long int>:Tt(34,473)=s1!1,020,(34,121);operator=::(34,474)=#(34,473),(34,475)=&(34,473),(34,476)=*(34,473),(34,477)=&(34,478)=k(34,473),(0,6);:_ZN11stlpmtx_std13__type_traitsIVKxEaSERKS2_;2A.;__base_ctor::(34,479)=#(34,473),(0,6),(34,476),(34,477),(0,6);:_ZN11stlpmtx_std13__type_traitsIVKxEC2ERKS2_;2A.;__comp_ctor::(34,479):_ZN11stlpmtx_std13__type_traitsIVKxEC1ERKS2_;2A.;__base_ctor::(34,480)=#(34,473),(0,6),(34,476),(0,6);:_ZN11stlpmtx_std13__type_traitsIVKxEC2Ev;2A.;__comp_ctor::(34,480):_ZN11stlpmtx_std13__type_traitsIVKxEC1Ev;2A.;;",128,0,303,0
	.stabs	"__type_traits<long long unsigned int>:Tt(34,481)=s1!1,020,(34,121);operator=::(34,482)=#(34,481),(34,483)=&(34,481),(34,484)=*(34,481),(34,485)=&(34,486)=k(34,481),(0,6);:_ZN11stlpmtx_std13__type_traitsIyEaSERKS1_;2A.;__base_ctor::(34,487)=#(34,481),(0,6),(34,484),(34,485),(0,6);:_ZN11stlpmtx_std13__type_traitsIyEC2ERKS1_;2A.;__comp_ctor::(34,487):_ZN11stlpmtx_std13__type_traitsIyEC1ERKS1_;2A.;__base_ctor::(34,488)=#(34,481),(0,6),(34,484),(0,6);:_ZN11stlpmtx_std13__type_traitsIyEC2Ev;2A.;__comp_ctor::(34,488):_ZN11stlpmtx_std13__type_traitsIyEC1Ev;2A.;;",128,0,304,0
	.stabs	"__type_traits<const long long unsigned int>:Tt(34,489)=s1!1,020,(34,121);operator=::(34,490)=#(34,489),(34,491)=&(34,489),(34,492)=*(34,489),(34,493)=&(34,494)=k(34,489),(0,6);:_ZN11stlpmtx_std13__type_traitsIKyEaSERKS2_;2A.;__base_ctor::(34,495)=#(34,489),(0,6),(34,492),(34,493),(0,6);:_ZN11stlpmtx_std13__type_traitsIKyEC2ERKS2_;2A.;__comp_ctor::(34,495):_ZN11stlpmtx_std13__type_traitsIKyEC1ERKS2_;2A.;__base_ctor::(34,496)=#(34,489),(0,6),(34,492),(0,6);:_ZN11stlpmtx_std13__type_traitsIKyEC2Ev;2A.;__comp_ctor::(34,496):_ZN11stlpmtx_std13__type_traitsIKyEC1Ev;2A.;;",128,0,304,0
	.stabs	"__type_traits<volatile long long unsigned int>:Tt(34,497)=s1!1,020,(34,121);operator=::(34,498)=#(34,497),(34,499)=&(34,497),(34,500)=*(34,497),(34,501)=&(34,502)=k(34,497),(0,6);:_ZN11stlpmtx_std13__type_traitsIVyEaSERKS2_;2A.;__base_ctor::(34,503)=#(34,497),(0,6),(34,500),(34,501),(0,6);:_ZN11stlpmtx_std13__type_traitsIVyEC2ERKS2_;2A.;__comp_ctor::(34,503):_ZN11stlpmtx_std13__type_traitsIVyEC1ERKS2_;2A.;__base_ctor::(34,504)=#(34,497),(0,6),(34,500),(0,6);:_ZN11stlpmtx_std13__type_traitsIVyEC2Ev;2A.;__comp_ctor::(34,504):_ZN11stlpmtx_std13__type_traitsIVyEC1Ev;2A.;;",128,0,304,0
	.stabs	"__type_traits<const volatile long long unsigned int>:Tt(34,505)=s1!1,020,(34,121);operator=::(34,506)=#(34,505),(34,507)=&(34,505),(34,508)=*(34,505),(34,509)=&(34,510)=k(34,505),(0,6);:_ZN11stlpmtx_std13__type_traitsIVKyEaSERKS2_;2A.;__base_ctor::(34,511)=#(34,505),(0,6),(34,508),(34,509),(0,6);:_ZN11stlpmtx_std13__type_traitsIVKyEC2ERKS2_;2A.;__comp_ctor::(34,511):_ZN11stlpmtx_std13__type_traitsIVKyEC1ERKS2_;2A.;__base_ctor::(34,512)=#(34,505),(0,6),(34,508),(0,6);:_ZN11stlpmtx_std13__type_traitsIVKyEC2Ev;2A.;__comp_ctor::(34,512):_ZN11stlpmtx_std13__type_traitsIVKyEC1Ev;2A.;;",128,0,304,0
	.stabs	"__type_traits<float>:Tt(34,513)=s1!1,020,(34,121);operator=::(34,514)=#(34,513),(34,515)=&(34,513),(34,516)=*(34,513),(34,517)=&(34,518)=k(34,513),(0,6);:_ZN11stlpmtx_std13__type_traitsIfEaSERKS1_;2A.;__base_ctor::(34,519)=#(34,513),(0,6),(34,516),(34,517),(0,6);:_ZN11stlpmtx_std13__type_traitsIfEC2ERKS1_;2A.;__comp_ctor::(34,519):_ZN11stlpmtx_std13__type_traitsIfEC1ERKS1_;2A.;__base_ctor::(34,520)=#(34,513),(0,6),(34,516),(0,6);:_ZN11stlpmtx_std13__type_traitsIfEC2Ev;2A.;__comp_ctor::(34,520):_ZN11stlpmtx_std13__type_traitsIfEC1Ev;2A.;;",128,0,307,0
	.stabs	"__type_traits<const float>:Tt(34,521)=s1!1,020,(34,121);operator=::(34,522)=#(34,521),(34,523)=&(34,521),(34,524)=*(34,521),(34,525)=&(34,526)=k(34,521),(0,6);:_ZN11stlpmtx_std13__type_traitsIKfEaSERKS2_;2A.;__base_ctor::(34,527)=#(34,521),(0,6),(34,524),(34,525),(0,6);:_ZN11stlpmtx_std13__type_traitsIKfEC2ERKS2_;2A.;__comp_ctor::(34,527):_ZN11stlpmtx_std13__type_traitsIKfEC1ERKS2_;2A.;__base_ctor::(34,528)=#(34,521),(0,6),(34,524),(0,6);:_ZN11stlpmtx_std13__type_traitsIKfEC2Ev;2A.;__comp_ctor::(34,528):_ZN11stlpmtx_std13__type_traitsIKfEC1Ev;2A.;;",128,0,307,0
	.stabs	"__type_traits<volatile float>:Tt(34,529)=s1!1,020,(34,121);operator=::(34,530)=#(34,529),(34,531)=&(34,529),(34,532)=*(34,529),(34,533)=&(34,534)=k(34,529),(0,6);:_ZN11stlpmtx_std13__type_traitsIVfEaSERKS2_;2A.;__base_ctor::(34,535)=#(34,529),(0,6),(34,532),(34,533),(0,6);:_ZN11stlpmtx_std13__type_traitsIVfEC2ERKS2_;2A.;__comp_ctor::(34,535):_ZN11stlpmtx_std13__type_traitsIVfEC1ERKS2_;2A.;__base_ctor::(34,536)=#(34,529),(0,6),(34,532),(0,6);:_ZN11stlpmtx_std13__type_traitsIVfEC2Ev;2A.;__comp_ctor::(34,536):_ZN11stlpmtx_std13__type_traitsIVfEC1Ev;2A.;;",128,0,307,0
	.stabs	"__type_traits<const volatile float>:Tt(34,537)=s1!1,020,(34,121);operator=::(34,538)=#(34,537),(34,539)=&(34,537),(34,540)=*(34,537),(34,541)=&(34,542)=k(34,537),(0,6);:_ZN11stlpmtx_std13__type_traitsIVKfEaSERKS2_;2A.;__base_ctor::(34,543)=#(34,537),(0,6),(34,540),(34,541),(0,6);:_ZN11stlpmtx_std13__type_traitsIVKfEC2ERKS2_;2A.;__comp_ctor::(34,543):_ZN11stlpmtx_std13__type_traitsIVKfEC1ERKS2_;2A.;__base_ctor::(34,544)=#(34,537),(0,6),(34,540),(0,6);:_ZN11stlpmtx_std13__type_traitsIVKfEC2Ev;2A.;__comp_ctor::(34,544):_ZN11stlpmtx_std13__type_traitsIVKfEC1Ev;2A.;;",128,0,307,0
	.stabs	"__type_traits<double>:Tt(34,545)=s1!1,020,(34,121);operator=::(34,546)=#(34,545),(34,547)=&(34,545),(34,548)=*(34,545),(34,549)=&(34,550)=k(34,545),(0,6);:_ZN11stlpmtx_std13__type_traitsIdEaSERKS1_;2A.;__base_ctor::(34,551)=#(34,545),(0,6),(34,548),(34,549),(0,6);:_ZN11stlpmtx_std13__type_traitsIdEC2ERKS1_;2A.;__comp_ctor::(34,551):_ZN11stlpmtx_std13__type_traitsIdEC1ERKS1_;2A.;__base_ctor::(34,552)=#(34,545),(0,6),(34,548),(0,6);:_ZN11stlpmtx_std13__type_traitsIdEC2Ev;2A.;__comp_ctor::(34,552):_ZN11stlpmtx_std13__type_traitsIdEC1Ev;2A.;;",128,0,308,0
	.stabs	"__type_traits<const double>:Tt(34,553)=s1!1,020,(34,121);operator=::(34,554)=#(34,553),(34,555)=&(34,553),(34,556)=*(34,553),(34,557)=&(34,558)=k(34,553),(0,6);:_ZN11stlpmtx_std13__type_traitsIKdEaSERKS2_;2A.;__base_ctor::(34,559)=#(34,553),(0,6),(34,556),(34,557),(0,6);:_ZN11stlpmtx_std13__type_traitsIKdEC2ERKS2_;2A.;__comp_ctor::(34,559):_ZN11stlpmtx_std13__type_traitsIKdEC1ERKS2_;2A.;__base_ctor::(34,560)=#(34,553),(0,6),(34,556),(0,6);:_ZN11stlpmtx_std13__type_traitsIKdEC2Ev;2A.;__comp_ctor::(34,560):_ZN11stlpmtx_std13__type_traitsIKdEC1Ev;2A.;;",128,0,308,0
	.stabs	"__type_traits<volatile double>:Tt(34,561)=s1!1,020,(34,121);operator=::(34,562)=#(34,561),(34,563)=&(34,561),(34,564)=*(34,561),(34,565)=&(34,566)=k(34,561),(0,6);:_ZN11stlpmtx_std13__type_traitsIVdEaSERKS2_;2A.;__base_ctor::(34,567)=#(34,561),(0,6),(34,564),(34,565),(0,6);:_ZN11stlpmtx_std13__type_traitsIVdEC2ERKS2_;2A.;__comp_ctor::(34,567):_ZN11stlpmtx_std13__type_traitsIVdEC1ERKS2_;2A.;__base_ctor::(34,568)=#(34,561),(0,6),(34,564),(0,6);:_ZN11stlpmtx_std13__type_traitsIVdEC2Ev;2A.;__comp_ctor::(34,568):_ZN11stlpmtx_std13__type_traitsIVdEC1Ev;2A.;;",128,0,308,0
	.stabs	"__type_traits<const volatile double>:Tt(34,569)=s1!1,020,(34,121);operator=::(34,570)=#(34,569),(34,571)=&(34,569),(34,572)=*(34,569),(34,573)=&(34,574)=k(34,569),(0,6);:_ZN11stlpmtx_std13__type_traitsIVKdEaSERKS2_;2A.;__base_ctor::(34,575)=#(34,569),(0,6),(34,572),(34,573),(0,6);:_ZN11stlpmtx_std13__type_traitsIVKdEC2ERKS2_;2A.;__comp_ctor::(34,575):_ZN11stlpmtx_std13__type_traitsIVKdEC1ERKS2_;2A.;__base_ctor::(34,576)=#(34,569),(0,6),(34,572),(0,6);:_ZN11stlpmtx_std13__type_traitsIVKdEC2Ev;2A.;__comp_ctor::(34,576):_ZN11stlpmtx_std13__type_traitsIVKdEC1Ev;2A.;;",128,0,308,0
	.stabs	"_NegativeAnswer:Tt(34,577)=s1_Answer::(34,578)=f(35,9):_ZN11stlpmtx_std15_NegativeAnswer7_AnswerEv;2A?;operator=::(34,579)=#(34,577),(34,580)=&(34,577),(34,581)=*(34,577),(34,582)=&(34,583)=k(34,577),(0,6);:_ZN11stlpmtx_std15_NegativeAnsweraSERKS0_;2A.;__base_ctor::(34,584)=#(34,577),(0,6),(34,581),(34,582),(0,6);:_ZN11stlpmtx_std15_NegativeAnswerC2ERKS0_;2A.;__comp_ctor::(34,584):_ZN11stlpmtx_std15_NegativeAnswerC1ERKS0_;2A.;__base_ctor::(34,585)=#(34,577),(0,6),(34,581),(0,6);:_ZN11stlpmtx_std15_NegativeAnswerC2Ev;2A.;__comp_ctor::(34,585):_ZN11stlpmtx_std15_NegativeAnswerC1Ev;2A.;;",128,0,510,0
	.stabn	162,0,0,0
	.stabn	162,0,0,0
	.stabs	"/Applications/MoSync/include/newlib/stlport/stl/_iterator_base.h",130,0,0,0
	.stabs	"input_iterator_tag:Tt(36,1)=s1operator=::(36,2)=#(36,1),(36,3)=&(36,1),(36,4)=*(36,1),(36,5)=&(36,6)=k(36,1),(0,6);:_ZN11stlpmtx_std18input_iterator_tagaSERKS0_;2A.;__base_ctor::(36,7)=#(36,1),(0,6),(36,4),(36,5),(0,6);:_ZN11stlpmtx_std18input_iterator_tagC2ERKS0_;2A.;__comp_ctor::(36,7):_ZN11stlpmtx_std18input_iterator_tagC1ERKS0_;2A.;__base_ctor::(36,8)=#(36,1),(0,6),(36,4),(0,6);:_ZN11stlpmtx_std18input_iterator_tagC2Ev;2A.;__comp_ctor::(36,8):_ZN11stlpmtx_std18input_iterator_tagC1Ev;2A.;;",128,0,51,0
	.stabs	"output_iterator_tag:Tt(36,9)=s1operator=::(36,10)=#(36,9),(36,11)=&(36,9),(36,12)=*(36,9),(36,13)=&(36,14)=k(36,9),(0,6);:_ZN11stlpmtx_std19output_iterator_tagaSERKS0_;2A.;__base_ctor::(36,15)=#(36,9),(0,6),(36,12),(36,13),(0,6);:_ZN11stlpmtx_std19output_iterator_tagC2ERKS0_;2A.;__comp_ctor::(36,15):_ZN11stlpmtx_std19output_iterator_tagC1ERKS0_;2A.;__base_ctor::(36,16)=#(36,9),(0,6),(36,12),(0,6);:_ZN11stlpmtx_std19output_iterator_tagC2Ev;2A.;__comp_ctor::(36,16):_ZN11stlpmtx_std19output_iterator_tagC1Ev;2A.;;",128,0,52,0
	.stabs	"forward_iterator_tag:Tt(36,17)=s1!1,020,(36,1);operator=::(36,18)=#(36,17),(36,19)=&(36,17),(36,20)=*(36,17),(36,21)=&(36,22)=k(36,17),(0,6);:_ZN11stlpmtx_std20forward_iterator_tagaSERKS0_;2A.;__base_ctor::(36,23)=#(36,17),(0,6),(36,20),(36,21),(0,6);:_ZN11stlpmtx_std20forward_iterator_tagC2ERKS0_;2A.;__comp_ctor::(36,23):_ZN11stlpmtx_std20forward_iterator_tagC1ERKS0_;2A.;__base_ctor::(36,24)=#(36,17),(0,6),(36,20),(0,6);:_ZN11stlpmtx_std20forward_iterator_tagC2Ev;2A.;__comp_ctor::(36,24):_ZN11stlpmtx_std20forward_iterator_tagC1Ev;2A.;;",128,0,53,0
	.stabs	"bidirectional_iterator_tag:Tt(36,25)=s1!1,020,(36,17);operator=::(36,26)=#(36,25),(36,27)=&(36,25),(36,28)=*(36,25),(36,29)=&(36,30)=k(36,25),(0,6);:_ZN11stlpmtx_std26bidirectional_iterator_tagaSERKS0_;2A.;__base_ctor::(36,31)=#(36,25),(0,6),(36,28),(36,29),(0,6);:_ZN11stlpmtx_std26bidirectional_iterator_tagC2ERKS0_;2A.;__comp_ctor::(36,31):_ZN11stlpmtx_std26bidirectional_iterator_tagC1ERKS0_;2A.;__base_ctor::(36,32)=#(36,25),(0,6),(36,28),(0,6);:_ZN11stlpmtx_std26bidirectional_iterator_tagC2Ev;2A.;__comp_ctor::(36,32):_ZN11stlpmtx_std26bidirectional_iterator_tagC1Ev;2A.;;",128,0,54,0
	.stabs	"random_access_iterator_tag:Tt(36,33)=s1!1,020,(36,25);operator=::(36,34)=#(36,33),(36,35)=&(36,33),(36,36)=*(36,33),(36,37)=&(36,38)=k(36,33),(0,6);:_ZN11stlpmtx_std26random_access_iterator_tagaSERKS0_;2A.;__base_ctor::(36,39)=#(36,33),(0,6),(36,36),(36,37),(0,6);:_ZN11stlpmtx_std26random_access_iterator_tagC2ERKS0_;2A.;__comp_ctor::(36,39):_ZN11stlpmtx_std26random_access_iterator_tagC1ERKS0_;2A.;__base_ctor::(36,40)=#(36,33),(0,6),(36,36),(0,6);:_ZN11stlpmtx_std26random_access_iterator_tagC2Ev;2A.;__comp_ctor::(36,40):_ZN11stlpmtx_std26random_access_iterator_tagC1Ev;2A.;;",128,0,55,0
	.stabs	"iterator<stlpmtx_std::output_iterator_tag,void,void,void,void>:Tt(36,41)=s1operator=::(36,42)=#(36,41),(36,43)=&(36,41),(36,44)=*(36,41),(36,45)=&(36,46)=k(36,41),(0,6);:_ZN11stlpmtx_std8iteratorINS_19output_iterator_tagEvvvvEaSERKS2_;2A.;__base_ctor::(36,47)=#(36,41),(0,6),(36,44),(36,45),(0,6);:_ZN11stlpmtx_std8iteratorINS_19output_iterator_tagEvvvvEC2ERKS2_;2A.;__comp_ctor::(36,47):_ZN11stlpmtx_std8iteratorINS_19output_iterator_tagEvvvvEC1ERKS2_;2A.;__base_ctor::(36,48)=#(36,41),(0,6),(36,44),(0,6);:_ZN11stlpmtx_std8iteratorINS_19output_iterator_tagEvvvvEC2Ev;2A.;__comp_ctor::(36,48):_ZN11stlpmtx_std8iteratorINS_19output_iterator_tagEvvvvEC1Ev;2A.;;",128,0,67,0
	.stabs	"output_iterator:Tt(36,49)=s1!1,020,(36,41);operator=::(36,50)=#(36,49),(36,51)=&(36,49),(36,52)=*(36,49),(36,53)=&(36,54)=k(36,49),(0,6);:_ZN11stlpmtx_std15output_iteratoraSERKS0_;2A.;__base_ctor::(36,55)=#(36,49),(0,6),(36,52),(36,53),(0,6);:_ZN11stlpmtx_std15output_iteratorC2ERKS0_;2A.;__comp_ctor::(36,55):_ZN11stlpmtx_std15output_iteratorC1ERKS0_;2A.;__base_ctor::(36,56)=#(36,49),(0,6),(36,52),(0,6);:_ZN11stlpmtx_std15output_iteratorC2Ev;2A.;__comp_ctor::(36,56):_ZN11stlpmtx_std15output_iteratorC1Ev;2A.;;",128,0,269,0
	.stabn	162,0,0,0
	.stabs	"/Applications/MoSync/include/newlib/stlport/stl/_algobase.c",130,0,0,0
	.stabs	"_IsCharLikeType<char>:Tt(37,1)=s1operator=::(37,2)=#(37,1),(37,3)=&(37,1),(37,4)=*(37,1),(37,5)=&(37,6)=k(37,1),(0,6);:_ZN11stlpmtx_std4priv15_IsCharLikeTypeIcEaSERKS2_;2A.;__base_ctor::(37,7)=#(37,1),(0,6),(37,4),(37,5),(0,6);:_ZN11stlpmtx_std4priv15_IsCharLikeTypeIcEC2ERKS2_;2A.;__comp_ctor::(37,7):_ZN11stlpmtx_std4priv15_IsCharLikeTypeIcEC1ERKS2_;2A.;__base_ctor::(37,8)=#(37,1),(0,6),(37,4),(0,6);:_ZN11stlpmtx_std4priv15_IsCharLikeTypeIcEC2Ev;2A.;__comp_ctor::(37,8):_ZN11stlpmtx_std4priv15_IsCharLikeTypeIcEC1Ev;2A.;;",128,0,276,0
	.stabs	"_IsCharLikeType<unsigned char>:Tt(37,9)=s1operator=::(37,10)=#(37,9),(37,11)=&(37,9),(37,12)=*(37,9),(37,13)=&(37,14)=k(37,9),(0,6);:_ZN11stlpmtx_std4priv15_IsCharLikeTypeIhEaSERKS2_;2A.;__base_ctor::(37,15)=#(37,9),(0,6),(37,12),(37,13),(0,6);:_ZN11stlpmtx_std4priv15_IsCharLikeTypeIhEC2ERKS2_;2A.;__comp_ctor::(37,15):_ZN11stlpmtx_std4priv15_IsCharLikeTypeIhEC1ERKS2_;2A.;__base_ctor::(37,16)=#(37,9),(0,6),(37,12),(0,6);:_ZN11stlpmtx_std4priv15_IsCharLikeTypeIhEC2Ev;2A.;__comp_ctor::(37,16):_ZN11stlpmtx_std4priv15_IsCharLikeTypeIhEC1Ev;2A.;;",128,0,279,0
	.stabs	"_IsCharLikeType<signed char>:Tt(37,17)=s1operator=::(37,18)=#(37,17),(37,19)=&(37,17),(37,20)=*(37,17),(37,21)=&(37,22)=k(37,17),(0,6);:_ZN11stlpmtx_std4priv15_IsCharLikeTypeIaEaSERKS2_;2A.;__base_ctor::(37,23)=#(37,17),(0,6),(37,20),(37,21),(0,6);:_ZN11stlpmtx_std4priv15_IsCharLikeTypeIaEC2ERKS2_;2A.;__comp_ctor::(37,23):_ZN11stlpmtx_std4priv15_IsCharLikeTypeIaEC1ERKS2_;2A.;__base_ctor::(37,24)=#(37,17),(0,6),(37,20),(0,6);:_ZN11stlpmtx_std4priv15_IsCharLikeTypeIaEC2Ev;2A.;__comp_ctor::(37,24):_ZN11stlpmtx_std4priv15_IsCharLikeTypeIaEC1Ev;2A.;;",128,0,283,0
	.stabn	162,0,0,0
	.stabn	162,0,0,0
	.stabs	"/Applications/MoSync/include/newlib/stlport/stl/_algo.c",130,0,0,0
	.stabs	"/Applications/MoSync/include/newlib/stlport/stl/_tempbuf.h",130,0,0,0
	.stabs	"/Applications/MoSync/include/newlib/stlport/stl/_uninitialized.h",130,0,0,0
	.stabs	"/Applications/MoSync/include/newlib/stlport/stl/_construct.h",130,0,0,0
	.stabs	"/Applications/MoSync/include/newlib/stlport/stl/_new.h",130,0,0,0
	.stabs	"/Applications/MoSync/include/newlib/stlport/../new",130,0,0,0
	.stabs	"/Applications/MoSync/include/newlib/stlport/../macpp.h",130,0,0,0
	.stabs	"size_t:t(44,1)=(0,16)",128,0,17,0
	.stabn	162,0,0,0
	.stabs	"nothrow_t:Tt(43,1)=s1operator=::(43,2)=#(43,1),(43,3)=&(43,1),(43,4)=*(43,1),(43,5)=&(43,6)=k(43,1),(0,6);:_ZNSt9nothrow_taSERKS_;2A.;__base_ctor::(43,7)=#(43,1),(0,6),(43,4),(43,5),(0,6);:_ZNSt9nothrow_tC2ERKS_;2A.;__comp_ctor::(43,7):_ZNSt9nothrow_tC1ERKS_;2A.;__base_ctor::(43,8)=#(43,1),(0,6),(43,4),(0,6);:_ZNSt9nothrow_tC2Ev;2A.;__comp_ctor::(43,8):_ZNSt9nothrow_tC1Ev;2A.;;",128,0,50,0
	.stabn	162,0,0,0
	.stabn	162,0,0,0
	.stabn	162,0,0,0
	.stabn	162,0,0,0
	.stabn	162,0,0,0
	.stabn	162,0,0,0
	.stabn	162,0,0,0
	.stabn	162,0,0,0
	.stabs	"/Applications/MoSync/include/newlib/stlport/vector",130,0,0,0
	.stabs	"/Applications/MoSync/include/newlib/stlport/stl/_vector.h",130,0,0,0
	.stabs	"/Applications/MoSync/include/newlib/stlport/stl/_alloc.h",130,0,0,0
	.stabs	"__malloc_alloc:Tt(47,1)=s1allocate::(47,2)=f(13,28):_ZN11stlpmtx_std14__malloc_alloc8allocateEm;2A?;deallocate::(47,3)=f(0,6):_ZN11stlpmtx_std14__malloc_alloc10deallocateEPvm;2A?;operator=::(47,4)=#(47,1),(47,5)=&(47,1),(47,6)=*(47,1),(47,7)=&(47,8)=k(47,1),(0,6);:_ZN11stlpmtx_std14__malloc_allocaSERKS0_;2A.;__base_ctor::(47,9)=#(47,1),(0,6),(47,6),(47,7),(0,6);:_ZN11stlpmtx_std14__malloc_allocC2ERKS0_;2A.;__comp_ctor::(47,9):_ZN11stlpmtx_std14__malloc_allocC1ERKS0_;2A.;__base_ctor::(47,10)=#(47,1),(0,6),(47,6),(0,6);:_ZN11stlpmtx_std14__malloc_allocC2Ev;2A.;__comp_ctor::(47,10):_ZN11stlpmtx_std14__malloc_allocC1Ev;2A.;;",128,0,63,0
	.stabs	"__new_alloc:Tt(47,11)=s1allocate::(47,2):_ZN11stlpmtx_std11__new_alloc8allocateEm;2A?;deallocate::(47,3):_ZN11stlpmtx_std11__new_alloc10deallocateEPvm;2A?;operator=::(47,12)=#(47,11),(47,13)=&(47,11),(47,14)=*(47,11),(47,15)=&(47,16)=k(47,11),(0,6);:_ZN11stlpmtx_std11__new_allocaSERKS0_;2A.;__base_ctor::(47,17)=#(47,11),(0,6),(47,14),(47,15),(0,6);:_ZN11stlpmtx_std11__new_allocC2ERKS0_;2A.;__comp_ctor::(47,17):_ZN11stlpmtx_std11__new_allocC1ERKS0_;2A.;__base_ctor::(47,18)=#(47,11),(0,6),(47,14),(0,6);:_ZN11stlpmtx_std11__new_allocC2Ev;2A.;__comp_ctor::(47,18):_ZN11stlpmtx_std11__new_allocC1Ev;2A.;;",128,0,88,0
	.stabs	"__alloc_type:t(47,19)=(47,11)",128,0,220,0
	.stabs	"__sgi_alloc:t(47,20)=(47,19)",128,0,230,0
	.stabs	"__single_client_alloc:t(47,21)=(47,20)",128,0,234,0
	.stabs	"__multithreaded_alloc:t(47,22)=(47,20)",128,0,235,0
	.stabs	"allocator<void>:Tt(47,23)=s1operator=::(47,24)=#(47,23),(47,25)=&(47,23),(47,26)=*(47,23),(47,27)=&(47,28)=k(47,23),(0,6);:_ZN11stlpmtx_std9allocatorIvEaSERKS1_;2A.;__base_ctor::(47,29)=#(47,23),(0,6),(47,26),(47,27),(0,6);:_ZN11stlpmtx_std9allocatorIvEC2ERKS1_;2A.;__comp_ctor::(47,29):_ZN11stlpmtx_std9allocatorIvEC1ERKS1_;2A.;__base_ctor::(47,30)=#(47,23),(0,6),(47,26),(0,6);:_ZN11stlpmtx_std9allocatorIvEC2Ev;2A.;__comp_ctor::(47,30):_ZN11stlpmtx_std9allocatorIvEC1Ev;2A.;;",128,0,364,0
	.stabn	162,0,0,0
	.stabs	"/Applications/MoSync/include/newlib/stlport/stl/_bvector.h",130,0,0,0
	.stabs	"_Bit_reference:Tt(48,1)=s8_M_p:(48,2)=*(0,17),0,32;_M_mask:(0,17),32,32;__base_ctor::(48,3)=#(48,1),(0,6),(48,4)=*(48,1),(48,2),(0,17),(0,6);:_ZN11stlpmtx_std4priv14_Bit_referenceC2EPjj;2A.;__comp_ctor::(48,3):_ZN11stlpmtx_std4priv14_Bit_referenceC1EPjj;2A.;__base_ctor::(48,5)=#(48,1),(0,6),(48,4),(0,6);:_ZN11stlpmtx_std4priv14_Bit_referenceC2Ev;2A.;__comp_ctor::(48,5):_ZN11stlpmtx_std4priv14_Bit_referenceC1Ev;2A.;operator 1::(48,6)=#(48,1),(0,4),(48,7)=*(48,8)=k(48,1),(0,6);:_ZNK11stlpmtx_std4priv14_Bit_referencecvbEv;2B.;operator=::(48,9)=#(48,1),(48,10)=&(48,1),(48,4),(0,4),(0,6);:_ZN11stlpmtx_std4priv14_Bit_referenceaSEb;2A.(48,11)=#(48,1),(48,10),(48,4),(48,12)=&(48,8),(0,6);:_ZN11stlpmtx_std4priv14_Bit_referenceaSERKS1_;2A.;operator==::(48,13)=#(48,1),(0,4),(48,7),(48,12),(0,6);:_ZNK11stlpmtx_std4priv14_Bit_referenceeqERKS1_;2B.;operator<::(48,13):_ZNK11stlpmtx_std4priv14_Bit_referenceltERKS1_;2B.;operator|=::(48,9):_ZN11stlpmtx_std4priv14_Bit_referenceoREb;2A.;operator&=::(48,9):_ZN11stlpmtx_std4priv14_Bit_referenceaNEb;2A.;flip::(48,5):_ZN11stlpmtx_std4priv14_Bit_reference4flipEv;2A.;__base_ctor::(48,14)=#(48,1),(0,6),(48,4),(48,12),(0,6);:_ZN11stlpmtx_std4priv14_Bit_referenceC2ERKS1_;2A.;__comp_ctor::(48,14):_ZN11stlpmtx_std4priv14_Bit_referenceC1ERKS1_;2A.;;",128,0,42,0
	.stabs	"__type_traits<stlpmtx_std::priv::_Bit_reference>:Tt(48,15)=s1operator=::(48,16)=#(48,15),(48,17)=&(48,15),(48,18)=*(48,15),(48,19)=&(48,20)=k(48,15),(0,6);:_ZN11stlpmtx_std13__type_traitsINS_4priv14_Bit_referenceEEaSERKS3_;2A.;__base_ctor::(48,21)=#(48,15),(0,6),(48,18),(48,19),(0,6);:_ZN11stlpmtx_std13__type_traitsINS_4priv14_Bit_referenceEEC2ERKS3_;2A.;__comp_ctor::(48,21):_ZN11stlpmtx_std13__type_traitsINS_4priv14_Bit_referenceEEC1ERKS3_;2A.;__base_ctor::(48,22)=#(48,15),(0,6),(48,18),(0,6);:_ZN11stlpmtx_std13__type_traitsINS_4priv14_Bit_referenceEEC2Ev;2A.;__comp_ctor::(48,22):_ZN11stlpmtx_std13__type_traitsINS_4priv14_Bit_referenceEEC1Ev;2A.;;",128,0,93,0
	.stabs	"_Bit_iterator_base:Tt(48,23)=s8_M_p:(48,2),0,32;_M_offset:(0,17),32,32;_M_bump_up::(48,24)=#(48,23),(0,6),(48,25)=*(48,23),(0,6);:_ZN11stlpmtx_std4priv18_Bit_iterator_base10_M_bump_upEv;2A.;_M_bump_down::(48,24):_ZN11stlpmtx_std4priv18_Bit_iterator_base12_M_bump_downEv;2A.;__base_ctor::(48,24):_ZN11stlpmtx_std4priv18_Bit_iterator_baseC2Ev;2A.;__comp_ctor::(48,24):_ZN11stlpmtx_std4priv18_Bit_iterator_baseC1Ev;2A.;__base_ctor::(48,26)=#(48,23),(0,6),(48,25),(48,2),(0,17),(0,6);:_ZN11stlpmtx_std4priv18_Bit_iterator_baseC2EPjj;2A.;__comp_ctor::(48,26):_ZN11stlpmtx_std4priv18_Bit_iterator_baseC1EPjj;2A.;_M_advance::(48,27)=#(48,23),(0,6),(48,25),(18,3),(0,6);:_ZN11stlpmtx_std4priv18_Bit_iterator_base10_M_advanceEi;2A.;_M_subtract::(48,28)=#(48,23),(18,3),(48,29)=*(48,30)=k(48,23),(48,31)=&(48,30),(0,6);:_ZNK11stlpmtx_std4priv18_Bit_iterator_base11_M_subtractERKS1_;2B.;operator=::(48,32)=#(48,23),(48,33)=&(48,23),(48,25),(48,31),(0,6);:_ZN11stlpmtx_std4priv18_Bit_iterator_baseaSERKS1_;2A.;__base_ctor::(48,34)=#(48,23),(0,6),(48,25),(48,31),(0,6);:_ZN11stlpmtx_std4priv18_Bit_iterator_baseC2ERKS1_;2A.;__comp_ctor::(48,34):_ZN11stlpmtx_std4priv18_Bit_iterator_baseC1ERKS1_;2A.;;",128,0,103,0
	.stabs	"_Bit_const_iterator:t(48,35)=(48,36)=xs_Bit_iter<bool,const bool*>:",128,0,262,0
	.stabs	"_Bit_iterator:t(48,37)=(48,38)=xs_Bit_iter<stlpmtx_std::priv::_Bit_reference,stlpmtx_std::priv::_Bit_reference*>:",128,0,263,0
	.stabs	"_Bit_iter<stlpmtx_std::priv::_Bit_reference,stlpmtx_std::priv::_Bit_reference*>:Tt(48,38)=s8!1,020,(48,23);__base_ctor::(48,39)=#(48,38),(0,6),(48,40)=*(48,38),(48,2),(0,17),(0,6);:_ZN11stlpmtx_std4priv9_Bit_iterINS0_14_Bit_referenceEPS2_EC2EPjj;2A.;__comp_ctor::(48,39):_ZN11stlpmtx_std4priv9_Bit_iterINS0_14_Bit_referenceEPS2_EC1EPjj;2A.;__base_ctor::(48,41)=#(48,38),(0,6),(48,40),(0,6);:_ZN11stlpmtx_std4priv9_Bit_iterINS0_14_Bit_referenceEPS2_EC2Ev;2A.;__comp_ctor::(48,41):_ZN11stlpmtx_std4priv9_Bit_iterINS0_14_Bit_referenceEPS2_EC1Ev;2A.;__base_ctor::(48,42)=#(48,38),(0,6),(48,40),(48,43)=&(48,44)=k(48,38),(0,6);:_ZN11stlpmtx_std4priv9_Bit_iterINS0_14_Bit_referenceEPS2_EC2ERKS4_;2A.;__comp_ctor::(48,42):_ZN11stlpmtx_std4priv9_Bit_iterINS0_14_Bit_referenceEPS2_EC1ERKS4_;2A.;operator*::(48,45)=#(48,38),(48,1),(48,46)=*(48,44),(0,6);:_ZNK11stlpmtx_std4priv9_Bit_iterINS0_14_Bit_referenceEPS2_EdeEv;2B.;operator++::(48,47)=#(48,38),(48,48)=&(48,38),(48,40),(0,6);:_ZN11stlpmtx_std4priv9_Bit_iterINS0_14_Bit_referenceEPS2_EppEv;2A.(48,49)=#(48,38),(48,38),(48,40),(0,3),(0,6);:_ZN11stlpmtx_std4priv9_Bit_iterINS0_14_Bit_referenceEPS2_EppEi;2A.;operator--::(48,47):_ZN11stlpmtx_std4priv9_Bit_iterINS0_14_Bit_referenceEPS2_EmmEv;2A.(48,49):_ZN11stlpmtx_std4priv9_Bit_iterINS0_14_Bit_referenceEPS2_EmmEi;2A.;operator+=::(48,50)=#(48,38),(48,48),(48,40),(0,3),(0,6);:_ZN11stlpmtx_std4priv9_Bit_iterINS0_14_Bit_referenceEPS2_EpLEi;2A.;operator-=::(48,50):_ZN11stlpmtx_std4priv9_Bit_iterINS0_14_Bit_referenceEPS2_EmIEi;2A.;operator+::(48,51)=#(48,38),(48,38),(48,46),(0,3),(0,6);:_ZNK11stlpmtx_std4priv9_Bit_iterINS0_14_Bit_referenceEPS2_EplEi;2B.;operator-::(48,51):_ZNK11stlpmtx_std4priv9_Bit_iterINS0_14_Bit_referenceEPS2_EmiEi;2B.(48,52)=#(48,38),(18,3),(48,46),(48,43),(0,6);:_ZNK11stlpmtx_std4priv9_Bit_iterINS0_14_Bit_referenceEPS2_EmiERKS4_;2B.;operator[]::(48,53)=#(48,38),(48,1),(48,40),(0,3),(0,6);:_ZN11stlpmtx_std4priv9_Bit_iterINS0_14_Bit_referenceEPS2_EixEi;2A.;operator=::(48,54)=#(48,38),(48,48),(48,40),(48,43),(0,6);:_ZN11stlpmtx_std4priv9_Bit_iterINS0_14_Bit_referenceEPS2_EaSERKS4_;2A.;;",128,0,169,0
	.stabn	162,0,0,0
	.stabs	"bit_vector:t(46,1)=(46,2)=xsvector<bool,stlpmtx_std::allocator<bool> >:",128,0,741,0
	.stabn	162,0,0,0
	.stabn	162,0,0,0
	.stabs	"/Users/brzeszczot/workspace/mosync_engine2/VertexF.hpp",130,0,0,0
	.stabs	"VertexF:Tt(49,1)=s8x:(0,9),0,32;y:(0,9),32,32;__base_ctor::(49,2)=#(49,1),(0,6),(49,3)=*(49,1),(0,6);:_ZN7VertexFC2Ev;2A.;__comp_ctor::(49,2):_ZN7VertexFC1Ev;2A.;__base_ctor::(49,4)=#(49,1),(0,6),(49,3),(0,9),(0,9),(0,6);:_ZN7VertexFC2Eff;2A.;__comp_ctor::(49,4):_ZN7VertexFC1Eff;2A.;__base_ctor::(49,5)=#(49,1),(0,6),(49,3),(0,9),(0,6);:_ZN7VertexFC2Ef;2A.;__comp_ctor::(49,5):_ZN7VertexFC1Ef;2A.;operator+::(49,6)=#(49,1),(49,1),(49,3),(49,1),(0,6);:_ZN7VertexFplES_;2A.;operator-::(49,6):_ZN7VertexFmiES_;2A.;operator*::(49,6):_ZN7VertexFmlES_;2A.;operator/::(49,6):_ZN7VertexFdvES_;2A.;operator==::(49,7)=#(49,1),(0,4),(49,3),(49,1),(0,6);:_ZN7VertexFeqES_;2A.;operator!=::(49,7):_ZN7VertexFneES_;2A.;operator++::(49,8)=#(49,1),(49,1),(49,3),(0,3),(0,6);:_ZN7VertexFppEi;2A.;operator--::(49,8):_ZN7VertexFmmEi;2A.;operator=::(49,6):_ZN7VertexFaSES_;2A.;operator+=::(49,6):_ZN7VertexFpLES_;2A.;operator-=::(49,6):_ZN7VertexFmIES_;2A.;operator*=::(49,6):_ZN7VertexFmLES_;2A.;operator/=::(49,6):_ZN7VertexFdVES_;2A.;__base_ctor::(49,9)=#(49,1),(0,6),(49,3),(49,10)=&(49,11)=k(49,1),(0,6);:_ZN7VertexFC2ERKS_;2A.;__comp_ctor::(49,9):_ZN7VertexFC1ERKS_;2A.;;",128,0,13,0
	.stabn	162,0,0,0
	.stabn	162,0,0,0
	.stabs	"/Users/brzeszczot/workspace/mosync_engine2/Adds.hpp",130,0,0,0
	.stabs	"/Applications/MoSync/include/newlib/stlport/string",130,0,0,0
	.stabs	"/Applications/MoSync/include/newlib/stlport/stl/_string.h",130,0,0,0
	.stabs	"/Applications/MoSync/include/newlib/stlport/stl/_string_fwd.h",130,0,0,0
	.stabs	"/Applications/MoSync/include/newlib/stlport/stl/_iosfwd.h",130,0,0,0
	.stabs	"/Applications/MoSync/include/newlib/stlport/stl/char_traits.h",130,0,0,0
	.stabs	"/Applications/MoSync/include/newlib/stlport/stl/_cwchar.h",130,0,0,0
	.stabs	"/Applications/MoSync/include/newlib/stlport/../wchar.h",130,0,0,0
	.stabs	"mbstate_t:t(57,1)=(13,8)",128,0,47,0
	.stabn	162,0,0,0
	.stabn	162,0,0,0
	.stabs	"streamoff:t(55,1)=(29,36)",128,0,74,0
	.stabs	"streamsize:t(55,2)=(18,3)",128,0,81,0
	.stabs	"streampos:t(55,3)=(55,4)=xsfpos<_mbstate_t>:",128,0,127,0
	.stabs	"wstreampos:t(55,5)=(55,4)",128,0,128,0
	.stabs	"__char_traits_base<char,int>:Tt(55,6)=s1assign::(55,7)=f(0,6):_ZN11stlpmtx_std18__char_traits_baseIciE6assignERcRKc;2A?;eq::(55,8)=f(0,4):_ZN11stlpmtx_std18__char_traits_baseIciE2eqERKcS3_;2A?;lt::(55,8):_ZN11stlpmtx_std18__char_traits_baseIciE2ltERKcS3_;2A?;compare::(55,9)=f(0,3):_ZN11stlpmtx_std18__char_traits_baseIciE7compareEPKcS3_m;2A?;length::(55,10)=f(18,2):_ZN11stlpmtx_std18__char_traits_baseIciE6lengthEPKc;2A?;find::(55,11)=f(12,88):_ZN11stlpmtx_std18__char_traits_baseIciE4findEPKcmRS2_;2A?;move::(55,12)=f(12,93):_ZN11stlpmtx_std18__char_traits_baseIciE4moveEPcPKcm;2A?;copy::(55,12):_ZN11stlpmtx_std18__char_traits_baseIciE4copyEPcPKcm;2A?;assign::(55,13)=f(12,93):_ZN11stlpmtx_std18__char_traits_baseIciE6assignEPcmc;2A?;not_eof::(55,14)=f(0,3):_ZN11stlpmtx_std18__char_traits_baseIciE7not_eofERKi;2A?;to_char_type::(55,15)=f(0,19):_ZN11stlpmtx_std18__char_traits_baseIciE12to_char_typeERKi;2A?;to_int_type::(55,16)=f(0,3):_ZN11stlpmtx_std18__char_traits_baseIciE11to_int_typeERKc;2A?;eq_int_type::(55,17)=f(0,4):_ZN11stlpmtx_std18__char_traits_baseIciE11eq_int_typeERKiS3_;2A?;eof::(55,18)=f(0,3):_ZN11stlpmtx_std18__char_traits_baseIciE3eofEv;2A?;operator=::(55,19)=#(55,6),(55,20)=&(55,6),(55,21)=*(55,6),(55,22)=&(55,23)=k(55,6),(0,6);:_ZN11stlpmtx_std18__char_traits_baseIciEaSERKS1_;2A.;__base_ctor::(55,24)=#(55,6),(0,6),(55,21),(55,22),(0,6);:_ZN11stlpmtx_std18__char_traits_baseIciEC2ERKS1_;2A.;__comp_ctor::(55,24):_ZN11stlpmtx_std18__char_traits_baseIciEC1ERKS1_;2A.;__base_ctor::(55,25)=#(55,6),(0,6),(55,21),(0,6);:_ZN11stlpmtx_std18__char_traits_baseIciEC2Ev;2A.;__comp_ctor::(55,25):_ZN11stlpmtx_std18__char_traits_baseIciEC1Ev;2A.;;",128,0,132,0
	.stabs	"__stlport_class<stlpmtx_std::char_traits<char> >:Tt(55,26)=s1operator=::(55,27)=#(55,26),(55,28)=&(55,26),(55,29)=*(55,26),(55,30)=&(55,31)=k(55,26),(0,6);:_ZN11stlpmtx_std15__stlport_classINS_11char_traitsIcEEEaSERKS3_;2A.;__base_ctor::(55,32)=#(55,26),(0,6),(55,29),(55,30),(0,6);:_ZN11stlpmtx_std15__stlport_classINS_11char_traitsIcEEEC2ERKS3_;2A.;__comp_ctor::(55,32):_ZN11stlpmtx_std15__stlport_classINS_11char_traitsIcEEEC1ERKS3_;2A.;__base_ctor::(55,33)=#(55,26),(0,6),(55,29),(0,6);:_ZN11stlpmtx_std15__stlport_classINS_11char_traitsIcEEEC2Ev;2A.;__comp_ctor::(55,33):_ZN11stlpmtx_std15__stlport_classINS_11char_traitsIcEEEC1Ev;2A.;;",128,0,572,0
	.stabs	"char_traits<char>:Tt(55,34)=s1!2,020,(55,6);020,(55,26);to_char_type::(55,15):_ZN11stlpmtx_std11char_traitsIcE12to_char_typeERKi;2A?;to_int_type::(55,16):_ZN11stlpmtx_std11char_traitsIcE11to_int_typeERKc;2A?;compare::(55,35)=f(0,3):_ZN11stlpmtx_std11char_traitsIcE7compareEPKcS3_m;2A?;length::(55,10):_ZN11stlpmtx_std11char_traitsIcE6lengthEPKc;2A?;assign::(55,7):_ZN11stlpmtx_std11char_traitsIcE6assignERcRKc;2A?(55,36)=f(12,93):_ZN11stlpmtx_std11char_traitsIcE6assignEPcmc;2A?;operator=::(55,37)=#(55,34),(55,38)=&(55,34),(55,39)=*(55,34),(55,40)=&(55,41)=k(55,34),(0,6);:_ZN11stlpmtx_std11char_traitsIcEaSERKS1_;2A.;__base_ctor::(55,42)=#(55,34),(0,6),(55,39),(55,40),(0,6);:_ZN11stlpmtx_std11char_traitsIcEC2ERKS1_;2A.;__comp_ctor::(55,42):_ZN11stlpmtx_std11char_traitsIcEC1ERKS1_;2A.;__base_ctor::(55,43)=#(55,34),(0,6),(55,39),(0,6);:_ZN11stlpmtx_std11char_traitsIcEC2Ev;2A.;__comp_ctor::(55,43):_ZN11stlpmtx_std11char_traitsIcEC1Ev;2A.;;",128,0,211,0
	.stabs	"__char_traits_base<wchar_t,wint_t>:Tt(55,44)=s1assign::(55,45)=f(0,6):_ZN11stlpmtx_std18__char_traits_baseIwiE6assignERwRKw;2A?;eq::(55,46)=f(0,4):_ZN11stlpmtx_std18__char_traits_baseIwiE2eqERKwS3_;2A?;lt::(55,46):_ZN11stlpmtx_std18__char_traits_baseIwiE2ltERKwS3_;2A?;compare::(55,47)=f(0,3):_ZN11stlpmtx_std18__char_traits_baseIwiE7compareEPKwS3_m;2A?;length::(55,48)=f(18,2):_ZN11stlpmtx_std18__char_traits_baseIwiE6lengthEPKw;2A?;find::(55,49)=f(55,50)=*(55,51)=k(0,5):_ZN11stlpmtx_std18__char_traits_baseIwiE4findEPKwmRS2_;2A?;move::(55,52)=f(55,53)=*(0,5):_ZN11stlpmtx_std18__char_traits_baseIwiE4moveEPwPKwm;2A?;copy::(55,52):_ZN11stlpmtx_std18__char_traits_baseIwiE4copyEPwPKwm;2A?;assign::(55,54)=f(55,53):_ZN11stlpmtx_std18__char_traits_baseIwiE6assignEPwmw;2A?;not_eof::(55,55)=f(18,1):_ZN11stlpmtx_std18__char_traits_baseIwiE7not_eofERKi;2A?;to_char_type::(55,56)=f(0,5):_ZN11stlpmtx_std18__char_traits_baseIwiE12to_char_typeERKi;2A?;to_int_type::(55,57)=f(18,1):_ZN11stlpmtx_std18__char_traits_baseIwiE11to_int_typeERKw;2A?;eq_int_type::(55,58)=f(0,4):_ZN11stlpmtx_std18__char_traits_baseIwiE11eq_int_typeERKiS3_;2A?;eof::(55,59)=f(18,1):_ZN11stlpmtx_std18__char_traits_baseIwiE3eofEv;2A?;operator=::(55,60)=#(55,44),(55,61)=&(55,44),(55,62)=*(55,44),(55,63)=&(55,64)=k(55,44),(0,6);:_ZN11stlpmtx_std18__char_traits_baseIwiEaSERKS1_;2A.;__base_ctor::(55,65)=#(55,44),(0,6),(55,62),(55,63),(0,6);:_ZN11stlpmtx_std18__char_traits_baseIwiEC2ERKS1_;2A.;__comp_ctor::(55,65):_ZN11stlpmtx_std18__char_traits_baseIwiEC1ERKS1_;2A.;__base_ctor::(55,66)=#(55,44),(0,6),(55,62),(0,6);:_ZN11stlpmtx_std18__char_traits_baseIwiEC2Ev;2A.;__comp_ctor::(55,66):_ZN11stlpmtx_std18__char_traits_baseIwiEC1Ev;2A.;;",128,0,132,0
	.stabs	"char_traits<wchar_t>:Tt(55,67)=s1!1,020,(55,44);move::(55,68)=f(55,53):_ZN11stlpmtx_std11char_traitsIwE4moveEPwPKwm;2A?;copy::(55,68):_ZN11stlpmtx_std11char_traitsIwE4copyEPwPKwm;2A?;compare::(55,69)=f(0,3):_ZN11stlpmtx_std11char_traitsIwE7compareEPKwS3_m;2A?;assign::(55,70)=f(55,53):_ZN11stlpmtx_std11char_traitsIwE6assignEPwmw;2A?;length::(55,48):_ZN11stlpmtx_std11char_traitsIwE6lengthEPKw;2A?;assign::(55,45):_ZN11stlpmtx_std11char_traitsIwE6assignERwRKw;2A?;operator=::(55,71)=#(55,67),(55,72)=&(55,67),(55,73)=*(55,67),(55,74)=&(55,75)=k(55,67),(0,6);:_ZN11stlpmtx_std11char_traitsIwEaSERKS1_;2A.;__base_ctor::(55,76)=#(55,67),(0,6),(55,73),(55,74),(0,6);:_ZN11stlpmtx_std11char_traitsIwEC2ERKS1_;2A.;__comp_ctor::(55,76):_ZN11stlpmtx_std11char_traitsIwEC1ERKS1_;2A.;__base_ctor::(55,77)=#(55,67),(0,6),(55,73),(0,6);:_ZN11stlpmtx_std11char_traitsIwEC2Ev;2A.;__comp_ctor::(55,77):_ZN11stlpmtx_std11char_traitsIwEC1Ev;2A.;;",128,0,244,0
	.stabn	162,0,0,0
	.stabs	"ios:t(54,1)=(54,2)=xsbasic_ios<char,stlpmtx_std::char_traits<char> >:",128,0,78,0
	.stabs	"wios:t(54,3)=(54,4)=xsbasic_ios<wchar_t,stlpmtx_std::char_traits<wchar_t> >:",128,0,81,0
	.stabs	"istream:t(54,5)=(54,6)=xsbasic_istream<char,stlpmtx_std::char_traits<char> >:",128,0,120,0
	.stabs	"ostream:t(54,7)=(54,8)=xsbasic_ostream<char,stlpmtx_std::char_traits<char> >:",128,0,121,0
	.stabs	"iostream:t(54,9)=(54,10)=xsbasic_iostream<char,stlpmtx_std::char_traits<char> >:",128,0,122,0
	.stabs	"streambuf:t(54,11)=(54,12)=xsbasic_streambuf<char,stlpmtx_std::char_traits<char> >:",128,0,123,0
	.stabs	"stringbuf:t(54,13)=(54,14)=xsbasic_stringbuf<char,stlpmtx_std::char_traits<char>,stlpmtx_std::allocator<char> >:",128,0,125,0
	.stabs	"istringstream:t(54,15)=(54,16)=xsbasic_istringstream<char,stlpmtx_std::char_traits<char>,stlpmtx_std::allocator<char> >:",128,0,126,0
	.stabs	"ostringstream:t(54,17)=(54,18)=xsbasic_ostringstream<char,stlpmtx_std::char_traits<char>,stlpmtx_std::allocator<char> >:",128,0,127,0
	.stabs	"stringstream:t(54,19)=(54,20)=xsbasic_stringstream<char,stlpmtx_std::char_traits<char>,stlpmtx_std::allocator<char> >:",128,0,128,0
	.stabs	"filebuf:t(54,21)=(54,22)=xsbasic_filebuf<char,stlpmtx_std::char_traits<char> >:",128,0,130,0
	.stabs	"ifstream:t(54,23)=(54,24)=xsbasic_ifstream<char,stlpmtx_std::char_traits<char> >:",128,0,131,0
	.stabs	"ofstream:t(54,25)=(54,26)=xsbasic_ofstream<char,stlpmtx_std::char_traits<char> >:",128,0,132,0
	.stabs	"fstream:t(54,27)=(54,28)=xsbasic_fstream<char,stlpmtx_std::char_traits<char> >:",128,0,133,0
	.stabs	"wstreambuf:t(54,29)=(54,30)=xsbasic_streambuf<wchar_t,stlpmtx_std::char_traits<wchar_t> >:",128,0,137,0
	.stabs	"wistream:t(54,31)=(54,32)=xsbasic_istream<wchar_t,stlpmtx_std::char_traits<wchar_t> >:",128,0,138,0
	.stabs	"wostream:t(54,33)=(54,34)=xsbasic_ostream<wchar_t,stlpmtx_std::char_traits<wchar_t> >:",128,0,139,0
	.stabs	"wiostream:t(54,35)=(54,36)=xsbasic_iostream<wchar_t,stlpmtx_std::char_traits<wchar_t> >:",128,0,140,0
	.stabs	"wstringbuf:t(54,37)=(54,38)=xsbasic_stringbuf<wchar_t,stlpmtx_std::char_traits<wchar_t>,stlpmtx_std::allocator<wchar_t> >:",128,0,142,0
	.stabs	"wistringstream:t(54,39)=(54,40)=xsbasic_istringstream<wchar_t,stlpmtx_std::char_traits<wchar_t>,stlpmtx_std::allocator<wchar_t> >:",128,0,143,0
	.stabs	"wostringstream:t(54,41)=(54,42)=xsbasic_ostringstream<wchar_t,stlpmtx_std::char_traits<wchar_t>,stlpmtx_std::allocator<wchar_t> >:",128,0,144,0
	.stabs	"wstringstream:t(54,43)=(54,44)=xsbasic_stringstream<wchar_t,stlpmtx_std::char_traits<wchar_t>,stlpmtx_std::allocator<wchar_t> >:",128,0,145,0
	.stabs	"wfilebuf:t(54,45)=(54,46)=xsbasic_filebuf<wchar_t,stlpmtx_std::char_traits<wchar_t> >:",128,0,147,0
	.stabs	"wifstream:t(54,47)=(54,48)=xsbasic_ifstream<wchar_t,stlpmtx_std::char_traits<wchar_t> >:",128,0,148,0
	.stabs	"wofstream:t(54,49)=(54,50)=xsbasic_ofstream<wchar_t,stlpmtx_std::char_traits<wchar_t> >:",128,0,149,0
	.stabs	"wfstream:t(54,51)=(54,52)=xsbasic_fstream<wchar_t,stlpmtx_std::char_traits<wchar_t> >:",128,0,150,0
	.stabn	162,0,0,0
	.stabs	"string:t(53,1)=(53,2)=xsbasic_string<char,stlpmtx_std::char_traits<char>,stlpmtx_std::allocator<char> >:",128,0,40,0
	.stabs	"wstring:t(53,3)=(53,4)=xsbasic_string<wchar_t,stlpmtx_std::char_traits<wchar_t>,stlpmtx_std::allocator<wchar_t> >:",128,0,43,0
	.stabn	162,0,0,0
	.stabs	"_String_reserve_t:Tt(52,1)=s1operator=::(52,2)=#(52,1),(52,3)=&(52,1),(52,4)=*(52,1),(52,5)=&(52,6)=k(52,1),(0,6);:_ZN11stlpmtx_std4priv17_String_reserve_taSERKS1_;2A.;__base_ctor::(52,7)=#(52,1),(0,6),(52,4),(52,5),(0,6);:_ZN11stlpmtx_std4priv17_String_reserve_tC2ERKS1_;2A.;__comp_ctor::(52,7):_ZN11stlpmtx_std4priv17_String_reserve_tC1ERKS1_;2A.;__base_ctor::(52,8)=#(52,1),(0,6),(52,4),(0,6);:_ZN11stlpmtx_std4priv17_String_reserve_tC2Ev;2A.;__comp_ctor::(52,8):_ZN11stlpmtx_std4priv17_String_reserve_tC1Ev;2A.;;",128,0,99,0
	.stabs	"_String_base<char,stlpmtx_std::allocator<char> >::_Buffers:Tt(52,9)=u16_M_end_of_storage:(12,93),0,32;_M_static_buf:(52,10)=ar(13,11);0;15;(0,19),0,128;operator=::(52,11)=#(52,9),(52,12)=&(52,9),(52,13)=*(52,9),(52,14)=&(52,15)=k(52,9),(0,6);:_ZN11stlpmtx_std4priv12_String_baseIcNS_9allocatorIcEEE8_BuffersaSERKS5_;2A.;__base_ctor::(52,16)=#(52,9),(0,6),(52,13),(52,14),(0,6);:_ZN11stlpmtx_std4priv12_String_baseIcNS_9allocatorIcEEE8_BuffersC2ERKS5_;2A.;__comp_ctor::(52,16):_ZN11stlpmtx_std4priv12_String_baseIcNS_9allocatorIcEEE8_BuffersC1ERKS5_;2A.;__base_ctor::(52,17)=#(52,9),(0,6),(52,13),(0,6);:_ZN11stlpmtx_std4priv12_String_baseIcNS_9allocatorIcEEE8_BuffersC2Ev;2A.;__comp_ctor::(52,17):_ZN11stlpmtx_std4priv12_String_baseIcNS_9allocatorIcEEE8_BuffersC1Ev;2A.;;",128,0,54,0
	.stabs	"__stlport_class<stlpmtx_std::allocator<char> >:Tt(52,18)=s1operator=::(52,19)=#(52,18),(52,20)=&(52,18),(52,21)=*(52,18),(52,22)=&(52,23)=k(52,18),(0,6);:_ZN11stlpmtx_std15__stlport_classINS_9allocatorIcEEEaSERKS3_;2A.;__base_ctor::(52,24)=#(52,18),(0,6),(52,21),(52,22),(0,6);:_ZN11stlpmtx_std15__stlport_classINS_9allocatorIcEEEC2ERKS3_;2A.;__comp_ctor::(52,24):_ZN11stlpmtx_std15__stlport_classINS_9allocatorIcEEEC1ERKS3_;2A.;__base_ctor::(52,25)=#(52,18),(0,6),(52,21),(0,6);:_ZN11stlpmtx_std15__stlport_classINS_9allocatorIcEEEC2Ev;2A.;__comp_ctor::(52,25):_ZN11stlpmtx_std15__stlport_classINS_9allocatorIcEEEC1Ev;2A.;;",128,0,572,0
	.stabs	"allocator<char>:Tt(52,26)=s1!1,020,(52,18);__base_ctor::(52,27)=#(52,26),(0,6),(52,28)=*(52,26),(0,6);:_ZN11stlpmtx_std9allocatorIcEC2Ev;2A.;__comp_ctor::(52,27):_ZN11stlpmtx_std9allocatorIcEC1Ev;2A.;__base_ctor::(52,29)=#(52,26),(0,6),(52,28),(52,30)=&(52,31)=k(52,26),(0,6);:_ZN11stlpmtx_std9allocatorIcEC2ERKS1_;2A.;__comp_ctor::(52,29):_ZN11stlpmtx_std9allocatorIcEC1ERKS1_;2A.;__base_ctor::(52,32)=#(52,26),(0,6),(52,28),(52,33)=xs__move_source<stlpmtx_std::allocator<char> >:,(0,6);:_ZN11stlpmtx_std9allocatorIcEC2ENS_13__move_sourceIS1_EE;2A.;__comp_ctor::(52,32):_ZN11stlpmtx_std9allocatorIcEC1ENS_13__move_sourceIS1_EE;2A.;__base_dtor::(52,27):_ZN11stlpmtx_std9allocatorIcED2Ev;2A.;__comp_dtor::(52,27):_ZN11stlpmtx_std9allocatorIcED1Ev;2A.;address::(52,34)=#(52,26),(12,93),(52,35)=*(52,31),(52,36)=&(0,19),(0,6);:_ZNK11stlpmtx_std9allocatorIcE7addressERc;2B.(52,37)=#(52,26),(12,88),(52,35),(52,38)=&(12,89),(0,6);:_ZNK11stlpmtx_std9allocatorIcE7addressERKc;2B.;allocate::(52,39)=#(52,26),(12,93),(52,28),(0,16),(35,92),(0,6);:_ZN11stlpmtx_std9allocatorIcE8allocateEmPKv;2A.;deallocate::(52,40)=#(52,26),(0,6),(52,28),(12,93),(0,16),(0,6);:_ZN11stlpmtx_std9allocatorIcE10deallocateEPcm;2A.(52,41)=#(52,26),(0,6),(52,35),(12,93),(0,6);:_ZNK11stlpmtx_std9allocatorIcE10deallocateEPc;2B.;max_size::(52,42)=#(52,26),(18,2),(52,35),(0,6);:_ZNK11stlpmtx_std9allocatorIcE8max_sizeEv;2B.;construct::(52,43)=#(52,26),(0,6),(52,28),(12,93),(52,38),(0,6);:_ZN11stlpmtx_std9allocatorIcE9constructEPcRKc;2A.;destroy::(52,44)=#(52,26),(0,6),(52,28),(12,93),(0,6);:_ZN11stlpmtx_std9allocatorIcE7destroyEPc;2A.;_M_allocate::(52,45)=#(52,26),(12,93),(52,28),(0,16),(52,46)=&(18,2),(0,6);:_ZN11stlpmtx_std9allocatorIcE11_M_allocateEmRm;2A.;operator=::(52,47)=#(52,26),(52,48)=&(52,26),(52,28),(52,30),(0,6);:_ZN11stlpmtx_std9allocatorIcEaSERKS1_;2A.;;",128,0,275,0
	.stabs	"_STLP_alloc_proxy<char*,char,stlpmtx_std::allocator<char> >:Tt(52,49)=s4!1,020,(52,26);_M_data:(12,93),0,32;__base_ctor::(52,50)=#(52,49),(0,6),(52,51)=*(52,49),(52,30),(12,93),(0,6);:_ZN11stlpmtx_std4priv17_STLP_alloc_proxyIPccNS_9allocatorIcEEEC2ERKS4_S2_;2A.;__comp_ctor::(52,50):_ZN11stlpmtx_std4priv17_STLP_alloc_proxyIPccNS_9allocatorIcEEEC1ERKS4_S2_;2A.;__base_ctor::(52,52)=#(52,49),(0,6),(52,51),(52,53)=xs__move_source<stlpmtx_std::priv::_STLP_alloc_proxy<char*, char, stlpmtx_std::allocator<char> > >:,(0,6);:_ZN11stlpmtx_std4priv17_STLP_alloc_proxyIPccNS_9allocatorIcEEEC2ENS_13__move_sourceIS5_EE;2A.;__comp_ctor::(52,52):_ZN11stlpmtx_std4priv17_STLP_alloc_proxyIPccNS_9allocatorIcEEEC1ENS_13__move_sourceIS5_EE;2A.;_M_base::(52,54)=#(52,49),(52,48),(52,51),(0,6);:_ZN11stlpmtx_std4priv17_STLP_alloc_proxyIPccNS_9allocatorIcEEE7_M_baseEv;2A.;_M_swap_alloc::(52,55)=#(52,49),(0,6),(52,51),(52,56)=&(52,49),(35,5),(0,6);:_ZN11stlpmtx_std4priv17_STLP_alloc_proxyIPccNS_9allocatorIcEEE13_M_swap_allocERS5_RKNS_11__true_typeE;0A.(52,57)=#(52,49),(0,6),(52,51),(52,56),(35,13),(0,6);:_ZN11stlpmtx_std4priv17_STLP_alloc_proxyIPccNS_9allocatorIcEEE13_M_swap_allocERS5_RKNS_12__false_typeE;0A.(52,58)=#(52,49),(0,6),(52,51),(52,56),(0,6);:_ZN11stlpmtx_std4priv17_STLP_alloc_proxyIPccNS_9allocatorIcEEE13_M_swap_allocERS5_;2A.;swap::(52,58):_ZN11stlpmtx_std4priv17_STLP_alloc_proxyIPccNS_9allocatorIcEEE4swapERS5_;2A.;allocate::(52,59)=#(52,49),(12,93),(52,51),(0,16),(52,46),(0,6);:_ZN11stlpmtx_std4priv17_STLP_alloc_proxyIPccNS_9allocatorIcEEE8allocateEmRm;2A.(52,60)=#(52,49),(12,93),(52,51),(0,16),(0,6);:_ZN11stlpmtx_std4priv17_STLP_alloc_proxyIPccNS_9allocatorIcEEE8allocateEm;2A.(52,61)=#(52,49),(12,93),(52,51),(0,16),(52,46),(35,5),(0,6);:_ZN11stlpmtx_std4priv17_STLP_alloc_proxyIPccNS_9allocatorIcEEE8allocateEmRmRKNS_11__true_typeE;0A.(52,62)=#(52,49),(12,93),(52,51),(0,16),(52,46),(35,13),(0,6);:_ZN11stlpmtx_std4priv17_STLP_alloc_proxyIPccNS_9allocatorIcEEE8allocateEmRmRKNS_12__false_typeE;0A.;operator=::(52,63)=#(52,49),(52,56),(52,51),(52,64)=&(52,65)=k(52,49),(0,6);:_ZN11stlpmtx_std4priv17_STLP_alloc_proxyIPccNS_9allocatorIcEEEaSERKS5_;2A.;__base_ctor::(52,66)=#(52,49),(0,6),(52,51),(52,64),(0,6);:_ZN11stlpmtx_std4priv17_STLP_alloc_proxyIPccNS_9allocatorIcEEEC2ERKS5_;2A.;__comp_ctor::(52,66):_ZN11stlpmtx_std4priv17_STLP_alloc_proxyIPccNS_9allocatorIcEEEC1ERKS5_;2A.;__base_dtor::(52,67)=#(52,49),(0,6),(52,51),(0,6);:_ZN11stlpmtx_std4priv17_STLP_alloc_proxyIPccNS_9allocatorIcEEED2Ev;2A.;__comp_dtor::(52,67):_ZN11stlpmtx_std4priv17_STLP_alloc_proxyIPccNS_9allocatorIcEEED1Ev;2A.;;",128,0,472,0
	.stabs	"_String_base<char,stlpmtx_std::allocator<char> >:Tt(52,68)=s24_M_buffers:/0(52,9),0,128;_M_finish:/1(12,93),128,32;_M_start_of_storage:/1(52,49),160,32;_M_using_static_buf::(52,69)=#(52,68),(0,4),(52,70)=*(52,71)=k(52,68),(0,6);:_ZNK11stlpmtx_std4priv12_String_baseIcNS_9allocatorIcEEE19_M_using_static_bufEv;1B.;_M_Start::(52,72)=#(52,68),(12,88),(52,70),(0,6);:_ZNK11stlpmtx_std4priv12_String_baseIcNS_9allocatorIcEEE8_M_StartEv;1B.(52,73)=#(52,68),(12,93),(52,74)=*(52,68),(0,6);:_ZN11stlpmtx_std4priv12_String_baseIcNS_9allocatorIcEEE8_M_StartEv;1A.;_M_End::(52,72):_ZNK11stlpmtx_std4priv12_String_baseIcNS_9allocatorIcEEE6_M_EndEv;1B.(52,73):_ZN11stlpmtx_std4priv12_String_baseIcNS_9allocatorIcEEE6_M_EndEv;1A.;_M_capacity::(52,75)=#(52,68),(18,2),(52,70),(0,6);:_ZNK11stlpmtx_std4priv12_String_baseIcNS_9allocatorIcEEE11_M_capacityEv;1B.;_M_rest::(52,75):_ZNK11stlpmtx_std4priv12_String_baseIcNS_9allocatorIcEEE7_M_restEv;1B.;_M_Finish::(52,72):_ZNK11stlpmtx_std4priv12_String_baseIcNS_9allocatorIcEEE9_M_FinishEv;1B.(52,73):_ZN11stlpmtx_std4priv12_String_baseIcNS_9allocatorIcEEE9_M_FinishEv;1A.;_M_allocate_block::(52,76)=#(52,68),(0,6),(52,74),(0,16),(0,6);:_ZN11stlpmtx_std4priv12_String_baseIcNS_9allocatorIcEEE17_M_allocate_blockEm;1A.;_M_deallocate_block::(52,77)=#(52,68),(0,6),(52,74),(0,6);:_ZN11stlpmtx_std4priv12_String_baseIcNS_9allocatorIcEEE19_M_deallocate_blockEv;1A.;max_size::(52,75):_ZNK11stlpmtx_std4priv12_String_baseIcNS_9allocatorIcEEE8max_sizeEv;1B.;__base_ctor::(52,78)=#(52,68),(0,6),(52,74),(52,30),(0,6);:_ZN11stlpmtx_std4priv12_String_baseIcNS_9allocatorIcEEEC2ERKS3_;1A.;__comp_ctor::(52,78):_ZN11stlpmtx_std4priv12_String_baseIcNS_9allocatorIcEEEC1ERKS3_;1A.;__base_ctor::(52,79)=#(52,68),(0,6),(52,74),(52,30),(0,16),(0,6);:_ZN11stlpmtx_std4priv12_String_baseIcNS_9allocatorIcEEEC2ERKS3_m;1A.;__comp_ctor::(52,79):_ZN11stlpmtx_std4priv12_String_baseIcNS_9allocatorIcEEEC1ERKS3_m;1A.;_M_move_src::(52,80)=#(52,68),(0,6),(52,74),(52,81)=&(52,68),(0,6);:_ZN11stlpmtx_std4priv12_String_baseIcNS_9allocatorIcEEE11_M_move_srcERS4_;1A.;__base_ctor::(52,82)=#(52,68),(0,6),(52,74),(52,83)=xs__move_source<stlpmtx_std::priv::_String_base<char, stlpmtx_std::allocator<char> > >:,(0,6);:_ZN11stlpmtx_std4priv12_String_baseIcNS_9allocatorIcEEEC2ENS_13__move_sourceIS4_EE;1A.;__comp_ctor::(52,82):_ZN11stlpmtx_std4priv12_String_baseIcNS_9allocatorIcEEEC1ENS_13__move_sourceIS4_EE;1A.;__base_dtor::(52,77):_ZN11stlpmtx_std4priv12_String_baseIcNS_9allocatorIcEEED2Ev;1A.;__comp_dtor::(52,77):_ZN11stlpmtx_std4priv12_String_baseIcNS_9allocatorIcEEED1Ev;1A.;_M_reset::(52,84)=#(52,68),(0,6),(52,74),(12,93),(12,93),(12,93),(0,6);:_ZN11stlpmtx_std4priv12_String_baseIcNS_9allocatorIcEEE8_M_resetEPcS5_S5_;1A.;_M_swap::(52,80):_ZN11stlpmtx_std4priv12_String_baseIcNS_9allocatorIcEEE7_M_swapERS4_;1A.;_M_throw_length_error::(52,85)=#(52,68),(0,6),(52,70),(0,6);:_ZNK11stlpmtx_std4priv12_String_baseIcNS_9allocatorIcEEE21_M_throw_length_errorEv;1B.;_M_throw_out_of_range::(52,85):_ZNK11stlpmtx_std4priv12_String_baseIcNS_9allocatorIcEEE21_M_throw_out_of_rangeEv;1B.;operator=::(52,86)=#(52,68),(52,81),(52,74),(52,87)=&(52,71),(0,6);:_ZN11stlpmtx_std4priv12_String_baseIcNS_9allocatorIcEEEaSERKS4_;2A.;__base_ctor::(52,88)=#(52,68),(0,6),(52,74),(52,87),(0,6);:_ZN11stlpmtx_std4priv12_String_baseIcNS_9allocatorIcEEEC2ERKS4_;2A.;__comp_ctor::(52,88):_ZN11stlpmtx_std4priv12_String_baseIcNS_9allocatorIcEEEC1ERKS4_;2A.;;",128,0,41,0
	.stabs	"basic_string<char,stlpmtx_std::char_traits<char>,stlpmtx_std::allocator<char> >:Tt(53,2)=s24!1,000,(52,68);npos:/2(52,89)=k(18,2):_ZN11stlpmtx_std12basic_stringIcNS_11char_traitsIcEENS_9allocatorIcEEE4nposE;get_allocator::(52,90)=#(53,2),(52,26),(52,91)=*(52,92)=k(53,2),(0,6);:_ZNK11stlpmtx_std12basic_stringIcNS_11char_traitsIcEENS_9allocatorIcEEE13get_allocatorEv;2B.;__base_ctor::(52,93)=#(53,2),(0,6),(52,94)=*(53,2),(52,30),(0,6);:_ZN11stlpmtx_std12basic_stringIcNS_11char_traitsIcEENS_9allocatorIcEEEC2ERKS4_;2A.;__comp_ctor::(52,93):_ZN11stlpmtx_std12basic_stringIcNS_11char_traitsIcEENS_9allocatorIcEEEC1ERKS4_;2A.;__base_ctor::(52,95)=#(53,2),(0,6),(52,94),(52,1),(0,16),(52,30),(0,6);:_ZN11stlpmtx_std12basic_stringIcNS_11char_traitsIcEENS_9allocatorIcEEEC2ENS_4priv17_String_reserve_tEmRKS4_;2A.;__comp_ctor::(52,95):_ZN11stlpmtx_std12basic_stringIcNS_11char_traitsIcEENS_9allocatorIcEEEC1ENS_4priv17_String_reserve_tEmRKS4_;2A.;__base_ctor::(52,96)=#(53,2),(0,6),(52,94),(52,97)=&(52,92),(0,6);:_ZN11stlpmtx_std12basic_stringIcNS_11char_traitsIcEENS_9allocatorIcEEEC2ERKS5_;2A.;__comp_ctor::(52,96):_ZN11stlpmtx_std12basic_stringIcNS_11char_traitsIcEENS_9allocatorIcEEEC1ERKS5_;2A.;__base_ctor::(52,98)=#(53,2),(0,6),(52,94),(52,97),(0,16),(0,16),(52,30),(0,6);:_ZN11stlpmtx_std12basic_stringIcNS_11char_traitsIcEENS_9allocatorIcEEEC2ERKS5_mmRKS4_;2A.;__comp_ctor::(52,98):_ZN11stlpmtx_std12basic_stringIcNS_11char_traitsIcEENS_9allocatorIcEEEC1ERKS5_mmRKS4_;2A.;__base_ctor::(52,99)=#(53,2),(0,6),(52,94),(12,88),(0,16),(52,30),(0,6);:_ZN11stlpmtx_std12basic_stringIcNS_11char_traitsIcEENS_9allocatorIcEEEC2EPKcmRKS4_;2A.;__comp_ctor::(52,99):_ZN11stlpmtx_std12basic_stringIcNS_11char_traitsIcEENS_9allocatorIcEEEC1EPKcmRKS4_;2A.;__base_ctor::(52,100)=#(53,2),(0,6),(52,94),(12,88),(52,30),(0,6);:_ZN11stlpmtx_std12basic_stringIcNS_11char_traitsIcEENS_9allocatorIcEEEC2EPKcRKS4_;2A.;__comp_ctor::(52,100):_ZN11stlpmtx_std12basic_stringIcNS_11char_traitsIcEENS_9allocatorIcEEEC1EPKcRKS4_;2A.;__base_ctor::(52,101)=#(53,2),(0,6),(52,94),(0,16),(0,19),(52,30),(0,6);:_ZN11stlpmtx_std12basic_stringIcNS_11char_traitsIcEENS_9allocatorIcEEEC2EmcRKS4_;2A.;__comp_ctor::(52,101):_ZN11stlpmtx_std12basic_stringIcNS_11char_traitsIcEENS_9allocatorIcEEEC1EmcRKS4_;2A.;__base_ctor::(52,102)=#(53,2),(0,6),(52,94),(52,103)=xs__move_source<stlpmtx_std::basic_string<char, stlpmtx_std::char_traits<char>, stlpmtx_std::allocator<char> > >:,(0,6);:_ZN11stlpmtx_std12basic_stringIcNS_11char_traitsIcEENS_9allocatorIcEEEC2ENS_13__move_sourceIS5_EE;2A.;__comp_ctor::(52,102):_ZN11stlpmtx_std12basic_stringIcNS_11char_traitsIcEENS_9allocatorIcEEEC1ENS_13__move_sourceIS5_EE;2A.;_M_compute_next_size::(52,104)=#(53,2),(18,2),(52,94),(0,16),(0,6);:_ZN11stlpmtx_std12basic_stringIcNS_11char_traitsIcEENS_9allocatorIcEEE20_M_compute_next_sizeEm;0A.;operator=::(52,105)=#(53,2),(52,106)=&(53,2),(52,94),(52,97),(0,6);:_ZN11stlpmtx_std12basic_stringIcNS_11char_traitsIcEENS_9allocatorIcEEEaSERKS5_;2A.(52,107)=#(53,2),(52,106),(52,94),(12,88),(0,6);:_ZN11stlpmtx_std12basic_stringIcNS_11char_traitsIcEENS_9allocatorIcEEEaSEPKc;2A.(52,108)=#(53,2),(52,106),(52,94),(0,19),(0,6);:_ZN11stlpmtx_std12basic_stringIcNS_11char_traitsIcEENS_9allocatorIcEEEaSEc;2A.;_M_null::(52,109)=f(0,19):_ZN11stlpmtx_std12basic_stringIcNS_11char_traitsIcEENS_9allocatorIcEEE7_M_nullEv;0A?;_M_construct_null::(52,110)=#(53,2),(0,6),(52,91),(12,93),(0,6);:_ZNK11stlpmtx_std12basic_stringIcNS_11char_traitsIcEENS_9allocatorIcEEE17_M_construct_nullEPc;0B.;_M_terminate_string::(52,111)=#(53,2),(0,6),(52,94),(0,6);:_ZN11stlpmtx_std12basic_stringIcNS_11char_traitsIcEENS_9allocatorIcEEE19_M_terminate_stringEv;0A.;_M_inside::(52,112)=#(53,2),(0,4),(52,91),(12,88),(0,6);:_ZNK11stlpmtx_std12basic_stringIcNS_11char_traitsIcEENS_9allocatorIcEEE9_M_insideEPKc;0B.;_M_range_initialize::(52,113)=#(53,2),(0,6),(52,94),(12,88),(12,88),(0,6);:_ZN11stlpmtx_std12basic_stringIcNS_11char_traitsIcEENS_9allocatorIcEEE19_M_range_initializeEPKcS7_;0A.;begin::(52,114)=#(53,2),(12,93),(52,94),(0,6);:_ZN11stlpmtx_std12basic_stringIcNS_11char_traitsIcEENS_9allocatorIcEEE5beginEv;2A.;end::(52,114):_ZN11stlpmtx_std12basic_stringIcNS_11char_traitsIcEENS_9allocatorIcEEE3endEv;2A.;begin::(52,115)=#(53,2),(12,88),(52,91),(0,6);:_ZNK11stlpmtx_std12basic_stringIcNS_11char_traitsIcEENS_9allocatorIcEEE5beginEv;2B.;end::(52,115):_ZNK11stlpmtx_std12basic_stringIcNS_11char_traitsIcEENS_9allocatorIcEEE3endEv;2B.;rbegin::(52,116)=#(53,2),(52,117)=xsreverse_iterator<char*>:,(52,94),(0,6);:_ZN11stlpmtx_std12basic_stringIcNS_11char_traitsIcEENS_9allocatorIcEEE6rbeginEv;2A.;rend::(52,116):_ZN11stlpmtx_std12basic_stringIcNS_11char_traitsIcEENS_9allocatorIcEEE4rendEv;2A.;rbegin::(52,118)=#(53,2),(52,119)=xsreverse_iterator<const char*>:,(52,91),(0,6);:_ZNK11stlpmtx_std12basic_stringIcNS_11char_traitsIcEENS_9allocatorIcEEE6rbeginEv;2B.;rend::(52,118):_ZNK11stlpmtx_std12basic_stringIcNS_11char_traitsIcEENS_9allocatorIcEEE4rendEv;2B.;size::(52,120)=#(53,2),(18,2),(52,91),(0,6);:_ZNK11stlpmtx_std12basic_stringIcNS_11char_traitsIcEENS_9allocatorIcEEE4sizeEv;2B.;length::(52,120):_ZNK11stlpmtx_std12basic_stringIcNS_11char_traitsIcEENS_9allocatorIcEEE6lengthEv;2B.;max_size::(52,120):_ZNK11stlpmtx_std12basic_stringIcNS_11char_traitsIcEENS_9allocatorIcEEE8max_sizeEv;2B.;resize::(52,121)=#(53,2),(0,6),(52,94),(0,16),(0,19),(0,6);:_ZN11stlpmtx_std12basic_stringIcNS_11char_traitsIcEENS_9allocatorIcEEE6resizeEmc;2A.(52,122)=#(53,2),(0,6),(52,94),(0,16),(0,6);:_ZN11stlpmtx_std12basic_stringIcNS_11char_traitsIcEENS_9allocatorIcEEE6resizeEm;2A.;_M_reserve::(52,122):_ZN11stlpmtx_std12basic_stringIcNS_11char_traitsIcEENS_9allocatorIcEEE10_M_reserveEm;0A.;reserve::(52,123)=#(53,2),(0,6),(52,94),(0,16),(0,6);:_ZN11stlpmtx_std12basic_stringIcNS_11char_traitsIcEENS_9allocatorIcEEE7reserveEm;2A.;capacity::(52,120):_ZNK11stlpmtx_std12basic_stringIcNS_11char_traitsIcEENS_9allocatorIcEEE8capacityEv;2B.;clear::(52,111):_ZN11stlpmtx_std12basic_stringIcNS_11char_traitsIcEENS_9allocatorIcEEE5clearEv;2A.;empty::(52,124)=#(53,2),(0,4),(52,91),(0,6);:_ZNK11stlpmtx_std12basic_stringIcNS_11char_traitsIcEENS_9allocatorIcEEE5emptyEv;2B.;operator[]::(52,125)=#(53,2),(52,38),(52,91),(0,16),(0,6);:_ZNK11stlpmtx_std12basic_stringIcNS_11char_traitsIcEENS_9allocatorIcEEEixEm;2B.(52,126)=#(53,2),(52,36),(52,94),(0,16),(0,6);:_ZN11stlpmtx_std12basic_stringIcNS_11char_traitsIcEENS_9allocatorIcEEEixEm;2A.;at::(52,125):_ZNK11stlpmtx_std12basic_stringIcNS_11char_traitsIcEENS_9allocatorIcEEE2atEm;2B.(52,126):_ZN11stlpmtx_std12basic_stringIcNS_11char_traitsIcEENS_9allocatorIcEEE2atEm;2A.;operator+=::(52,105):_ZN11stlpmtx_std12basic_stringIcNS_11char_traitsIcEENS_9allocatorIcEEEpLERKS5_;2A.(52,107):_ZN11stlpmtx_std12basic_stringIcNS_11char_traitsIcEENS_9allocatorIcEEEpLEPKc;2A.(52,108):_ZN11stlpmtx_std12basic_stringIcNS_11char_traitsIcEENS_9allocatorIcEEEpLEc;2A.;_M_append::(52,127)=#(53,2),(52,106),(52,94),(12,88),(12,88),(0,6);:_ZN11stlpmtx_std12basic_stringIcNS_11char_traitsIcEENS_9allocatorIcEEE9_M_appendEPKcS7_;0A.;append::(52,105):_ZN11stlpmtx_std12basic_stringIcNS_11char_traitsIcEENS_9allocatorIcEEE6appendERKS5_;2A.(52,128)=#(53,2),(52,106),(52,94),(52,97),(0,16),(0,16),(0,6);:_ZN11stlpmtx_std12basic_stringIcNS_11char_traitsIcEENS_9allocatorIcEEE6appendERKS5_mm;2A.(52,129)=#(53,2),(52,106),(52,94),(12,88),(0,16),(0,6);:_ZN11stlpmtx_std12basic_stringIcNS_11char_traitsIcEENS_9allocatorIcEEE6appendEPKcm;2A.(52,107):_ZN11stlpmtx_std12basic_stringIcNS_11char_traitsIcEENS_9allocatorIcEEE6appendEPKc;2A.(52,130)=#(53,2),(52,106),(52,94),(0,16),(0,19),(0,6);:_ZN11stlpmtx_std12basic_stringIcNS_11char_traitsIcEENS_9allocatorIcEEE6appendEmc;2A.;push_back::(52,131)=#(53,2),(0,6),(52,94),(0,19),(0,6);:_ZN11stlpmtx_std12basic_stringIcNS_11char_traitsIcEENS_9allocatorIcEEE9push_backEc;2A.;pop_back::(52,111):_ZN11stlpmtx_std12basic_stringIcNS_11char_traitsIcEENS_9allocatorIcEEE8pop_backEv;2A.;assign::(52,105):_ZN11stlpmtx_std12basic_stringIcNS_11char_traitsIcEENS_9allocatorIcEEE6assignERKS5_;2A.(52,128):_ZN11stlpmtx_std12basic_stringIcNS_11char_traitsIcEENS_9allocatorIcEEE6assignERKS5_mm;2A.(52,129):_ZN11stlpmtx_std12basic_stringIcNS_11char_traitsIcEENS_9allocatorIcEEE6assignEPKcm;2A.(52,107):_ZN11stlpmtx_std12basic_stringIcNS_11char_traitsIcEENS_9allocatorIcEEE6assignEPKc;2A.(52,130):_ZN11stlpmtx_std12basic_stringIcNS_11char_traitsIcEENS_9allocatorIcEEE6assignEmc;2A.;_M_assign::(52,127):_ZN11stlpmtx_std12basic_stringIcNS_11char_traitsIcEENS_9allocatorIcEEE9_M_assignEPKcS7_;0A.;insert::(52,132)=#(53,2),(52,106),(52,94),(0,16),(52,97),(0,6);:_ZN11stlpmtx_std12basic_stringIcNS_11char_traitsIcEENS_9allocatorIcEEE6insertEmRKS5_;2A.(52,133)=#(53,2),(52,106),(52,94),(0,16),(52,97),(0,16),(0,16),(0,6);:_ZN11stlpmtx_std12basic_stringIcNS_11char_traitsIcEENS_9allocatorIcEEE6insertEmRKS5_mm;2A.(52,134)=#(53,2),(52,106),(52,94),(0,16),(12,88),(0,16),(0,6);:_ZN11stlpmtx_std12basic_stringIcNS_11char_traitsIcEENS_9allocatorIcEEE6insertEmPKcm;2A.(52,135)=#(53,2),(52,106),(52,94),(0,16),(12,88),(0,6);:_ZN11stlpmtx_std12basic_stringIcNS_11char_traitsIcEENS_9allocatorIcEEE6insertEmPKc;2A.(52,136)=#(53,2),(52,106),(52,94),(0,16),(0,16),(0,19),(0,6);:_ZN11stlpmtx_std12basic_stringIcNS_11char_traitsIcEENS_9allocatorIcEEE6insertEmmc;2A.(52,137)=#(53,2),(12,93),(52,94),(12,93),(0,19),(0,6);:_ZN11stlpmtx_std12basic_stringIcNS_11char_traitsIcEENS_9allocatorIcEEE6insertEPcc;2A.(52,138)=#(53,2),(0,6),(52,94),(12,93),(0,16),(0,19),(0,6);:_ZN11stlpmtx_std12basic_stringIcNS_11char_traitsIcEENS_9allocatorIcEEE6insertEPcmc;2A.;_M_insert::(52,139)=#(53,2),(0,6),(52,94),(12,93),(12,88),(12,88),(0,4),(0,6);:_ZN11stlpmtx_std12basic_stringIcNS_11char_traitsIcEENS_9allocatorIcEEE9_M_insertEPcPKcS8_b;0A.;_M_insert_aux::(52,137):_ZN11stlpmtx_std12basic_stringIcNS_11char_traitsIcEENS_9allocatorIcEEE13_M_insert_auxEPcc;0A.;_M_copy::(52,140)=#(53,2),(0,6),(52,94),(12,88),(12,88),(12,93),(0,6);:_ZN11stlpmtx_std12basic_stringIcNS_11char_traitsIcEENS_9allocatorIcEEE7_M_copyEPKcS7_Pc;0A.;_M_move::(52,140):_ZN11stlpmtx_std12basic_stringIcNS_11char_traitsIcEENS_9allocatorIcEEE7_M_moveEPKcS7_Pc;0A.;_M_copyT::(52,140):_ZN11stlpmtx_std12basic_stringIcNS_11char_traitsIcEENS_9allocatorIcEEE8_M_copyTEPKcS7_Pc;0A.;insert::(52,141)=#(53,2),(0,6),(52,94),(12,93),(12,88),(12,88),(0,6);:_ZN11stlpmtx_std12basic_stringIcNS_11char_traitsIcEENS_9allocatorIcEEE6insertEPcPKcS8_;2A.;erase::(52,142)=#(53,2),(52,106),(52,94),(0,16),(0,16),(0,6);:_ZN11stlpmtx_std12basic_stringIcNS_11char_traitsIcEENS_9allocatorIcEEE5eraseEmm;2A.(52,143)=#(53,2),(12,93),(52,94),(12,93),(0,6);:_ZN11stlpmtx_std12basic_stringIcNS_11char_traitsIcEENS_9allocatorIcEEE5eraseEPc;2A.(52,144)=#(53,2),(12,93),(52,94),(12,93),(12,93),(0,6);:_ZN11stlpmtx_std12basic_stringIcNS_11char_traitsIcEENS_9allocatorIcEEE5eraseEPcS6_;2A.;replace::(52,145)=#(53,2),(52,106),(52,94),(0,16),(0,16),(52,97),(0,6);:_ZN11stlpmtx_std12basic_stringIcNS_11char_traitsIcEENS_9allocatorIcEEE7replaceEmmRKS5_;2A.(52,146)=#(53,2),(52,106),(52,94),(0,16),(0,16),(52,97),(0,16),(0,16),(0,6);:_ZN11stlpmtx_std12basic_stringIcNS_11char_traitsIcEENS_9allocatorIcEEE7replaceEmmRKS5_mm;2A.(52,147)=#(53,2),(52,106),(52,94),(0,16),(0,16),(12,88),(0,16),(0,6);:_ZN11stlpmtx_std12basic_stringIcNS_11char_traitsIcEENS_9allocatorIcEEE7replaceEmmPKcm;2A.(52,148)=#(53,2),(52,106),(52,94),(0,16),(0,16),(12,88),(0,6);:_ZN11stlpmtx_std12basic_stringIcNS_11char_traitsIcEENS_9allocatorIcEEE7replaceEmmPKc;2A.(52,149)=#(53,2),(52,106),(52,94),(0,16),(0,16),(0,16),(0,19),(0,6);:_ZN11stlpmtx_std12basic_stringIcNS_11char_traitsIcEENS_9allocatorIcEEE7replaceEmmmc;2A.(52,150)=#(53,2),(52,106),(52,94),(12,93),(12,93),(52,97),(0,6);:_ZN11stlpmtx_std12basic_stringIcNS_11char_traitsIcEENS_9allocatorIcEEE7replaceEPcS6_RKS5_;2A.(52,151)=#(53,2),(52,106),(52,94),(12,93),(12,93),(12,88),(0,16),(0,6);:_ZN11stlpmtx_std12basic_stringIcNS_11char_traitsIcEENS_9allocatorIcEEE7replaceEPcS6_PKcm;2A.(52,152)=#(53,2),(52,106),(52,94),(12,93),(12,93),(12,88),(0,6);:_ZN11stlpmtx_std12basic_stringIcNS_11char_traitsIcEENS_9allocatorIcEEE7replaceEPcS6_PKc;2A.(52,153)=#(53,2),(52,106),(52,94),(12,93),(12,93),(0,16),(0,19),(0,6);:_ZN11stlpmtx_std12basic_stringIcNS_11char_traitsIcEENS_9allocatorIcEEE7replaceEPcS6_mc;2A.;_M_replace::(52,154)=#(53,2),(52,106),(52,94),(12,93),(12,93),(12,88),(12,88),(0,4),(0,6);:_ZN11stlpmtx_std12basic_stringIcNS_11char_traitsIcEENS_9allocatorIcEEE10_M_replaceEPcS6_PKcS8_b;0A.;replace::(52,155)=#(53,2),(52,106),(52,94),(12,93),(12,93),(12,88),(12,88),(0,6);:_ZN11stlpmtx_std12basic_stringIcNS_11char_traitsIcEENS_9allocatorIcEEE7replaceEPcS6_PKcS8_;2A.;copy::(52,156)=#(53,2),(18,2),(52,91),(12,93),(0,16),(0,16),(0,6);:_ZNK11stlpmtx_std12basic_stringIcNS_11char_traitsIcEENS_9allocatorIcEEE4copyEPcmm;2B.;swap::(52,157)=#(53,2),(0,6),(52,94),(52,106),(0,6);:_ZN11stlpmtx_std12basic_stringIcNS_11char_traitsIcEENS_9allocatorIcEEE4swapERS5_;2A.;c_str::(52,115):_ZNK11stlpmtx_std12basic_stringIcNS_11char_traitsIcEENS_9allocatorIcEEE5c_strEv;2B.;data::(52,115):_ZNK11stlpmtx_std12basic_stringIcNS_11char_traitsIcEENS_9allocatorIcEEE4dataEv;2B.;find::(52,158)=#(53,2),(18,2),(52,91),(52,97),(0,16),(0,6);:_ZNK11stlpmtx_std12basic_stringIcNS_11char_traitsIcEENS_9allocatorIcEEE4findERKS5_m;2B.(52,159)=#(53,2),(18,2),(52,91),(12,88),(0,16),(0,6);:_ZNK11stlpmtx_std12basic_stringIcNS_11char_traitsIcEENS_9allocatorIcEEE4findEPKcm;2B.(52,160)=#(53,2),(18,2),(52,91),(12,88),(0,16),(0,16),(0,6);:_ZNK11stlpmtx_std12basic_stringIcNS_11char_traitsIcEENS_9allocatorIcEEE4findEPKcmm;2B.(52,161)=#(53,2),(18,2),(52,91),(0,19),(0,6);:_ZNK11stlpmtx_std12basic_stringIcNS_11char_traitsIcEENS_9allocatorIcEEE4findEc;2B.(52,162)=#(53,2),(18,2),(52,91),(0,19),(0,16),(0,6);:_ZNK11stlpmtx_std12basic_stringIcNS_11char_traitsIcEENS_9allocatorIcEEE4findEcm;2B.;rfind::(52,163)=#(53,2),(18,2),(52,91),(52,97),(0,16),(0,6);:_ZNK11stlpmtx_std12basic_stringIcNS_11char_traitsIcEENS_9allocatorIcEEE5rfindERKS5_m;2B.(52,164)=#(53,2),(18,2),(52,91),(12,88),(0,16),(0,6);:_ZNK11stlpmtx_std12basic_stringIcNS_11char_traitsIcEENS_9allocatorIcEEE5rfindEPKcm;2B.(52,160):_ZNK11stlpmtx_std12basic_stringIcNS_11char_traitsIcEENS_9allocatorIcEEE5rfindEPKcmm;2B.(52,165)=#(53,2),(18,2),(52,91),(0,19),(0,16),(0,6);:_ZNK11stlpmtx_std12basic_stringIcNS_11char_traitsIcEENS_9allocatorIcEEE5rfindEcm;2B.;find_first_of::(52,158):_ZNK11stlpmtx_std12basic_stringIcNS_11char_traitsIcEENS_9allocatorIcEEE13find_first_ofERKS5_m;2B.(52,159):_ZNK11stlpmtx_std12basic_stringIcNS_11char_traitsIcEENS_9allocatorIcEEE13find_first_ofEPKcm;2B.(52,160):_ZNK11stlpmtx_std12basic_stringIcNS_11char_traitsIcEENS_9allocatorIcEEE13find_first_ofEPKcmm;2B.(52,166)=#(53,2),(18,2),(52,91),(0,19),(0,16),(0,6);:_ZNK11stlpmtx_std12basic_stringIcNS_11char_traitsIcEENS_9allocatorIcEEE13find_first_ofEcm;2B.;find_last_of::(52,163):_ZNK11stlpmtx_std12basic_stringIcNS_11char_traitsIcEENS_9allocatorIcEEE12find_last_ofERKS5_m;2B.(52,164):_ZNK11stlpmtx_std12basic_stringIcNS_11char_traitsIcEENS_9allocatorIcEEE12find_last_ofEPKcm;2B.(52,160):_ZNK11stlpmtx_std12basic_stringIcNS_11char_traitsIcEENS_9allocatorIcEEE12find_last_ofEPKcmm;2B.(52,165):_ZNK11stlpmtx_std12basic_stringIcNS_11char_traitsIcEENS_9allocatorIcEEE12find_last_ofEcm;2B.;find_first_not_of::(52,158):_ZNK11stlpmtx_std12basic_stringIcNS_11char_traitsIcEENS_9allocatorIcEEE17find_first_not_ofERKS5_m;2B.(52,159):_ZNK11stlpmtx_std12basic_stringIcNS_11char_traitsIcEENS_9allocatorIcEEE17find_first_not_ofEPKcm;2B.(52,160):_ZNK11stlpmtx_std12basic_stringIcNS_11char_traitsIcEENS_9allocatorIcEEE17find_first_not_ofEPKcmm;2B.(52,166):_ZNK11stlpmtx_std12basic_stringIcNS_11char_traitsIcEENS_9allocatorIcEEE17find_first_not_ofEcm;2B.;find_last_not_of::(52,163):_ZNK11stlpmtx_std12basic_stringIcNS_11char_traitsIcEENS_9allocatorIcEEE16find_last_not_ofERKS5_m;2B.(52,164):_ZNK11stlpmtx_std12basic_stringIcNS_11char_traitsIcEENS_9allocatorIcEEE16find_last_not_ofEPKcm;2B.(52,160):_ZNK11stlpmtx_std12basic_stringIcNS_11char_traitsIcEENS_9allocatorIcEEE16find_last_not_ofEPKcmm;2B.(52,165):_ZNK11stlpmtx_std12basic_stringIcNS_11char_traitsIcEENS_9allocatorIcEEE16find_last_not_ofEcm;2B.;substr::(52,167)=#(53,2),(53,2),(52,91),(0,16),(0,16),(0,6);:_ZNK11stlpmtx_std12basic_stringIcNS_11char_traitsIcEENS_9allocatorIcEEE6substrEmm;2B.;compare::(52,168)=#(53,2),(0,3),(52,91),(52,97),(0,6);:_ZNK11stlpmtx_std12basic_stringIcNS_11char_traitsIcEENS_9allocatorIcEEE7compareERKS5_;2B.(52,169)=#(53,2),(0,3),(52,91),(0,16),(0,16),(52,97),(0,6);:_ZNK11stlpmtx_std12basic_stringIcNS_11char_traitsIcEENS_9allocatorIcEEE7compareEmmRKS5_;2B.(52,170)=#(53,2),(0,3),(52,91),(0,16),(0,16),(52,97),(0,16),(0,16),(0,6);:_ZNK11stlpmtx_std12basic_stringIcNS_11char_traitsIcEENS_9allocatorIcEEE7compareEmmRKS5_mm;2B.(52,171)=#(53,2),(0,3),(52,91),(12,88),(0,6);:_ZNK11stlpmtx_std12basic_stringIcNS_11char_traitsIcEENS_9allocatorIcEEE7compareEPKc;2B.(52,172)=#(53,2),(0,3),(52,91),(0,16),(0,16),(12,88),(0,6);:_ZNK11stlpmtx_std12basic_stringIcNS_11char_traitsIcEENS_9allocatorIcEEE7compareEmmPKc;2B.(52,173)=#(53,2),(0,3),(52,91),(0,16),(0,16),(12,88),(0,16),(0,6);:_ZNK11stlpmtx_std12basic_stringIcNS_11char_traitsIcEENS_9allocatorIcEEE7compareEmmPKcm;2B.;_M_compare::(52,174)=f(0,3):_ZN11stlpmtx_std12basic_stringIcNS_11char_traitsIcEENS_9allocatorIcEEE10_M_compareEPKcS7_S7_S7_;2A?;__base_dtor::(52,111):_ZN11stlpmtx_std12basic_stringIcNS_11char_traitsIcEENS_9allocatorIcEEED2Ev;2A.;__comp_dtor::(52,111):_ZN11stlpmtx_std12basic_stringIcNS_11char_traitsIcEENS_9allocatorIcEEED1Ev;2A.;;",128,0,32,0
	.stabs	"/Applications/MoSync/include/newlib/stlport/stl/_string.c",130,0,0,0
	.stabs	"/Applications/MoSync/include/newlib/stlport/stl/_function.h",130,0,0,0
	.stabs	"unary_function<long unsigned int,long unsigned int>:Tt(59,1)=s1__base_dtor::(59,2)=#(59,1),(0,6),(59,3)=*(59,1),(0,6);:_ZN11stlpmtx_std14unary_functionImmED2Ev;1A.;__comp_dtor::(59,2):_ZN11stlpmtx_std14unary_functionImmED1Ev;1A.;operator=::(59,4)=#(59,1),(59,5)=&(59,1),(59,3),(59,6)=&(59,7)=k(59,1),(0,6);:_ZN11stlpmtx_std14unary_functionImmEaSERKS1_;2A.;__base_ctor::(59,8)=#(59,1),(0,6),(59,3),(59,6),(0,6);:_ZN11stlpmtx_std14unary_functionImmEC2ERKS1_;2A.;__comp_ctor::(59,8):_ZN11stlpmtx_std14unary_functionImmEC1ERKS1_;2A.;__base_ctor::(59,9)=#(59,1),(0,6),(59,3),(0,6);:_ZN11stlpmtx_std14unary_functionImmEC2Ev;2A.;__comp_ctor::(59,9):_ZN11stlpmtx_std14unary_functionImmEC1Ev;2A.;;",128,0,40,0
	.stabs	"subtractive_rng:Tt(59,10)=s228!1,020,(59,1);_M_table:/0(59,11)=ar(13,11);0;54;(0,16),0,1760;_M_index1:/0(0,16),1760,32;_M_index2:/0(0,16),1792,32;operator()::(59,12)=#(59,10),(0,16),(59,13)=*(59,10),(0,16),(0,6);:_ZN11stlpmtx_std15subtractive_rngclEm;2A.;_M_initialize::(59,14)=#(59,10),(0,6),(59,13),(0,16),(0,6);:_ZN11stlpmtx_std15subtractive_rng13_M_initializeEm;2A.;__base_ctor::(59,15)=#(59,10),(0,6),(59,13),(0,17),(0,6);:_ZN11stlpmtx_std15subtractive_rngC2Ej;2A.;__comp_ctor::(59,15):_ZN11stlpmtx_std15subtractive_rngC1Ej;2A.;__base_ctor::(59,16)=#(59,10),(0,6),(59,13),(0,6);:_ZN11stlpmtx_std15subtractive_rngC2Ev;2A.;__comp_ctor::(59,16):_ZN11stlpmtx_std15subtractive_rngC1Ev;2A.;operator=::(59,17)=#(59,10),(59,18)=&(59,10),(59,13),(59,19)=&(59,20)=k(59,10),(0,6);:_ZN11stlpmtx_std15subtractive_rngaSERKS0_;2A.;__base_ctor::(59,21)=#(59,10),(0,6),(59,13),(59,19),(0,6);:_ZN11stlpmtx_std15subtractive_rngC2ERKS0_;2A.;__comp_ctor::(59,21):_ZN11stlpmtx_std15subtractive_rngC1ERKS0_;2A.;__base_dtor::(59,16):_ZN11stlpmtx_std15subtractive_rngD2Ev;2A.;__comp_dtor::(59,16):_ZN11stlpmtx_std15subtractive_rngD1Ev;2A.;;",128,0,388,0
	.stabn	162,0,0,0
	.stabn	162,0,0,0
	.stabn	162,0,0,0
	.stabs	"/Applications/MoSync/include/newlib/stlport/stl/_string_hash.h",130,0,0,0
	.stabs	"/Applications/MoSync/include/newlib/stlport/stl/_hash_fun.h",130,0,0,0
	.stabs	"hash<char*>:Tt(61,1)=s1operator()::(61,2)=#(61,1),(18,2),(61,3)=*(61,4)=k(61,1),(12,88),(0,6);:_ZNK11stlpmtx_std4hashIPcEclEPKc;2B.;operator=::(61,5)=#(61,1),(61,6)=&(61,1),(61,7)=*(61,1),(61,8)=&(61,4),(0,6);:_ZN11stlpmtx_std4hashIPcEaSERKS2_;2A.;__base_ctor::(61,9)=#(61,1),(0,6),(61,7),(61,8),(0,6);:_ZN11stlpmtx_std4hashIPcEC2ERKS2_;2A.;__comp_ctor::(61,9):_ZN11stlpmtx_std4hashIPcEC1ERKS2_;2A.;__base_ctor::(61,10)=#(61,1),(0,6),(61,7),(0,6);:_ZN11stlpmtx_std4hashIPcEC2Ev;2A.;__comp_ctor::(61,10):_ZN11stlpmtx_std4hashIPcEC1Ev;2A.;;",128,0,56,0
	.stabs	"hash<const char*>:Tt(61,11)=s1operator()::(61,12)=#(61,11),(18,2),(61,13)=*(61,14)=k(61,11),(12,88),(0,6);:_ZNK11stlpmtx_std4hashIPKcEclES2_;2B.;operator=::(61,15)=#(61,11),(61,16)=&(61,11),(61,17)=*(61,11),(61,18)=&(61,14),(0,6);:_ZN11stlpmtx_std4hashIPKcEaSERKS3_;2A.;__base_ctor::(61,19)=#(61,11),(0,6),(61,17),(61,18),(0,6);:_ZN11stlpmtx_std4hashIPKcEC2ERKS3_;2A.;__comp_ctor::(61,19):_ZN11stlpmtx_std4hashIPKcEC1ERKS3_;2A.;__base_ctor::(61,20)=#(61,11),(0,6),(61,17),(0,6);:_ZN11stlpmtx_std4hashIPKcEC2Ev;2A.;__comp_ctor::(61,20):_ZN11stlpmtx_std4hashIPKcEC1Ev;2A.;;",128,0,64,0
	.stabs	"hash<char>:Tt(61,21)=s1operator()::(61,22)=#(61,21),(18,2),(61,23)=*(61,24)=k(61,21),(0,19),(0,6);:_ZNK11stlpmtx_std4hashIcEclEc;2B.;operator=::(61,25)=#(61,21),(61,26)=&(61,21),(61,27)=*(61,21),(61,28)=&(61,24),(0,6);:_ZN11stlpmtx_std4hashIcEaSERKS1_;2A.;__base_ctor::(61,29)=#(61,21),(0,6),(61,27),(61,28),(0,6);:_ZN11stlpmtx_std4hashIcEC2ERKS1_;2A.;__comp_ctor::(61,29):_ZN11stlpmtx_std4hashIcEC1ERKS1_;2A.;__base_ctor::(61,30)=#(61,21),(0,6),(61,27),(0,6);:_ZN11stlpmtx_std4hashIcEC2Ev;2A.;__comp_ctor::(61,30):_ZN11stlpmtx_std4hashIcEC1Ev;2A.;;",128,0,71,0
	.stabs	"hash<unsigned char>:Tt(61,31)=s1operator()::(61,32)=#(61,31),(18,2),(61,33)=*(61,34)=k(61,31),(0,10),(0,6);:_ZNK11stlpmtx_std4hashIhEclEh;2B.;operator=::(61,35)=#(61,31),(61,36)=&(61,31),(61,37)=*(61,31),(61,38)=&(61,34),(0,6);:_ZN11stlpmtx_std4hashIhEaSERKS1_;2A.;__base_ctor::(61,39)=#(61,31),(0,6),(61,37),(61,38),(0,6);:_ZN11stlpmtx_std4hashIhEC2ERKS1_;2A.;__comp_ctor::(61,39):_ZN11stlpmtx_std4hashIhEC1ERKS1_;2A.;__base_ctor::(61,40)=#(61,31),(0,6),(61,37),(0,6);:_ZN11stlpmtx_std4hashIhEC2Ev;2A.;__comp_ctor::(61,40):_ZN11stlpmtx_std4hashIhEC1Ev;2A.;;",128,0,74,0
	.stabs	"hash<signed char>:Tt(61,41)=s1operator()::(61,42)=#(61,41),(18,2),(61,43)=*(61,44)=k(61,41),(0,10),(0,6);:_ZNK11stlpmtx_std4hashIaEclEh;2B.;operator=::(61,45)=#(61,41),(61,46)=&(61,41),(61,47)=*(61,41),(61,48)=&(61,44),(0,6);:_ZN11stlpmtx_std4hashIaEaSERKS1_;2A.;__base_ctor::(61,49)=#(61,41),(0,6),(61,47),(61,48),(0,6);:_ZN11stlpmtx_std4hashIaEC2ERKS1_;2A.;__comp_ctor::(61,49):_ZN11stlpmtx_std4hashIaEC1ERKS1_;2A.;__base_ctor::(61,50)=#(61,41),(0,6),(61,47),(0,6);:_ZN11stlpmtx_std4hashIaEC2Ev;2A.;__comp_ctor::(61,50):_ZN11stlpmtx_std4hashIaEC1Ev;2A.;;",128,0,78,0
	.stabs	"hash<short int>:Tt(61,51)=s1operator()::(61,52)=#(61,51),(18,2),(61,53)=*(61,54)=k(61,51),(0,13),(0,6);:_ZNK11stlpmtx_std4hashIsEclEs;2B.;operator=::(61,55)=#(61,51),(61,56)=&(61,51),(61,57)=*(61,51),(61,58)=&(61,54),(0,6);:_ZN11stlpmtx_std4hashIsEaSERKS1_;2A.;__base_ctor::(61,59)=#(61,51),(0,6),(61,57),(61,58),(0,6);:_ZN11stlpmtx_std4hashIsEC2ERKS1_;2A.;__comp_ctor::(61,59):_ZN11stlpmtx_std4hashIsEC1ERKS1_;2A.;__base_ctor::(61,60)=#(61,51),(0,6),(61,57),(0,6);:_ZN11stlpmtx_std4hashIsEC2Ev;2A.;__comp_ctor::(61,60):_ZN11stlpmtx_std4hashIsEC1Ev;2A.;;",128,0,82,0
	.stabs	"hash<short unsigned int>:Tt(61,61)=s1operator()::(61,62)=#(61,61),(18,2),(61,63)=*(61,64)=k(61,61),(0,12),(0,6);:_ZNK11stlpmtx_std4hashItEclEt;2B.;operator=::(61,65)=#(61,61),(61,66)=&(61,61),(61,67)=*(61,61),(61,68)=&(61,64),(0,6);:_ZN11stlpmtx_std4hashItEaSERKS1_;2A.;__base_ctor::(61,69)=#(61,61),(0,6),(61,67),(61,68),(0,6);:_ZN11stlpmtx_std4hashItEC2ERKS1_;2A.;__comp_ctor::(61,69):_ZN11stlpmtx_std4hashItEC1ERKS1_;2A.;__base_ctor::(61,70)=#(61,61),(0,6),(61,67),(0,6);:_ZN11stlpmtx_std4hashItEC2Ev;2A.;__comp_ctor::(61,70):_ZN11stlpmtx_std4hashItEC1Ev;2A.;;",128,0,85,0
	.stabs	"hash<int>:Tt(61,71)=s1operator()::(61,72)=#(61,71),(18,2),(61,73)=*(61,74)=k(61,71),(0,3),(0,6);:_ZNK11stlpmtx_std4hashIiEclEi;2B.;operator=::(61,75)=#(61,71),(61,76)=&(61,71),(61,77)=*(61,71),(61,78)=&(61,74),(0,6);:_ZN11stlpmtx_std4hashIiEaSERKS1_;2A.;__base_ctor::(61,79)=#(61,71),(0,6),(61,77),(61,78),(0,6);:_ZN11stlpmtx_std4hashIiEC2ERKS1_;2A.;__comp_ctor::(61,79):_ZN11stlpmtx_std4hashIiEC1ERKS1_;2A.;__base_ctor::(61,80)=#(61,71),(0,6),(61,77),(0,6);:_ZN11stlpmtx_std4hashIiEC2Ev;2A.;__comp_ctor::(61,80):_ZN11stlpmtx_std4hashIiEC1Ev;2A.;;",128,0,88,0
	.stabs	"hash<unsigned int>:Tt(61,81)=s1operator()::(61,82)=#(61,81),(18,2),(61,83)=*(61,84)=k(61,81),(0,17),(0,6);:_ZNK11stlpmtx_std4hashIjEclEj;2B.;operator=::(61,85)=#(61,81),(61,86)=&(61,81),(61,87)=*(61,81),(61,88)=&(61,84),(0,6);:_ZN11stlpmtx_std4hashIjEaSERKS1_;2A.;__base_ctor::(61,89)=#(61,81),(0,6),(61,87),(61,88),(0,6);:_ZN11stlpmtx_std4hashIjEC2ERKS1_;2A.;__comp_ctor::(61,89):_ZN11stlpmtx_std4hashIjEC1ERKS1_;2A.;__base_ctor::(61,90)=#(61,81),(0,6),(61,87),(0,6);:_ZN11stlpmtx_std4hashIjEC2Ev;2A.;__comp_ctor::(61,90):_ZN11stlpmtx_std4hashIjEC1Ev;2A.;;",128,0,93,0
	.stabs	"hash<long int>:Tt(61,91)=s1operator()::(61,92)=#(61,91),(18,2),(61,93)=*(61,94)=k(61,91),(0,18),(0,6);:_ZNK11stlpmtx_std4hashIlEclEl;2B.;operator=::(61,95)=#(61,91),(61,96)=&(61,91),(61,97)=*(61,91),(61,98)=&(61,94),(0,6);:_ZN11stlpmtx_std4hashIlEaSERKS1_;2A.;__base_ctor::(61,99)=#(61,91),(0,6),(61,97),(61,98),(0,6);:_ZN11stlpmtx_std4hashIlEC2ERKS1_;2A.;__comp_ctor::(61,99):_ZN11stlpmtx_std4hashIlEC1ERKS1_;2A.;__base_ctor::(61,100)=#(61,91),(0,6),(61,97),(0,6);:_ZN11stlpmtx_std4hashIlEC2Ev;2A.;__comp_ctor::(61,100):_ZN11stlpmtx_std4hashIlEC1Ev;2A.;;",128,0,108,0
	.stabs	"hash<long unsigned int>:Tt(61,101)=s1operator()::(61,102)=#(61,101),(18,2),(61,103)=*(61,104)=k(61,101),(0,16),(0,6);:_ZNK11stlpmtx_std4hashImEclEm;2B.;operator=::(61,105)=#(61,101),(61,106)=&(61,101),(61,107)=*(61,101),(61,108)=&(61,104),(0,6);:_ZN11stlpmtx_std4hashImEaSERKS1_;2A.;__base_ctor::(61,109)=#(61,101),(0,6),(61,107),(61,108),(0,6);:_ZN11stlpmtx_std4hashImEC2ERKS1_;2A.;__comp_ctor::(61,109):_ZN11stlpmtx_std4hashImEC1ERKS1_;2A.;__base_ctor::(61,110)=#(61,101),(0,6),(61,107),(0,6);:_ZN11stlpmtx_std4hashImEC2Ev;2A.;__comp_ctor::(61,110):_ZN11stlpmtx_std4hashImEC1Ev;2A.;;",128,0,111,0
	.stabs	"hash<long long int>:Tt(61,111)=s1operator()::(61,112)=#(61,111),(18,2),(61,113)=*(61,114)=k(61,111),(0,15),(0,6);:_ZNK11stlpmtx_std4hashIxEclEx;2B.;operator=::(61,115)=#(61,111),(61,116)=&(61,111),(61,117)=*(61,111),(61,118)=&(61,114),(0,6);:_ZN11stlpmtx_std4hashIxEaSERKS1_;2A.;__base_ctor::(61,119)=#(61,111),(0,6),(61,117),(61,118),(0,6);:_ZN11stlpmtx_std4hashIxEC2ERKS1_;2A.;__comp_ctor::(61,119):_ZN11stlpmtx_std4hashIxEC1ERKS1_;2A.;__base_ctor::(61,120)=#(61,111),(0,6),(61,117),(0,6);:_ZN11stlpmtx_std4hashIxEC2Ev;2A.;__comp_ctor::(61,120):_ZN11stlpmtx_std4hashIxEC1Ev;2A.;;",128,0,116,0
	.stabs	"hash<long long unsigned int>:Tt(61,121)=s1operator()::(61,122)=#(61,121),(18,2),(61,123)=*(61,124)=k(61,121),(0,14),(0,6);:_ZNK11stlpmtx_std4hashIyEclEy;2B.;operator=::(61,125)=#(61,121),(61,126)=&(61,121),(61,127)=*(61,121),(61,128)=&(61,124),(0,6);:_ZN11stlpmtx_std4hashIyEaSERKS1_;2A.;__base_ctor::(61,129)=#(61,121),(0,6),(61,127),(61,128),(0,6);:_ZN11stlpmtx_std4hashIyEC2ERKS1_;2A.;__comp_ctor::(61,129):_ZN11stlpmtx_std4hashIyEC1ERKS1_;2A.;__base_ctor::(61,130)=#(61,121),(0,6),(61,127),(0,6);:_ZN11stlpmtx_std4hashIyEC2Ev;2A.;__comp_ctor::(61,130):_ZN11stlpmtx_std4hashIyEC1Ev;2A.;;",128,0,119,0
	.stabs	"hash<void*>::__vp:Tt(61,131)=u4s:(18,2),0,32;p:(13,28),0,32;operator=::(61,132)=#(61,131),(61,133)=&(61,131),(61,134)=*(61,131),(61,135)=&(61,136)=k(61,131),(0,6);:_ZN11stlpmtx_std4hashIPvE4__vpaSERKS3_;2A.;__base_ctor::(61,137)=#(61,131),(0,6),(61,134),(61,135),(0,6);:_ZN11stlpmtx_std4hashIPvE4__vpC2ERKS3_;2A.;__comp_ctor::(61,137):_ZN11stlpmtx_std4hashIPvE4__vpC1ERKS3_;2A.;__base_ctor::(61,138)=#(61,131),(0,6),(61,134),(0,6);:_ZN11stlpmtx_std4hashIPvE4__vpC2Ev;2A.;__comp_ctor::(61,138):_ZN11stlpmtx_std4hashIPvE4__vpC1Ev;2A.;;",128,0,127,0
	.stabs	"hash<void*>:Tt(61,139)=s1operator()::(61,140)=#(61,139),(18,2),(61,141)=*(61,142)=k(61,139),(13,28),(0,6);:_ZNK11stlpmtx_std4hashIPvEclES1_;2B.;operator=::(61,143)=#(61,139),(61,144)=&(61,139),(61,145)=*(61,139),(61,146)=&(61,142),(0,6);:_ZN11stlpmtx_std4hashIPvEaSERKS2_;2A.;__base_ctor::(61,147)=#(61,139),(0,6),(61,145),(61,146),(0,6);:_ZN11stlpmtx_std4hashIPvEC2ERKS2_;2A.;__comp_ctor::(61,147):_ZN11stlpmtx_std4hashIPvEC1ERKS2_;2A.;__base_ctor::(61,148)=#(61,139),(0,6),(61,145),(0,6);:_ZN11stlpmtx_std4hashIPvEC2Ev;2A.;__comp_ctor::(61,148):_ZN11stlpmtx_std4hashIPvEC1Ev;2A.;;",128,0,126,0
	.stabn	162,0,0,0
	.stabn	162,0,0,0
	.stabn	162,0,0,0
	.stabs	"/Applications/MoSync/include/newlib/stlport/ctime",130,0,0,0
	.stabs	"/Applications/MoSync/include/newlib/stlport/stl/_ctime.h",130,0,0,0
	.stabs	"/Applications/MoSync/include/newlib/stlport/time.h",130,0,0,0
	.stabs	"/Applications/MoSync/include/newlib/stlport/../time.h",130,0,0,0
	.stabs	"tm:Tt(65,1)=s36tm_sec:(0,3),0,32;tm_min:(0,3),32,32;tm_hour:(0,3),64,32;tm_mday:(0,3),96,32;tm_mon:(0,3),128,32;tm_year:(0,3),160,32;tm_wday:(0,3),192,32;tm_yday:(0,3),224,32;tm_isdst:(0,3),256,32;operator=::(65,2)=#(65,1),(65,3)=&(65,1),(65,4)=*(65,1),(65,5)=&(65,6)=k(65,1),(0,6);:_ZN2tmaSERKS_;2A.;__base_ctor::(65,7)=#(65,1),(0,6),(65,4),(65,5),(0,6);:_ZN2tmC2ERKS_;2A.;__comp_ctor::(65,7):_ZN2tmC1ERKS_;2A.;__base_ctor::(65,8)=#(65,1),(0,6),(65,4),(0,6);:_ZN2tmC2Ev;2A.;__comp_ctor::(65,8):_ZN2tmC1Ev;2A.;;",128,0,34,0
	.stabs	"__tzrule_struct:Tt(65,9)=s28ch:(0,19),0,8;m:(0,3),32,32;n:(0,3),64,32;d:(0,3),96,32;s:(0,3),128,32;change:(29,16),160,32;offset:(0,18),192,32;operator=::(65,10)=#(65,9),(65,11)=&(65,9),(65,12)=*(65,9),(65,13)=&(65,14)=k(65,9),(0,6);:_ZN15__tzrule_structaSERKS_;2A.;__base_ctor::(65,15)=#(65,9),(0,6),(65,12),(65,13),(0,6);:_ZN15__tzrule_structC2ERKS_;2A.;__comp_ctor::(65,15):_ZN15__tzrule_structC1ERKS_;2A.;__base_ctor::(65,16)=#(65,9),(0,6),(65,12),(0,6);:_ZN15__tzrule_structC2Ev;2A.;__comp_ctor::(65,16):_ZN15__tzrule_structC1Ev;2A.;;",128,0,75,0
	.stabs	"__tzrule_type:t(65,17)=(65,9)",128,0,83,0
	.stabs	"__tzinfo_struct:Tt(65,18)=s64__tznorth:(0,3),0,32;__tzyear:(0,3),32,32;__tzrule:(65,19)=ar(13,11);0;1;(65,17),64,448;operator=::(65,20)=#(65,18),(65,21)=&(65,18),(65,22)=*(65,18),(65,23)=&(65,24)=k(65,18),(0,6);:_ZN15__tzinfo_structaSERKS_;2A.;__base_ctor::(65,25)=#(65,18),(0,6),(65,22),(65,23),(0,6);:_ZN15__tzinfo_structC2ERKS_;2A.;__comp_ctor::(65,25):_ZN15__tzinfo_structC1ERKS_;2A.;__base_ctor::(65,26)=#(65,18),(0,6),(65,22),(0,6);:_ZN15__tzinfo_structC2Ev;2A.;__comp_ctor::(65,26):_ZN15__tzinfo_structC1Ev;2A.;;",128,0,86,0
	.stabs	"__tzinfo_type:t(65,27)=(65,18)",128,0,90,0
	.stabn	162,0,0,0
	.stabn	162,0,0,0
	.stabn	162,0,0,0
	.stabn	162,0,0,0
	.stabs	"vertex:Tt(50,1)=s8x:(0,3),0,32;y:(0,3),32,32;operator=::(50,2)=#(50,1),(50,3)=&(50,1),(50,4)=*(50,1),(50,5)=&(50,6)=k(50,1),(0,6);:_ZN4Adds6vertexaSERKS0_;2A.;__base_ctor::(50,7)=#(50,1),(0,6),(50,4),(50,5),(0,6);:_ZN4Adds6vertexC2ERKS0_;2A.;__comp_ctor::(50,7):_ZN4Adds6vertexC1ERKS0_;2A.;__base_ctor::(50,8)=#(50,1),(0,6),(50,4),(0,6);:_ZN4Adds6vertexC2Ev;2A.;__comp_ctor::(50,8):_ZN4Adds6vertexC1Ev;2A.;;",128,0,27,0
	.stabs	"vertex:t(50,9)=(50,1)",128,0,27,0
	.stabn	162,0,0,0
	.stabn	162,0,0,0
	.stabs	"/Users/brzeszczot/workspace/mosync_engine2/ObjAnim.hpp",130,0,0,0
	.stabs	"/Users/brzeszczot/workspace/mosync_engine2/IObjAnim.hpp",130,0,0,0
	.stabs	"IObjAnim::s_resource:Tt(67,1)=s28anim_type:(4,1),0,64;frame_size:(4,1),64,64;res_size:(4,1),128,64;res:(0,3),192,32;operator=::(67,2)=#(67,1),(67,3)=&(67,1),(67,4)=*(67,1),(67,5)=&(67,6)=k(67,1),(0,6);:_ZN8IObjAnim10s_resourceaSERKS0_;2A.;__base_ctor::(67,7)=#(67,1),(0,6),(67,4),(67,5),(0,6);:_ZN8IObjAnim10s_resourceC2ERKS0_;2A.;__comp_ctor::(67,7):_ZN8IObjAnim10s_resourceC1ERKS0_;2A.;__base_ctor::(67,8)=#(67,1),(0,6),(67,4),(0,6);:_ZN8IObjAnim10s_resourceC2Ev;2A.;__comp_ctor::(67,8):_ZN8IObjAnim10s_resourceC1Ev;2A.;;",128,0,12,0
	.stabs	"IObjAnim::s_animparam:Tt(67,9)=s44frame:(4,1),0,64;animate:(0,4),64,8;reverse:(0,4),72,8;rev_up:(0,4),80,8;speed:(0,3),96,32;resource:(67,1),128,224;operator=::(67,10)=#(67,9),(67,11)=&(67,9),(67,12)=*(67,9),(67,13)=&(67,14)=k(67,9),(0,6);:_ZN8IObjAnim11s_animparamaSERKS0_;2A.;__base_ctor::(67,15)=#(67,9),(0,6),(67,12),(67,13),(0,6);:_ZN8IObjAnim11s_animparamC2ERKS0_;2A.;__comp_ctor::(67,15):_ZN8IObjAnim11s_animparamC1ERKS0_;2A.;__base_ctor::(67,16)=#(67,9),(0,6),(67,12),(0,6);:_ZN8IObjAnim11s_animparamC2Ev;2A.;__comp_ctor::(67,16):_ZN8IObjAnim11s_animparamC1Ev;2A.;;",128,0,19,0
	.stabn	162,0,0,0
	.stabn	162,0,0,0
	.stabs	"Object::e_objtypes:t(1,1)=eOBJMOVE:0,OBJANIM:1,;",128,0,12,0
	.stabn	162,0,0,0
	.stabs	"Object:Tt(0,25)=s40!3,020,(0,26)=xsObjBase:;02192,(0,27)=xsIObjMove:;02224,(0,28)=xsIObjAnim:;objmove:/0(0,29)=*(0,30)=xsObjMove:,256,32;objanim:/0(0,31)=*(0,32)=xsObjAnim:,288,32;__base_ctor::(0,33)=#(0,25),(0,6),(0,34)=*(0,25),(4,1),(0,6);:_ZN6ObjectC2E6Vertex;2A.;__comp_ctor::(0,33):_ZN6ObjectC1E6Vertex;2A.;__base_ctor::(0,35)=#(0,25),(0,6),(0,34),(0,3),(0,3),(0,6);:_ZN6ObjectC2Eii;2A.;__comp_ctor::(0,35):_ZN6ObjectC1Eii;2A.;__base_dtor::(0,36)=#(0,25),(0,6),(0,34),(0,6);:_ZN6ObjectD2Ev;2A.;__comp_dtor::(0,36):_ZN6ObjectD1Ev;2A*0;(0,25);;__deleting_dtor::(0,36):_ZN6ObjectD0Ev;2A*1;(0,25);;Update::(0,37)=#(0,25),(0,6),(0,34),(0,18),(0,6);:_ZN6Object6UpdateEl;2A*2;(0,25);;BaseParams::(0,38)=#(0,25),(3,3),(0,34),(0,6);:_ZN6Object10BaseParamsEv;2A*3;(0,25);;Move::(0,39)=#(0,25),(6,2),(0,34),(6,1),(4,1),(0,6);:_ZN6Object4MoveEN8IObjMove6e_statE6Vertex;2A*4;(0,25);;MoveParams::(0,40)=#(0,25),(6,3),(0,34),(0,6);:_ZN6Object10MoveParamsEv;2A*5;(0,25);;SetResource::(0,41)=#(0,25),(0,6),(0,34),(67,1),(0,6);:_ZN6Object11SetResourceEN8IObjAnim10s_resourceE;2A*6;(0,25);;AnimParams::(0,42)=#(0,25),(67,11),(0,34),(0,6);:_ZN6Object10AnimParamsEv;2A*7;(0,25);;ObjExist::(0,43)=#(0,25),(0,4),(0,34),(1,1),(0,6);:_ZN6Object8ObjExistENS_10e_objtypesE;2A.;ObjManage::(0,44)=#(0,25),(0,6),(0,34),(1,1),(0,4),(0,6);:_ZN6Object9ObjManageENS_10e_objtypesEb;2A.;UpdateAnimIfMove::(0,45)=#(0,25),(0,4),(0,34),(0,6);:_ZN6Object16UpdateAnimIfMoveEv;0A.;operator=::(0,46)=#(0,25),(0,47)=&(0,25),(0,34),(0,48)=&(0,49)=k(0,25),(0,6);:_ZN6ObjectaSERKS_;2A.;__base_ctor::(0,50)=#(0,25),(0,6),(0,34),(0,48),(0,6);:_ZN6ObjectC2ERKS_;2A.;__comp_ctor::(0,50):_ZN6ObjectC1ERKS_;2A.;;~%(0,51)=xsIObjBase:;",128,0,10,0
	.stabs	"IObjAnim:Tt(0,28)=s4_vptr$IObjAnim:(0,52)=*(0,1),0,32;__base_ctor::(0,53)=#(0,28),(0,6),(0,54)=*(0,28),(0,6);:_ZN8IObjAnimC2Ev;2A.;__comp_ctor::(0,53):_ZN8IObjAnimC1Ev;2A.;__base_dtor::(0,53):_ZN8IObjAnimD2Ev;2A.;__comp_dtor::(0,53):_ZN8IObjAnimD1Ev;2A*0;(0,28);;__deleting_dtor::(0,53):_ZN8IObjAnimD0Ev;2A*1;(0,28);;Update::(0,55)=#(0,28),(0,6),(0,54),(0,18),(0,6);:_ZN8IObjAnim6UpdateEl;2A*2;(0,28);;SetResource::(0,56)=#(0,28),(0,6),(0,54),(67,1),(0,6);:_ZN8IObjAnim11SetResourceENS_10s_resourceE;2A*3;(0,28);;AnimParams::(0,57)=#(0,28),(67,11),(0,54),(0,6);:_ZN8IObjAnim10AnimParamsEv;2A*4;(0,28);;operator=::(0,58)=#(0,28),(0,59)=&(0,28),(0,54),(0,60)=&(0,61)=k(0,28),(0,6);:_ZN8IObjAnimaSERKS_;2A.;__base_ctor::(0,62)=#(0,28),(0,6),(0,54),(0,60),(0,6);:_ZN8IObjAnimC2ERKS_;2A.;__comp_ctor::(0,62):_ZN8IObjAnimC1ERKS_;2A.;;~%(0,28);",128,0,9,0
	.stabs	"IObjMove:Tt(0,27)=s4_vptr$IObjMove:(0,52),0,32;__base_ctor::(0,63)=#(0,27),(0,6),(0,64)=*(0,27),(0,6);:_ZN8IObjMoveC2Ev;2A.;__comp_ctor::(0,63):_ZN8IObjMoveC1Ev;2A.;__base_dtor::(0,63):_ZN8IObjMoveD2Ev;2A.;__comp_dtor::(0,63):_ZN8IObjMoveD1Ev;2A*0;(0,27);;__deleting_dtor::(0,63):_ZN8IObjMoveD0Ev;2A*1;(0,27);;Update::(0,65)=#(0,27),(0,6),(0,64),(0,18),(0,6);:_ZN8IObjMove6UpdateEl;2A*2;(0,27);;Move::(0,66)=#(0,27),(6,2),(0,64),(6,1),(4,1),(0,6);:_ZN8IObjMove4MoveENS_6e_statE6Vertex;2A*3;(0,27);;MoveParams::(0,67)=#(0,27),(6,3),(0,64),(0,6);:_ZN8IObjMove10MoveParamsEv;2A*4;(0,27);;operator=::(0,68)=#(0,27),(0,69)=&(0,27),(0,64),(0,70)=&(0,71)=k(0,27),(0,6);:_ZN8IObjMoveaSERKS_;2A.;__base_ctor::(0,72)=#(0,27),(0,6),(0,64),(0,70),(0,6);:_ZN8IObjMoveC2ERKS_;2A.;__comp_ctor::(0,72):_ZN8IObjMoveC1ERKS_;2A.;;~%(0,27);",128,0,9,0
	.stabs	"IObjBase:Tt(0,51)=s4_vptr$IObjBase:(0,52),0,32;__base_ctor::(0,73)=#(0,51),(0,6),(0,74)=*(0,51),(0,6);:_ZN8IObjBaseC2Ev;2A.;__comp_ctor::(0,73):_ZN8IObjBaseC1Ev;2A.;__base_dtor::(0,73):_ZN8IObjBaseD2Ev;2A.;__comp_dtor::(0,73):_ZN8IObjBaseD1Ev;2A*0;(0,51);;__deleting_dtor::(0,73):_ZN8IObjBaseD0Ev;2A*1;(0,51);;Update::(0,75)=#(0,51),(0,6),(0,74),(0,18),(0,6);:_ZN8IObjBase6UpdateEl;2A*2;(0,51);;BaseParams::(0,76)=#(0,51),(3,3),(0,74),(0,6);:_ZN8IObjBase10BaseParamsEv;2A*3;(0,51);;operator=::(0,77)=#(0,51),(0,78)=&(0,51),(0,74),(0,79)=&(0,80)=k(0,51),(0,6);:_ZN8IObjBaseaSERKS_;2A.;__base_ctor::(0,81)=#(0,51),(0,6),(0,74),(0,79),(0,6);:_ZN8IObjBaseC2ERKS_;2A.;__comp_ctor::(0,81):_ZN8IObjBaseC1ERKS_;2A.;;~%(0,51);",128,0,9,0
	.global	__ZTV6Object
.data
	.align 4
__ZTV6Object:
	.long	0
	.long	0
	.long	__ZN6ObjectD1Ev
	.long	__ZN6ObjectD0Ev
	.long	__ZN6Object6UpdateEl
	.long	__ZN6Object10BaseParamsEv
	.long	__ZN6Object4MoveEN8IObjMove6e_statE6Vertex
	.long	__ZN6Object10MoveParamsEv
	.long	__ZN6Object11SetResourceEN8IObjAnim10s_resourceE
	.long	__ZN6Object10AnimParamsEv
	.long	-24
	.long	0
	.long	__ZThn24_N6ObjectD1Ev
	.long	__ZThn24_N6ObjectD0Ev
	.long	__ZThn24_N6Object6UpdateEl
	.long	__ZThn24_N6Object4MoveEN8IObjMove6e_statE6Vertex
	.long	__ZThn24_N6Object10MoveParamsEv
	.long	-28
	.long	0
	.long	__ZThn28_N6ObjectD1Ev
	.long	__ZThn28_N6ObjectD0Ev
	.long	__ZThn28_N6Object6UpdateEl
	.long	__ZThn28_N6Object11SetResourceEN8IObjAnim10s_resourceE
	.long	__ZThn28_N6Object10AnimParamsEv
	.align 4
__ZTV8IObjMove:
	.long	0
	.long	0
	.long	__ZN8IObjMoveD1Ev
	.long	__ZN8IObjMoveD0Ev
	.long	___cxa_pure_virtual
	.long	___cxa_pure_virtual
	.long	___cxa_pure_virtual
	.align 4
__ZTV8IObjAnim:
	.long	0
	.long	0
	.long	__ZN8IObjAnimD1Ev
	.long	__ZN8IObjAnimD0Ev
	.long	___cxa_pure_virtual
	.long	___cxa_pure_virtual
	.long	___cxa_pure_virtual
.code
	.stabs	"_ZN8IObjMoveD1Ev:f(0,6)",36,0,22,__ZN8IObjMoveD1Ev
	.stabs	"this:P(0,82)=k(0,64)",64,0,22,12

.func __ZN8IObjMoveD1Ev, 1, void
	.stabs	"/Users/brzeszczot/workspace/mosync_engine2/IObjMove.hpp",132,0,0,Ltext1
Ltext1:
	.line 22
	push fr,fr
	ld   fr,sp
	add  fr,#0x4
	.dlab LBB2
	.line 22
	ld   r14,#__ZTV8IObjMove+8
	ld   [i0],r14
	.dlab LBE2
	pop  fr,fr
	ret
Lscope0:
	.stabs	"_ZN8IObjMoveD0Ev:f(0,6)",36,0,22,__ZN8IObjMoveD0Ev
	.stabs	"this:P(0,82)",64,0,22,12

.func __ZN8IObjMoveD0Ev, 1, void
	.line 22
	push rt,fr
	ld   fr,sp
	add  fr,#0x8
	.dlab LBB3
	.line 22
	ld   r14,#__ZTV8IObjMove+8
	ld   [i0],r14
	.dlab LBE3
	call &__ZdlPv ; call non-native
	pop  rt,fr
	ret
Lscope1:
	.stabs	"_ZN8IObjAnimD1Ev:f(0,6)",36,0,29,__ZN8IObjAnimD1Ev
	.stabs	"this:P(0,83)=k(0,54)",64,0,29,12

.func __ZN8IObjAnimD1Ev, 1, void
	.stabs	"/Users/brzeszczot/workspace/mosync_engine2/IObjAnim.hpp",132,0,0,Ltext2
Ltext2:
	.line 29
	push fr,fr
	ld   fr,sp
	add  fr,#0x4
	.dlab LBB4
	.line 29
	ld   r14,#__ZTV8IObjAnim+8
	ld   [i0],r14
	.dlab LBE4
	pop  fr,fr
	ret
Lscope2:
	.stabs	"_ZN8IObjAnimD0Ev:f(0,6)",36,0,29,__ZN8IObjAnimD0Ev
	.stabs	"this:P(0,83)",64,0,29,12

.func __ZN8IObjAnimD0Ev, 1, void
	.line 29
	push rt,fr
	ld   fr,sp
	add  fr,#0x8
	.dlab LBB5
	.line 29
	ld   r14,#__ZTV8IObjAnim+8
	ld   [i0],r14
	.dlab LBE5
	call &__ZdlPv ; call non-native
	pop  rt,fr
	ret
Lscope3:
	.stabs	"_ZN6ObjectC2E6Vertex:F(0,6)",36,0,3,__ZN6ObjectC2E6Vertex
	.stabs	"this:P(0,84)=k(0,34)",64,0,3,4
	.stabs	"start_coords:p(4,1)",160,0,3,-20
	.global	__ZN6ObjectC2E6Vertex

.func __ZN6ObjectC2E6Vertex, 3, void
	.stabs	"/Users/brzeszczot/workspace/mosync_engine2/Object.cpp",132,0,0,Ltext3
Ltext3:
	.line 3
	push rt,d0
	sub  sp,#0x8
	ld   fr,sp
	add  fr,#0x14
	ld   d0,i0
	ld   [fr,-20],i1
	ld   [fr,-16],i2
	.dlab LBB6
	.line 4
	call &__ZN7ObjBaseC2E6Vertex ; call non-native
	ld   r14,#__ZTV6Object+8
	ld   [d0],r14
	ld   r14,#__ZTV6Object+48
	ld   [d0,24],r14
	ld   r14,#__ZTV6Object+76
	ld   [d0,28],r14
	.line 5
	ld   r14,#0x0
	ld   [d0,32],r14
	.line 6
	ld   [d0,36],r14
	.dlab LBE6
	add  sp,#0x8
	pop  rt,d0
	ret
Lscope4:
	.stabs	"_ZN6ObjectC1E6Vertex:F(0,6)",36,0,3,__ZN6ObjectC1E6Vertex
	.stabs	"this:P(0,84)",64,0,3,4
	.stabs	"start_coords:p(4,1)",160,0,3,-20
	.global	__ZN6ObjectC1E6Vertex

.func __ZN6ObjectC1E6Vertex, 3, void
	.line 3
	push rt,d0
	sub  sp,#0x8
	ld   fr,sp
	add  fr,#0x14
	ld   d0,i0
	ld   [fr,-20],i1
	ld   [fr,-16],i2
	.dlab LBB7
	.line 4
	call &__ZN7ObjBaseC2E6Vertex ; call non-native
	ld   r14,#__ZTV6Object+8
	ld   [d0],r14
	ld   r14,#__ZTV6Object+48
	ld   [d0,24],r14
	ld   r14,#__ZTV6Object+76
	ld   [d0,28],r14
	.line 5
	ld   r14,#0x0
	ld   [d0,32],r14
	.line 6
	ld   [d0,36],r14
	.dlab LBE7
	add  sp,#0x8
	pop  rt,d0
	ret
Lscope5:
	.stabs	"_ZN6ObjectC2Eii:F(0,6)",36,0,9,__ZN6ObjectC2Eii
	.stabs	"this:P(0,84)",64,0,9,4
	.stabs	"x:P(0,3)",64,0,9,13
	.stabs	"y:P(0,3)",64,0,9,14
	.global	__ZN6ObjectC2Eii

.func __ZN6ObjectC2Eii, 3, void
	.line 9
	push rt,d0
	ld   fr,sp
	add  fr,#0xc
	ld   d0,i0
	.dlab LBB8
	.line 10
	call &__ZN7ObjBaseC2Eii ; call non-native
	ld   r14,#__ZTV6Object+8
	ld   [d0],r14
	ld   r14,#__ZTV6Object+48
	ld   [d0,24],r14
	ld   r14,#__ZTV6Object+76
	ld   [d0,28],r14
	.line 11
	ld   r14,#0x0
	ld   [d0,32],r14
	.line 12
	ld   [d0,36],r14
	.dlab LBE8
	pop  rt,d0
	ret
Lscope6:
	.stabs	"_ZN6ObjectC1Eii:F(0,6)",36,0,9,__ZN6ObjectC1Eii
	.stabs	"this:P(0,84)",64,0,9,4
	.stabs	"x:P(0,3)",64,0,9,13
	.stabs	"y:P(0,3)",64,0,9,14
	.global	__ZN6ObjectC1Eii

.func __ZN6ObjectC1Eii, 3, void
	.line 9
	push rt,d0
	ld   fr,sp
	add  fr,#0xc
	ld   d0,i0
	.dlab LBB9
	.line 10
	call &__ZN7ObjBaseC2Eii ; call non-native
	ld   r14,#__ZTV6Object+8
	ld   [d0],r14
	ld   r14,#__ZTV6Object+48
	ld   [d0,24],r14
	ld   r14,#__ZTV6Object+76
	ld   [d0,28],r14
	.line 11
	ld   r14,#0x0
	ld   [d0,32],r14
	.line 12
	ld   [d0,36],r14
	.dlab LBE9
	pop  rt,d0
	ret
Lscope7:
	.stabs	"_ZN6ObjectD2Ev:F(0,6)",36,0,16,__ZN6ObjectD2Ev
	.stabs	"this:P(0,84)",64,0,16,5
	.global	__ZN6ObjectD2Ev

.func __ZN6ObjectD2Ev, 1, void
	.line 16
	push rt,d1
	ld   fr,sp
	add  fr,#0x10
	ld   d1,i0
	.dlab LBB10
	.line 16
	ld   r14,#__ZTV6Object+8
	ld   [i0],r14
	ld   r14,#__ZTV6Object+48
	ld   [i0,24],r14
	ld   r14,#__ZTV6Object+76
	ld   [i0,28],r14
	.line 17
	ld   i0,[i0,36]
	ld   r14,#0x0
	jc   ne,i0,r14,#L46
	.line 18
	ld   i0,[d1,32]
	ld   r14,#0x0
	jc   ne,i0,r14,#L47
L34:
	.dlab LBB11
	.dlab LBB12
	.stabs	"/Users/brzeszczot/workspace/mosync_engine2/IObjAnim.hpp",132,0,0,Ltext4
Ltext4:
	.line 29
	ld   r14,#__ZTV8IObjAnim+8
	ld   [d1,28],r14
	.dlab LBE12
	.dlab LBE11
	.dlab LBB13
	.dlab LBB14
	.stabs	"/Users/brzeszczot/workspace/mosync_engine2/IObjMove.hpp",132,0,0,Ltext5
Ltext5:
	.line 22
	ld   r14,#__ZTV8IObjMove+8
	ld   [d1,24],r14
	.dlab LBE14
	.dlab LBE13
	ld   i0,d1
	call &__ZN7ObjBaseD2Ev ; call non-native
	.dlab LBE10
	.stabs	"/Users/brzeszczot/workspace/mosync_engine2/Object.cpp",132,0,0,Ltext6
Ltext6:
	.line 19
	pop  rt,d1
	ret
L46:
	.dlab LBB15
	.line 17
	ld   r14,[i0]
	ld   d0,[r14,4]
	call d0 ; call non-native
	.line 18
	ld   i0,[d1,32]
	ld   r14,#0x0
	jc   eq,i0,r14,#L34
L47:
	ld   r14,[i0]
	ld   d0,[r14,4]
	call d0 ; call non-native
	.dlab LBB16
	.dlab LBB17
	.stabs	"/Users/brzeszczot/workspace/mosync_engine2/IObjAnim.hpp",132,0,0,Ltext7
Ltext7:
	.line 29
	ld   r14,#__ZTV8IObjAnim+8
	ld   [d1,28],r14
	.dlab LBE17
	.dlab LBE16
	.dlab LBB18
	.dlab LBB19
	.stabs	"/Users/brzeszczot/workspace/mosync_engine2/IObjMove.hpp",132,0,0,Ltext8
Ltext8:
	.line 22
	ld   r14,#__ZTV8IObjMove+8
	ld   [d1,24],r14
	.dlab LBE19
	.dlab LBE18
	ld   i0,d1
	call &__ZN7ObjBaseD2Ev ; call non-native
	.dlab LBE15
	.stabs	"/Users/brzeszczot/workspace/mosync_engine2/Object.cpp",132,0,0,Ltext9
Ltext9:
	.line 19
	pop  rt,d1
	ret
Lscope8:
	.set	%0=__ZN6ObjectD1Ev
	.stabs	"this:P(0,84)",64,0,16,12
	.global	__ZThn28_N6ObjectD1Ev

.func __ZThn28_N6ObjectD1Ev, 1, void
	.stabs	"/Users/brzeszczot/workspace/mosync_engine2/Object.hpp",132,0,0,Ltext10
Ltext10:
	.line 10
	push rt,fr
	ld   fr,sp
	add  fr,#0x8
	.line 10
	add  i0,#0xffffffe4
	call &%0 ; call non-native
	pop  rt,fr
	ret
Lscope9:
	.set	%1=__ZN6ObjectD1Ev
	.stabs	"this:P(0,84)",64,0,16,12
	.global	__ZThn24_N6ObjectD1Ev

.func __ZThn24_N6ObjectD1Ev, 1, void
	.line 10
	push rt,fr
	ld   fr,sp
	add  fr,#0x8
	.line 10
	add  i0,#0xffffffe8
	call &%1 ; call non-native
	pop  rt,fr
	ret
Lscope10:
	.stabs	"_ZN6ObjectD1Ev:F(0,6)",36,0,16,__ZN6ObjectD1Ev
	.stabs	"this:P(0,84)",64,0,16,5
	.global	__ZN6ObjectD1Ev

.func __ZN6ObjectD1Ev, 1, void
	.stabs	"/Users/brzeszczot/workspace/mosync_engine2/Object.cpp",132,0,0,Ltext11
Ltext11:
	.line 16
	push rt,d1
	ld   fr,sp
	add  fr,#0x10
	ld   d1,i0
	.dlab LBB20
	.line 16
	ld   r14,#__ZTV6Object+8
	ld   [i0],r14
	ld   r14,#__ZTV6Object+48
	ld   [i0,24],r14
	ld   r14,#__ZTV6Object+76
	ld   [i0,28],r14
	.line 17
	ld   i0,[i0,36]
	ld   r14,#0x0
	jc   ne,i0,r14,#L66
	.line 18
	ld   i0,[d1,32]
	ld   r14,#0x0
	jc   ne,i0,r14,#L67
L55:
	.dlab LBB21
	.dlab LBB22
	.stabs	"/Users/brzeszczot/workspace/mosync_engine2/IObjAnim.hpp",132,0,0,Ltext12
Ltext12:
	.line 29
	ld   r14,#__ZTV8IObjAnim+8
	ld   [d1,28],r14
	.dlab LBE22
	.dlab LBE21
	.dlab LBB23
	.dlab LBB24
	.stabs	"/Users/brzeszczot/workspace/mosync_engine2/IObjMove.hpp",132,0,0,Ltext13
Ltext13:
	.line 22
	ld   r14,#__ZTV8IObjMove+8
	ld   [d1,24],r14
	.dlab LBE24
	.dlab LBE23
	ld   i0,d1
	call &__ZN7ObjBaseD2Ev ; call non-native
	.dlab LBE20
	.stabs	"/Users/brzeszczot/workspace/mosync_engine2/Object.cpp",132,0,0,Ltext14
Ltext14:
	.line 19
	pop  rt,d1
	ret
L66:
	.dlab LBB25
	.line 17
	ld   r14,[i0]
	ld   d0,[r14,4]
	call d0 ; call non-native
	.line 18
	ld   i0,[d1,32]
	ld   r14,#0x0
	jc   eq,i0,r14,#L55
L67:
	ld   r14,[i0]
	ld   d0,[r14,4]
	call d0 ; call non-native
	.dlab LBB26
	.dlab LBB27
	.stabs	"/Users/brzeszczot/workspace/mosync_engine2/IObjAnim.hpp",132,0,0,Ltext15
Ltext15:
	.line 29
	ld   r14,#__ZTV8IObjAnim+8
	ld   [d1,28],r14
	.dlab LBE27
	.dlab LBE26
	.dlab LBB28
	.dlab LBB29
	.stabs	"/Users/brzeszczot/workspace/mosync_engine2/IObjMove.hpp",132,0,0,Ltext16
Ltext16:
	.line 22
	ld   r14,#__ZTV8IObjMove+8
	ld   [d1,24],r14
	.dlab LBE29
	.dlab LBE28
	ld   i0,d1
	call &__ZN7ObjBaseD2Ev ; call non-native
	.dlab LBE25
	.stabs	"/Users/brzeszczot/workspace/mosync_engine2/Object.cpp",132,0,0,Ltext17
Ltext17:
	.line 19
	pop  rt,d1
	ret
Lscope11:
	.set	%2=__ZN6ObjectD0Ev
	.stabs	"this:P(0,84)",64,0,16,12
	.global	__ZThn28_N6ObjectD0Ev

.func __ZThn28_N6ObjectD0Ev, 1, void
	.stabs	"/Users/brzeszczot/workspace/mosync_engine2/Object.hpp",132,0,0,Ltext18
Ltext18:
	.line 10
	push rt,fr
	ld   fr,sp
	add  fr,#0x8
	.line 10
	add  i0,#0xffffffe4
	call &%2 ; call non-native
	pop  rt,fr
	ret
Lscope12:
	.set	%3=__ZN6ObjectD0Ev
	.stabs	"this:P(0,84)",64,0,16,12
	.global	__ZThn24_N6ObjectD0Ev

.func __ZThn24_N6ObjectD0Ev, 1, void
	.line 10
	push rt,fr
	ld   fr,sp
	add  fr,#0x8
	.line 10
	add  i0,#0xffffffe8
	call &%3 ; call non-native
	pop  rt,fr
	ret
Lscope13:
	.stabs	"_ZN6ObjectD0Ev:F(0,6)",36,0,16,__ZN6ObjectD0Ev
	.stabs	"this:P(0,84)",64,0,16,5
	.global	__ZN6ObjectD0Ev

.func __ZN6ObjectD0Ev, 1, void
	.stabs	"/Users/brzeszczot/workspace/mosync_engine2/Object.cpp",132,0,0,Ltext19
Ltext19:
	.line 16
	push rt,d1
	ld   fr,sp
	add  fr,#0x10
	ld   d1,i0
	.dlab LBB30
	.line 16
	ld   r14,#__ZTV6Object+8
	ld   [i0],r14
	ld   r14,#__ZTV6Object+48
	ld   [i0,24],r14
	ld   r14,#__ZTV6Object+76
	ld   [i0,28],r14
	.line 17
	ld   i0,[i0,36]
	ld   r14,#0x0
	jc   ne,i0,r14,#L86
	.line 18
	ld   i0,[d1,32]
	ld   r14,#0x0
	jc   ne,i0,r14,#L87
L75:
	.dlab LBB31
	.dlab LBB32
	.stabs	"/Users/brzeszczot/workspace/mosync_engine2/IObjAnim.hpp",132,0,0,Ltext20
Ltext20:
	.line 29
	ld   r14,#__ZTV8IObjAnim+8
	ld   [d1,28],r14
	.dlab LBE32
	.dlab LBE31
	.dlab LBB33
	.dlab LBB34
	.stabs	"/Users/brzeszczot/workspace/mosync_engine2/IObjMove.hpp",132,0,0,Ltext21
Ltext21:
	.line 22
	ld   r14,#__ZTV8IObjMove+8
	ld   [d1,24],r14
	.dlab LBE34
	.dlab LBE33
	ld   i0,d1
	call &__ZN7ObjBaseD2Ev ; call non-native
	.dlab LBE30
	.stabs	"/Users/brzeszczot/workspace/mosync_engine2/Object.cpp",132,0,0,Ltext22
Ltext22:
	.line 19
	ld   i0,d1
	call &__ZdlPv ; call non-native
	pop  rt,d1
	ret
L86:
	.dlab LBB35
	.line 17
	ld   r14,[i0]
	ld   d0,[r14,4]
	call d0 ; call non-native
	.line 18
	ld   i0,[d1,32]
	ld   r14,#0x0
	jc   eq,i0,r14,#L75
L87:
	ld   r14,[i0]
	ld   d0,[r14,4]
	call d0 ; call non-native
	.dlab LBB36
	.dlab LBB37
	.stabs	"/Users/brzeszczot/workspace/mosync_engine2/IObjAnim.hpp",132,0,0,Ltext23
Ltext23:
	.line 29
	ld   r14,#__ZTV8IObjAnim+8
	ld   [d1,28],r14
	.dlab LBE37
	.dlab LBE36
	.dlab LBB38
	.dlab LBB39
	.stabs	"/Users/brzeszczot/workspace/mosync_engine2/IObjMove.hpp",132,0,0,Ltext24
Ltext24:
	.line 22
	ld   r14,#__ZTV8IObjMove+8
	ld   [d1,24],r14
	.dlab LBE39
	.dlab LBE38
	ld   i0,d1
	call &__ZN7ObjBaseD2Ev ; call non-native
	.dlab LBE35
	.stabs	"/Users/brzeszczot/workspace/mosync_engine2/Object.cpp",132,0,0,Ltext25
Ltext25:
	.line 19
	ld   i0,d1
	call &__ZdlPv ; call non-native
	pop  rt,d1
	ret
Lscope14:
	.stabs	"_ZN6Object8ObjExistENS_10e_objtypesE:F(0,4)",36,0,63,__ZN6Object8ObjExistENS_10e_objtypesE
	.stabs	"this:P(0,84)",64,0,63,12
	.stabs	"type:P(1,1)",64,0,63,13
	.global	__ZN6Object8ObjExistENS_10e_objtypesE

.func __ZN6Object8ObjExistENS_10e_objtypesE, 2, int
	.line 63
	push fr,fr
	ld   fr,sp
	add  fr,#0x4
	.dlab LBB40
	.line 64
	ld   r0,#0x0
	jc   eq,i1,r0,#L92
	.line 68
	ld   r14,r0
	.line 64
	ld   r0,#0x1
	jc   eq,i1,r0,#L96
L88:
	.dlab LBE40
	.line 70
	pop  fr,fr
	ret
L92:
	.dlab LBB41
	.line 67
	ld   r14,[i0,32]
	jc   eq,r14,i1,#L88
	ld   r14,#0x1
L97:
	.dlab LBE41
	.line 70
	pop  fr,fr
	ret
L96:
	.dlab LBB42
	.line 66
	ld   r14,[i0,36]
	ld   r0,#0x0
	jc   eq,r14,r0,#L88
	.line 67
	ld   r14,#0x1
	jp   #L97
	.dlab LBE42
Lscope15:
	.stabs	"_ZN6Object10BaseParamsEv:F(3,3)",36,0,34,__ZN6Object10BaseParamsEv
	.stabs	"this:P(0,84)",64,0,34,12
	.global	__ZN6Object10BaseParamsEv

.func __ZN6Object10BaseParamsEv, 1, int
	.line 34
	push rt,fr
	ld   fr,sp
	add  fr,#0x8
	.dlab LBB43
	.line 35
	call &__ZN7ObjBase10BaseParamsEv ; call non-native
	.dlab LBE43
	.line 36
	pop  rt,fr
	ret
Lscope16:
	.set	%4=__ZN6Object4MoveEN8IObjMove6e_statE6Vertex
	.stabs	"this:P(0,84)",64,0,39,12
	.stabs	"action:P(6,1)",64,0,39,13
	.stabs	"dest_coord:p(4,1)",160,0,39,-16
	.global	__ZThn24_N6Object4MoveEN8IObjMove6e_statE6Vertex

.func __ZThn24_N6Object4MoveEN8IObjMove6e_statE6Vertex, 4, int
	.stabs	"/Users/brzeszczot/workspace/mosync_engine2/Object.hpp",132,0,0,Ltext26
Ltext26:
	.line 10
	push rt,fr
	sub  sp,#0x8
	ld   fr,sp
	add  fr,#0x10
	ld   [fr,-16],i2
	ld   [fr,-12],i3
	.line 10
	add  i0,#0xffffffe8
	call &%4 ; call non-native
	add  sp,#0x8
	pop  rt,fr
	ret
Lscope17:
	.stabs	"_ZN6Object4MoveEN8IObjMove6e_statE6Vertex:F(6,2)",36,0,39,__ZN6Object4MoveEN8IObjMove6e_statE6Vertex
	.stabs	"this:P(0,84)",64,0,39,4
	.stabs	"action:P(6,1)",64,0,39,5
	.stabs	"dest_coord:p(4,1)",160,0,39,-24
	.global	__ZN6Object4MoveEN8IObjMove6e_statE6Vertex

.func __ZN6Object4MoveEN8IObjMove6e_statE6Vertex, 4, int
	.stabs	"/Users/brzeszczot/workspace/mosync_engine2/Object.cpp",132,0,0,Ltext27
Ltext27:
	.line 39
	push rt,d1
	sub  sp,#0x8
	ld   fr,sp
	add  fr,#0x18
	ld   d0,i0
	ld   d1,i1
	ld   [fr,-24],i2
	ld   [fr,-20],i3
	.dlab LBB44
	.line 40
	ld   i1,#0x0
	call &__ZN6Object8ObjExistENS_10e_objtypesE ; call non-native
	and  r14,#0xff  ; zero extend
	ld   r0,#0x0
	jc   ne,r14,r0,#L102
	.dlab LBE44
	.line 42
	add  sp,#0x8
	pop  rt,d1
	ret
L102:
	.dlab LBB45
	.line 41
	ld   i0,[d0,32]
	ld   r0,[i0]
	ld   r14,[fr,-24]
	ld   r15,[fr,-20]
	ld   d0,[r0,12]
	ld   i1,d1
	ld   i2,r14
	ld   i3,r15
	call d0 ; call non-native
	.dlab LBE45
	.line 42
	add  sp,#0x8
	pop  rt,d1
	ret
Lscope18:
	.set	%5=__ZN6Object10MoveParamsEv
	.stabs	"this:P(0,84)",64,0,45,13
	.global	__ZThn24_N6Object10MoveParamsEv

.func __ZThn24_N6Object10MoveParamsEv, 2, int
	.stabs	"/Users/brzeszczot/workspace/mosync_engine2/Object.hpp",132,0,0,Ltext28
Ltext28:
	.line 10
	push rt,d0
	ld   fr,sp
	add  fr,#0xc
	ld   d0,i0
	.line 10
	add  i1,#0xffffffe8
	call &%5 ; call non-native
	ld   r14,d0
	pop  rt,d0
	ret
Lscope19:
	.stabs	"_ZN6Object10MoveParamsEv:F(6,3)",36,0,45,__ZN6Object10MoveParamsEv
	.stabs	"this:P(0,84)",64,0,45,4
	.global	__ZN6Object10MoveParamsEv

.func __ZN6Object10MoveParamsEv, 2, int
	.stabs	"/Users/brzeszczot/workspace/mosync_engine2/Object.cpp",132,0,0,Ltext29
Ltext29:
	.line 45
	push rt,d1
	ld   fr,sp
	add  fr,#0x10
	ld   d1,i0
	ld   d0,i1
	.dlab LBB46
	.line 46
	ld   i0,i1
	ld   i1,#0x0
	call &__ZN6Object8ObjExistENS_10e_objtypesE ; call non-native
	ld   r0,r14
	and  r0,#0xff  ; zero extend
	ld   r14,#0x0
	jc   ne,r0,r14,#L106
	.dlab LBE46
	.line 48
	ld   r14,d1
	pop  rt,d1
	ret
L106:
	.dlab LBB47
	.line 47
	ld   i1,[d0,32]
	ld   r14,[i1]
	ld   d0,[r14,16]
	ld   i0,d1
	call d0 ; call non-native
	.dlab LBE47
	.line 48
	ld   r14,d1
	pop  rt,d1
	ret
Lscope20:
	.set	%6=__ZN6Object11SetResourceEN8IObjAnim10s_resourceE
	.stabs	"this:P(0,84)",64,0,51,12
	.stabs	"res:p(67,1)",160,0,51,0
	.global	__ZThn28_N6Object11SetResourceEN8IObjAnim10s_resourceE

.func __ZThn28_N6Object11SetResourceEN8IObjAnim10s_resourceE, 8, void
	.stabs	"/Users/brzeszczot/workspace/mosync_engine2/Object.hpp",132,0,0,Ltext30
Ltext30:
	.line 10
	push rt,d0
	sub  sp,#0x1c
	ld   fr,sp
	add  fr,#0x28
	.line 10
	ld   d0,i0
	add  d0,#0xffffffe4
	ld   i0,sp
	ld   i1,fr
	ld   i2,#0x1c
	call &_memcpy ; call non-native
	ld   i0,d0
	call &%6 ; call non-native
	add  sp,#0x1c
	pop  rt,d0
	ret
Lscope21:
	.stabs	"_ZN6Object11SetResourceEN8IObjAnim10s_resourceE:F(0,6)",36,0,51,__ZN6Object11SetResourceEN8IObjAnim10s_resourceE
	.stabs	"this:P(0,84)",64,0,51,4
	.stabs	"res:p(67,1)",160,0,51,0
	.global	__ZN6Object11SetResourceEN8IObjAnim10s_resourceE

.func __ZN6Object11SetResourceEN8IObjAnim10s_resourceE, 8, void
	.stabs	"/Users/brzeszczot/workspace/mosync_engine2/Object.cpp",132,0,0,Ltext31
Ltext31:
	.line 51
	push rt,d1
	sub  sp,#0x1c
	ld   fr,sp
	add  fr,#0x2c
	ld   d0,i0
	.dlab LBB48
	.line 52
	ld   i1,#0x1
	call &__ZN6Object8ObjExistENS_10e_objtypesE ; call non-native
	and  r14,#0xff  ; zero extend
	ld   r0,#0x0
	jc   ne,r14,r0,#L110
	.dlab LBE48
	.line 54
	add  sp,#0x1c
	pop  rt,d1
	ret
L110:
	.dlab LBB49
	.line 53
	ld   d0,[d0,36]
	ld   d1,[d0]
	ld   i0,sp
	ld   i1,fr
	ld   i2,#0x1c
	call &_memcpy ; call non-native
	ld   d1,[d1,12]
	ld   i0,d0
	call d1 ; call non-native
	.dlab LBE49
	.line 54
	add  sp,#0x1c
	pop  rt,d1
	ret
Lscope22:
	.set	%7=__ZN6Object10AnimParamsEv
	.stabs	"this:P(0,84)",64,0,57,12
	.global	__ZThn28_N6Object10AnimParamsEv

.func __ZThn28_N6Object10AnimParamsEv, 1, int
	.stabs	"/Users/brzeszczot/workspace/mosync_engine2/Object.hpp",132,0,0,Ltext32
Ltext32:
	.line 10
	push rt,fr
	ld   fr,sp
	add  fr,#0x8
	.line 10
	add  i0,#0xffffffe4
	call &%7 ; call non-native
	pop  rt,fr
	ret
Lscope23:
	.stabs	"_ZN6Object10AnimParamsEv:F(67,11)",36,0,57,__ZN6Object10AnimParamsEv
	.stabs	"this:P(0,84)",64,0,57,4
	.global	__ZN6Object10AnimParamsEv

.func __ZN6Object10AnimParamsEv, 1, int
	.stabs	"/Users/brzeszczot/workspace/mosync_engine2/Object.cpp",132,0,0,Ltext33
Ltext33:
	.line 57
	push rt,d0
	ld   fr,sp
	add  fr,#0xc
	ld   d0,i0
	.dlab LBB50
	.line 58
	ld   i1,#0x1
	call &__ZN6Object8ObjExistENS_10e_objtypesE ; call non-native
	and  r14,#0xff  ; zero extend
	ld   r0,#0x0
	jc   ne,r14,r0,#L114
	.dlab LBE50
	.line 60
	pop  rt,d0
	ret
L114:
	.dlab LBB51
	.line 59
	ld   i0,[d0,36]
	ld   r14,[i0]
	ld   d0,[r14,16]
	call d0 ; call non-native
	.dlab LBE51
	.line 60
	pop  rt,d0
	ret
Lscope24:
	.stabs	"_ZN6Object9ObjManageENS_10e_objtypesEb:F(0,6)",36,0,73,__ZN6Object9ObjManageENS_10e_objtypesEb
	.stabs	"this:P(0,84)",64,0,73,4
	.stabs	"type:P(1,1)",64,0,73,13
	.stabs	"enable:P(0,4)",64,0,73,14
	.global	__ZN6Object9ObjManageENS_10e_objtypesEb

.func __ZN6Object9ObjManageENS_10e_objtypesEb, 3, void
	.line 73
	push rt,d2
	ld   fr,sp
	add  fr,#0x14
	ld   d0,i0
	.dlab LBB52
	.line 74
	ld   r0,#0x0
	jc   ne,i1,r0,#L116
	.line 76
	and  i2,#0xff  ; zero extend
	jc   eq,i2,i1,#L117
	ld   r14,[i0,32]
	jc   eq,r14,r0,#L134
L117:
	.line 78
	ld   r0,#0x0
	jc   ne,i2,r0,#L115
	ld   i0,[d0,32]
L133:
	.line 85
	jc   eq,i0,i2,#L115
	.line 86
	ld   r14,[i0]
	ld   d0,[r14,4]
	call d0 ; call non-native
L115:
	.dlab LBE52
	.line 88
	pop  rt,d2
	ret
L116:
	.dlab LBB53
	.line 81
	ld   r14,#0x1
	jc   ne,i1,r14,#L115
	.line 83
	and  i2,#0xff  ; zero extend
	ld   r0,#0x0
	jc   eq,i2,r0,#L131
	ld   d1,[i0,36]
	jc   eq,d1,r0,#L135
	.line 85
	ld   r14,#0x0
	jc   ne,i2,r14,#L115
L131:
	ld   i0,[d0,36]
	jp   #L133
L134:
	.line 77
	ld   i0,#0x28
	call &__Znwm ; call non-native
	ld   d1,r14
	ld   r14,#0x0
	jc   ne,d1,r14,#L136
	ld   [d0,32],d1
L137:
	.dlab LBE53
	.line 88
	pop  rt,d2
	ret
L136:
	.dlab LBB54
	.line 77
	ld   i0,d1
	ld   i1,d0
	call &__ZN7ObjMoveC1EP7ObjBase ; call non-native
	ld   [d0,32],d1
	jp   #L137
L135:
	.line 84
	ld   i0,#0x38
	call &__Znwm ; call non-native
	ld   d2,r14
	jc   eq,r14,d1,#L126
	ld   i0,r14
	ld   i1,d0
	call &__ZN7ObjAnimC1EP7ObjBase ; call non-native
L126:
	ld   [d0,36],d2
	.dlab LBE54
	.line 88
	pop  rt,d2
	ret
Lscope25:
	.stabs	"_ZN6Object16UpdateAnimIfMoveEv:F(0,4)",36,0,91,__ZN6Object16UpdateAnimIfMoveEv
	.stabs	"this:P(0,84)",64,0,91,5
	.global	__ZN6Object16UpdateAnimIfMoveEv

.func __ZN6Object16UpdateAnimIfMoveEv, 1, int
	.line 91
	push rt,d4
	sub  sp,#0x20
	ld   fr,sp
	add  fr,#0x3c
	ld   d1,i0
	.dlab LBB55
	.line 92
	ld   i1,#0x1
	call &__ZN6Object8ObjExistENS_10e_objtypesE ; call non-native
	and  r14,#0xff  ; zero extend
	ld   r0,#0x0
	jc   eq,r14,r0,#L139
	ld   i0,d1
	ld   i1,r0
	call &__ZN6Object8ObjExistENS_10e_objtypesE ; call non-native
	and  r14,#0xff  ; zero extend
	ld   r0,#0x0
	jc   ne,r14,r0,#L156
L139:
	.line 117
	ld   r14,#0x0
	.dlab LBE55
	.line 118
	add  sp,#0x20
	pop  rt,d4
	ret
L156:
	.dlab LBB56
	.line 94
	ld   d4,fr
	add  d4,#0xffffffcc
	ld   r14,[d1]
	ld   d0,[r14,20]
	ld   i0,d4
	ld   i1,d1
	call d0 ; call non-native
	ld   r14,[fr,-36]
	ld   r0,#0x1
	jc   eq,r14,r0,#L157
L140:
	.line 106
	ld   d3,#0x0
	ld   r14,[d1]
	ld   d0,[r14,20]
	ld   i0,d4
	ld   i1,d1
	call d0 ; call non-native
	ld   d2,d3
	and  d2,#0xff  ; zero extend
	ld   r14,[fr,-36]
	ld   r0,#0x1
	jc   eq,r14,r0,#L158
L148:
	.line 108
	ld   r14,[d1]
	ld   d0,[r14,28]
	ld   i0,d1
	call d0 ; call non-native
	ld.b r14,[r14,8]
	and  r14,#0xff  ; zero extend
	jc   eq,r14,d2,#L150
	ld   r14,[d1]
	ld   d0,[r14,20]
	ld   i0,d4
	ld   i1,d1
	call d0 ; call non-native
	ld   r14,[fr,-36]
	ld   r0,#0x1
	jc   eq,r14,r0,#L150
	.line 110
	ld   r14,[d1]
	ld   d0,[r14,28]
	ld   i0,d1
	call d0 ; call non-native
	ld   r0,#0x0
	ld.b [r14,8],r0
	.line 111
	ld   r14,[d1]
	ld   d0,[r14,28]
	ld   i0,d1
	call d0 ; call non-native
	ld   d0,r14
	ld   i0,fr
	add  i0,#0xffffffc4
	ld   i1,#0x0
	ld   i2,#0x2
	call &__ZN6VertexC1Eii ; call non-native
	ld   r14,[fr,-60]
	ld   r15,[fr,-56]
	ld   i0,d0
	ld   i1,r14
	ld   i2,r15
	call &__ZN6VertexaSES_ ; call non-native
L150:
	.line 114
	ld   r14,#0x1
L159:
	.dlab LBE56
	.line 118
	add  sp,#0x20
	pop  rt,d4
	ret
L158:
	.dlab LBB57
	.line 106
	ld   r14,[d1]
	ld   d0,[r14,28]
	ld   i0,d1
	call d0 ; call non-native
	ld.b r14,[r14,8]
	and  r14,#0xff  ; zero extend
	ld   d2,d3
	and  d2,#0xff  ; zero extend
	ld   r0,#0x0
	jc   ne,r14,r0,#L148
	.line 107
	ld   r14,[d1]
	ld   d0,[r14,28]
	ld   i0,d1
	call d0 ; call non-native
	ld   r0,#0x1
	ld.b [r14,8],r0
	.line 114
	ld   r14,#0x1
	jp   #L159
L157:
	.line 96
	ld   r14,[d1]
	ld   d0,[r14,20]
	ld   i0,d4
	ld   i1,d1
	call d0 ; call non-native
	ld   r14,[fr,-32]
	case r14,#0xffffffff,#0x4,#L147,#L140
.data
	.align 4
L147:
	.word L146
	.word L142
	.word L146
	.word L145
	.word L143
.code
L146:
	.line 102
	ld   r14,[d1]
	ld   d0,[r14,28]
	ld   i0,d1
	call d0 ; call non-native
	ld   r0,#0x2
	ld   [r14,4],r0
	jp   #L140
L143:
	.line 99
	ld   r14,[d1]
	ld   d0,[r14,28]
	ld   i0,d1
	call d0 ; call non-native
	ld   r0,#0x1
	.line 102
	ld   [r14,4],r0
	jp   #L140
L145:
	.line 101
	ld   r14,[d1]
	ld   d0,[r14,28]
	ld   i0,d1
	call d0 ; call non-native
	ld   r0,#0x3
	.line 102
	ld   [r14,4],r0
	jp   #L140
L142:
	.line 98
	ld   r14,[d1]
	ld   d0,[r14,28]
	ld   i0,d1
	call d0 ; call non-native
	ld   r0,#0x0
	.line 102
	ld   [r14,4],r0
	jp   #L140
	.dlab LBE57
Lscope26:
	.set	%8=__ZN6Object6UpdateEl
	.stabs	"this:P(0,84)",64,0,22,12
	.stabs	"ts:P(0,18)",64,0,22,13
	.global	__ZThn28_N6Object6UpdateEl

.func __ZThn28_N6Object6UpdateEl, 2, void
	.stabs	"/Users/brzeszczot/workspace/mosync_engine2/Object.hpp",132,0,0,Ltext34
Ltext34:
	.line 10
	push rt,fr
	ld   fr,sp
	add  fr,#0x8
	.line 10
	add  i0,#0xffffffe4
	call &%8 ; call non-native
	pop  rt,fr
	ret
Lscope27:
	.set	%9=__ZN6Object6UpdateEl
	.stabs	"this:P(0,84)",64,0,22,12
	.stabs	"ts:P(0,18)",64,0,22,13
	.global	__ZThn24_N6Object6UpdateEl

.func __ZThn24_N6Object6UpdateEl, 2, void
	.line 10
	push rt,fr
	ld   fr,sp
	add  fr,#0x8
	.line 10
	add  i0,#0xffffffe8
	call &%9 ; call non-native
	pop  rt,fr
	ret
Lscope28:
	.stabs	"_ZN6Object6UpdateEl:F(0,6)",36,0,22,__ZN6Object6UpdateEl
	.stabs	"this:P(0,84)",64,0,22,5
	.stabs	"ts:P(0,18)",64,0,22,6
	.global	__ZN6Object6UpdateEl

.func __ZN6Object6UpdateEl, 2, void
	.stabs	"/Users/brzeszczot/workspace/mosync_engine2/Object.cpp",132,0,0,Ltext35
Ltext35:
	.line 22
	push rt,d2
	ld   fr,sp
	add  fr,#0x14
	ld   d1,i0
	ld   d2,i1
	.dlab LBB58
	.line 23
	call &__ZN6Object16UpdateAnimIfMoveEv ; call non-native
	.line 25
	ld   i0,d1
	ld   i1,d2
	call &__ZN7ObjBase6UpdateEl ; call non-native
	.line 27
	ld   i0,d1
	ld   i1,#0x0
	call &__ZN6Object8ObjExistENS_10e_objtypesE ; call non-native
	and  r14,#0xff  ; zero extend
	ld   r0,#0x0
	jc   ne,r14,r0,#L165
L163:
	.line 29
	ld   i0,d1
	ld   i1,#0x1
	call &__ZN6Object8ObjExistENS_10e_objtypesE ; call non-native
	and  r14,#0xff  ; zero extend
	ld   r0,#0x0
	jc   ne,r14,r0,#L166
	.dlab LBE58
	.line 31
	pop  rt,d2
	ret
L166:
	.dlab LBB59
	.line 30
	ld   i0,[d1,36]
	ld   r14,[i0]
	ld   d0,[r14,8]
	ld   i1,d2
	call d0 ; call non-native
	.dlab LBE59
	.line 31
	pop  rt,d2
	ret
L165:
	.dlab LBB60
	.line 28
	ld   i0,[d1,32]
	ld   r14,[i0]
	ld   d0,[r14,8]
	ld   i1,d2
	call d0 ; call non-native
	jp   #L163
	.dlab LBE60
Lscope29:
	.text
	.stabs "",100,0,0,Letext
Letext:
